 PhysXCooking_64

 Timestamp is 5e1267d6 (Mon Jan  6 07:48:54 2020)

 Preferred load address is 0000000180000000

 Start         Length     Name                   Class
 0001:00000000 00000640H .text$di                CODE
 0001:00000640 0002c150H .text$mn                CODE
 0001:0002c790 00000012H .text$mn$00             CODE
 0001:0002c7a2 00000081H .text$x                 CODE
 0002:00000000 000001c0H .idata$5                DATA
 0002:000001c0 00000010H .00cfg                  DATA
 0002:000001d0 00000008H .CRT$XCA                DATA
 0002:000001d8 000001e0H .CRT$XCU                DATA
 0002:000003b8 00000008H .CRT$XCZ                DATA
 0002:000003c0 00000008H .CRT$XIA                DATA
 0002:000003c8 00000008H .CRT$XIZ                DATA
 0002:000003d0 00000008H .CRT$XPA                DATA
 0002:000003d8 00000008H .CRT$XPZ                DATA
 0002:000003e0 00000008H .CRT$XTA                DATA
 0002:000003e8 00000008H .CRT$XTZ                DATA
 0002:000003f0 00001dd8H .rdata                  DATA
 0002:000021c8 00000074H .rdata$r                DATA
 0002:0000223c 0000038cH .rdata$zzzdbg           DATA
 0002:000025c8 00000008H .rtc$IAA                DATA
 0002:000025d0 00000008H .rtc$IZZ                DATA
 0002:000025d8 00000008H .rtc$TAA                DATA
 0002:000025e0 00000008H .rtc$TZZ                DATA
 0002:000025e8 000039f0H .xdata                  DATA
 0002:00005fd8 00000040H .didat$2                DATA
 0002:00006018 00000020H .didat$3                DATA
 0002:00006038 000001e8H .didat$4                DATA
 0002:00006220 00000bf8H .didat$6                DATA
 0002:00006e18 000001e8H .didat$7                DATA
 0002:00007000 00001d54H .edata                  DATA
 0002:00008d54 00000078H .idata$2                DATA
 0002:00008dcc 00000014H .idata$3                DATA
 0002:00008de0 000001c0H .idata$4                DATA
 0002:00008fa0 0000044aH .idata$6                DATA
 0003:00000000 00000060H .data                   DATA
 0003:00000060 00000650H .data$r                 DATA
 0003:000006b0 000001f0H .didat$5                DATA
 0003:000008a0 00000490H .bss                    DATA
 0004:00000000 00002340H .pdata                  DATA
 0005:00000000 0000001cH .gfids$y                DATA
 0006:00000000 000000a0H .rsrc$01                DATA
 0006:000000a0 000004b0H .rsrc$02                DATA

  Address         Publics by Value              Rva+Base               Lib:Object

 0000:00000000       __guard_fids_table         0000000000000000     <absolute>
 0000:00000000       __guard_longjmp_count      0000000000000000     <absolute>
 0000:00000000       __guard_iat_count          0000000000000000     <absolute>
 0000:00000000       ___safe_se_handler_table   0000000000000000     <absolute>
 0000:00000000       ___safe_se_handler_count   0000000000000000     <absolute>
 0000:00000000       __guard_iat_table          0000000000000000     <absolute>
 0000:00000000       __guard_fids_count         0000000000000000     <absolute>
 0000:00000000       __guard_longjmp_table      0000000000000000     <absolute>
 0000:00000000       __dynamic_value_reloc_table 0000000000000000     <absolute>
 0000:00000100       __guard_flags              0000000000000100     <absolute>
 0000:00000000       __ImageBase                0000000180000000     <linker-defined>
 0001:00000640       ?ComputeNbBoundaryEdges@AdjTriangle@physx@@QEBAIXZ 0000000180001640 f   Adjacencies.obj
 0001:00000690       ?ComputeNbNeighbors@AdjTriangle@physx@@QEBAIXZ 0000000180001690 f   Adjacencies.obj
 0001:000006e0       ?HasNeighbor@AdjTriangle@physx@@QEBA_NIPEAI@Z 00000001800016e0 f   Adjacencies.obj
 0001:00000750       ?Flip@AdjTriangle@physx@@QEAAXXZ 0000000180001750 f   Adjacencies.obj
 0001:00000770       ??0Adjacencies@physx@@QEAA@XZ 0000000180001770 f   Adjacencies.obj
 0001:00000790       ??1Adjacencies@physx@@QEAA@XZ 0000000180001790 f   Adjacencies.obj
 0001:00000800       ?Load@Adjacencies@physx@@QEAA_NAEAVPxInputStream@2@@Z 0000000180001800 f   Adjacencies.obj
 0001:00000920       ?ComputeNbBoundaryEdges@Adjacencies@physx@@QEBAIXZ 0000000180001920 f   Adjacencies.obj
 0001:000009a0       ?GetBoundaryVertices@Adjacencies@physx@@QEBA_NIPEA_NPEBU?$TriangleT@I@Gu@2@@Z 00000001800019a0 f   Adjacencies.obj
 0001:00000af0       ?MakeLastRef@Adjacencies@physx@@QEAA_NAEAVAdjTriangle@2@IPEAU?$TriangleT@I@Gu@2@@Z 0000000180001af0 f   Adjacencies.obj
 0001:00000d10       ?AssignNewEdgeCode@Adjacencies@physx@@AEAAXIE@Z 0000000180001d10 f   Adjacencies.obj
 0001:00000d60       ??0AdjacenciesBuilder@physx@@QEAA@XZ 0000000180001d60 f   Adjacencies.obj
 0001:00000d80       ??1AdjacenciesBuilder@physx@@QEAA@XZ 0000000180001d80 f   Adjacencies.obj
 0001:00000d90       ?Init@AdjacenciesBuilder@physx@@QEAA_NAEBUADJACENCIESCREATE@2@@Z 0000000180001d90 f   Adjacencies.obj
 0001:00001120       ??0AdjEdge@@QEAA@XZ        0000000180002120 f i Adjacencies.obj
 0001:00001130       ??0AdjTriangle@physx@@QEAA@XZ 0000000180002130 f i Adjacencies.obj
 0001:00001140       ??0Allocator@shdfnd@physx@@QEAA@PEBD@Z 0000000180002140 f i Adjacencies.obj
 0001:00001150       ??0PxFoundation@physx@@QEAA@AEBV01@@Z 0000000180002150 f i Adjacencies.obj
 0001:00001160       ??0PxFoundation@physx@@QEAA@XZ 0000000180002160 f i Adjacencies.obj
 0001:00001170       ??1AdjEdge@@QEAA@XZ        0000000180002170 f i Adjacencies.obj
 0001:00001180       ??1AdjTriangle@physx@@QEAA@XZ 0000000180002180 f i Adjacencies.obj
 0001:00001190       ??1PxFoundation@physx@@MEAA@XZ 0000000180002190 f i Adjacencies.obj
 0001:000011a0       ??4Allocator@shdfnd@physx@@QEAAAEAV012@$$QEAV012@@Z 00000001800021a0 f i Adjacencies.obj
 0001:000011b0       ??4Allocator@shdfnd@physx@@QEAAAEAV012@AEBV012@@Z 00000001800021b0 f i Adjacencies.obj
 0001:000011c0       ??4MutexImpl@shdfnd@physx@@QEAAAEAV012@AEBV012@@Z 00000001800021c0 f i Adjacencies.obj
 0001:000011d0       ??4PxFoundation@physx@@QEAAAEAV01@AEBV01@@Z 00000001800021d0 f i Adjacencies.obj
 0001:000011e0       ??_EAdjEdge@@QEAAPEAXI@Z   00000001800021e0 f i Adjacencies.obj
 0001:00001260       ??_EAdjTriangle@physx@@QEAAPEAXI@Z 0000000180002260 f i Adjacencies.obj
 0001:000012e0       ??_EPxFoundation@physx@@MEAAPEAXI@Z 00000001800022e0 f i Adjacencies.obj
 0001:00001370       ??_FAllocator@shdfnd@physx@@QEAAXXZ 0000000180002370 f i Adjacencies.obj
 0001:00001380       ??_GPxFoundation@physx@@MEAAPEAXI@Z 0000000180002380 f i Adjacencies.obj
 0001:000013b0       ??_H@YAXPEAX_K1P6APEAX0@Z@Z 00000001800023b0 f i Adjacencies.obj
 0001:00001400       ??_I@YAXPEAX_K1P6AX0@Z@Z   0000000180002400 f i Adjacencies.obj
 0001:000017c0       ?GetNbHits@RadixSort@Cm@physx@@QEBAIXZ 00000001800027c0 f i Adjacencies.obj
 0001:000017d0       ?GetNbTotalCalls@RadixSort@Cm@physx@@QEBAIXZ 00000001800027d0 f i Adjacencies.obj
 0001:000017e0       ?GetRanks@RadixSort@Cm@physx@@QEBAPEBIXZ 00000001800027e0 f i Adjacencies.obj
 0001:000017f0       ?GetRecyclable@RadixSort@Cm@physx@@QEBAPEAIXZ 00000001800027f0 f i Adjacencies.obj
 0001:00001a40       ?__empty_global_delete@@YAXPEAX@Z 0000000180002a40 f i Adjacencies.obj
 0001:00001a50       ?__empty_global_delete@@YAXPEAX_K@Z 0000000180002a50 f i Adjacencies.obj
 0001:00001a60       ?getAllocator@Foundation@shdfnd@physx@@QEAAAEAVPxAllocatorCallback@3@XZ 0000000180002a60 f i Adjacencies.obj
 0001:00001a70       ?getAllocatorCallback@Foundation@shdfnd@physx@@UEAAAEAVPxAllocatorCallback@3@XZ 0000000180002a70 f i Adjacencies.obj
 0001:00001a80       ?getErrorCallback@Foundation@shdfnd@physx@@UEAAAEAVPxErrorCallback@3@XZ 0000000180002a80 f i Adjacencies.obj
 0001:00001a90       ?getErrorLevel@Foundation@shdfnd@physx@@UEBA?AW4Enum@PxErrorCode@3@XZ 0000000180002a90 f i Adjacencies.obj
 0001:00001aa0       ?getInternalErrorCallback@Foundation@shdfnd@physx@@QEAAAEAVPxErrorCallback@3@XZ 0000000180002aa0 f i Adjacencies.obj
 0001:00001ab0       ?getNamedAllocMap@Foundation@shdfnd@physx@@QEAAAEAV?$HashMap@PEBVNamedAllocator@shdfnd@physx@@PEBDU?$Hash@PEBVNamedAllocator@shdfnd@physx@@@23@VNonTrackingAllocator@23@@23@XZ 0000000180002ab0 f i Adjacencies.obj
 0001:00001ac0       ?getNamedAllocMutex@Foundation@shdfnd@physx@@QEAAAEAV?$MutexT@VAllocator@shdfnd@physx@@@23@XZ 0000000180002ac0 f i Adjacencies.obj
 0001:00001ad0       ?getReportAllocationNames@Foundation@shdfnd@physx@@UEBA_NXZ 0000000180002ad0 f i Adjacencies.obj
 0001:00001ae0       ?getTempAllocFreeTable@Foundation@shdfnd@physx@@QEAAAEAV?$Array@PEATTempAllocatorChunk@shdfnd@physx@@VAllocator@23@@23@XZ 0000000180002ae0 f i Adjacencies.obj
 0001:00001af0       ?getTempAllocMutex@Foundation@shdfnd@physx@@QEAAAEAV?$MutexT@VAllocator@shdfnd@physx@@@23@XZ 0000000180002af0 f i Adjacencies.obj
 0001:00001b00       ?invalidateRanks@RadixSort@Cm@physx@@QEAAXXZ 0000000180002b00 f i Adjacencies.obj
 0001:00001b10       ?setErrorLevel@Foundation@shdfnd@physx@@UEAAXW4Enum@PxErrorCode@3@@Z 0000000180002b10 f i Adjacencies.obj
 0001:00001b20       ?setReportAllocationNames@Foundation@shdfnd@physx@@UEAAX_N@Z 0000000180002b20 f i Adjacencies.obj
 0001:00001b30       PxCreateCooking            0000000180002b30 f   Cooking.obj
 0001:00001c20       ?release@Cooking@physx@@UEAAXXZ 0000000180002c20 f   Cooking.obj
 0001:00001c50       ?setParams@Cooking@physx@@UEAAXAEBUPxCookingParams@2@@Z 0000000180002c50 f   Cooking.obj
 0001:00001cb0       ?getParams@Cooking@physx@@UEBAAEBUPxCookingParams@2@XZ 0000000180002cb0 f   Cooking.obj
 0001:00001cc0       ?platformMismatch@Cooking@physx@@UEBA_NXZ 0000000180002cc0 f   Cooking.obj
 0001:00001cd0       ?cookTriangleMesh@Cooking@physx@@UEBA_NAEBVPxTriangleMeshDesc@2@AEAVPxOutputStream@2@PEAW4Enum@PxTriangleMeshCookingResult@2@@Z 0000000180002cd0 f   Cooking.obj
 0001:00001e30       ?createTriangleMesh@Cooking@physx@@UEBAPEAVPxTriangleMesh@2@AEBVPxTriangleMeshDesc@2@AEAVPxPhysicsInsertionCallback@2@PEAW4Enum@PxTriangleMeshCookingResult@2@@Z 0000000180002e30 f   Cooking.obj
 0001:00001f90       ?validateTriangleMesh@Cooking@physx@@UEBA_NAEBVPxTriangleMeshDesc@2@@Z 0000000180002f90 f   Cooking.obj
 0001:00002040       ?cookConvexMesh@Cooking@physx@@UEBA_NAEBVPxConvexMeshDesc@2@AEAVPxOutputStream@2@PEAW4Enum@PxConvexMeshCookingResult@2@@Z 0000000180003040 f   Cooking.obj
 0001:00002230       ?createConvexMesh@Cooking@physx@@UEBAPEAVPxConvexMesh@2@AEBVPxConvexMeshDesc@2@AEAVPxPhysicsInsertionCallback@2@PEAW4Enum@PxConvexMeshCookingResult@2@@Z 0000000180003230 f   Cooking.obj
 0001:000024d0       ?validateConvexMesh@Cooking@physx@@UEBA_NAEBVPxConvexMeshDesc@2@@Z 00000001800034d0 f   Cooking.obj
 0001:00002540       ?computeHullPolygons@Cooking@physx@@UEBA_NAEBVPxSimpleTriangleMesh@2@AEAVPxAllocatorCallback@2@AEAIAEAPEAVPxVec3@2@2AEAPEAI2AEAPEAUPxHullPolygon@2@@Z 0000000180003540 f   Cooking.obj
 0001:00002720       ?cookHeightField@Cooking@physx@@UEBA_NAEBVPxHeightFieldDesc@2@AEAVPxOutputStream@2@@Z 0000000180003720 f   Cooking.obj
 0001:00002820       ?createHeightField@Cooking@physx@@UEBAPEAVPxHeightField@2@AEBVPxHeightFieldDesc@2@AEAVPxPhysicsInsertionCallback@2@@Z 0000000180003820 f   Cooking.obj
 0001:00002990       ?cookBVHStructure@Cooking@physx@@UEBA_NAEBVPxBVHStructureDesc@2@AEAVPxOutputStream@2@@Z 0000000180003990 f   Cooking.obj
 0001:00002a40       ?createBVHStructure@Cooking@physx@@UEBAPEAVPxBVHStructure@2@AEBVPxBVHStructureDesc@2@AEAVPxPhysicsInsertionCallback@2@@Z 0000000180003a40 f   Cooking.obj
 0001:00002af0       ?cookConvexMeshInternal@Cooking@physx@@AEBA_NAEBVPxConvexMeshDesc@2@AEAVConvexMeshBuilder@2@PEAVConvexHullLib@2@PEAW4Enum@PxConvexMeshCookingResult@2@@Z 0000000180003af0 f   Cooking.obj
 0001:00002ce0       ?cookTriangleMesh@Cooking@physx@@AEBA_NAEAVTriangleMeshBuilder@2@AEBVPxTriangleMeshDesc@2@AEAVPxOutputStream@2@PEAW4Enum@PxTriangleMeshCookingResult@2@@Z 0000000180003ce0 f   Cooking.obj
 0001:00002d80       ?createTriangleMesh@Cooking@physx@@AEBAPEAVPxTriangleMesh@2@AEAVTriangleMeshBuilder@2@AEBVPxTriangleMeshDesc@2@AEAVPxPhysicsInsertionCallback@2@PEAW4Enum@PxTriangleMeshCookingResult@2@@Z 0000000180003d80 f   Cooking.obj
 0001:00002e30       ??0ConvexMesh@Gu@physx@@QEAA@V?$PxFlags@W4Enum@PxBaseFlag@physx@@G@2@@Z 0000000180003e30 f i Cooking.obj
 0001:00002e60       ??0DebugText@Cm@physx@@QEAA@$$QEAU012@@Z 0000000180003e60 f i Cooking.obj
 0001:00002f40       ??0DebugText@Cm@physx@@QEAA@AEBU012@@Z 0000000180003f40 f i Cooking.obj
 0001:00003020       ??0HeightFieldData@Gu@physx@@QEAA@$$QEAU012@@Z 0000000180004020 f i Cooking.obj
 0001:00003080       ??0HeightFieldData@Gu@physx@@QEAA@AEBU012@@Z 0000000180004080 f i Cooking.obj
 0001:000030e0       ??0HeightFieldData@Gu@physx@@QEAA@W4PxEMPTY@2@@Z 00000001800040e0 f i Cooking.obj
 0001:000030f0       ??0HeightFieldData@Gu@physx@@QEAA@XZ 00000001800040f0 f i Cooking.obj
 0001:00003100       ??0RenderOutput@Cm@physx@@QEAA@AEAVRenderBuffer@12@@Z 0000000180004100 f i Cooking.obj
 0001:00003150       ??0RenderOutput@Cm@physx@@QEAA@AEBV012@@Z 0000000180004150 f i Cooking.obj
 0001:000031f0       ??1HeightFieldData@Gu@physx@@QEAA@XZ 00000001800041f0 f i Cooking.obj
 0001:00003200       ??1PxBase@physx@@MEAA@XZ   0000000180004200 f i Cooking.obj
 0001:00003210       ??1PxConvexMesh@physx@@MEAA@XZ 0000000180004210 f i Cooking.obj
 0001:00003220       ??1PxCooking@physx@@MEAA@XZ 0000000180004220 f i Cooking.obj
 0001:00003230       ??1PxHeightField@physx@@MEAA@XZ 0000000180004230 f i Cooking.obj
 0001:00003240       ??1RefCountable@Cm@physx@@UEAA@XZ 0000000180004240 f i Cooking.obj
 0001:00003250       ??4DebugText@Cm@physx@@QEAAAEAU012@$$QEAU012@@Z 0000000180004250 f i Cooking.obj
 0001:000032c0       ??4DebugText@Cm@physx@@QEAAAEAU012@AEBU012@@Z 00000001800042c0 f i Cooking.obj
 0001:00003330       ??4FPUGuard@shdfnd@physx@@QEAAAEAV012@AEBV012@@Z 0000000180004330 f i Cooking.obj
 0001:00003350       ??4HeightFieldData@Gu@physx@@QEAAAEAU012@$$QEAU012@@Z 0000000180004350 f i Cooking.obj
 0001:000033b0       ??4HeightFieldData@Gu@physx@@QEAAAEAU012@AEBU012@@Z 00000001800043b0 f i Cooking.obj
 0001:00003410       ??_EConvexMesh@Gu@physx@@UEAAPEAXI@Z 0000000180004410 f i Cooking.obj
 0001:0000351c       ??_EConvexMesh@Gu@physx@@WBA@EAAPEAXI@Z 000000018000451c f i Cooking.obj
 0001:00003530       ??_EPxConvexMesh@physx@@MEAAPEAXI@Z 0000000180004530 f i Cooking.obj
 0001:000035c0       ??_ECooking@physx@@UEAAPEAXI@Z 00000001800045c0 f i Cooking.obj
 0001:000035c0       ??_GCooking@physx@@UEAAPEAXI@Z 00000001800045c0 f i Cooking.obj
 0001:00003610       ??_GPxBase@physx@@MEAAPEAXI@Z 0000000180004610 f i Cooking.obj
 0001:00003610       ??_EPxBase@physx@@MEAAPEAXI@Z 0000000180004610 f i Cooking.obj
 0001:00003640       ??_GPxCooking@physx@@MEAAPEAXI@Z 0000000180004640 f i Cooking.obj
 0001:00003640       ??_EPxCooking@physx@@MEAAPEAXI@Z 0000000180004640 f i Cooking.obj
 0001:00003670       ??_GRefCountable@Cm@physx@@UEAAPEAXI@Z 0000000180004670 f i Cooking.obj
 0001:00003670       ??_ERefCountable@Cm@physx@@UEAAPEAXI@Z 0000000180004670 f i Cooking.obj
 0001:000036a0       ?allocate@?$ReflectionAllocator@UPxDebugLine@physx@@@shdfnd@physx@@QEAAPEAX_KPEBDH@Z 00000001800046a0 f i Cooking.obj
 0001:00003740       ?copy@?$Array@UPxDebugLine@physx@@V?$ReflectionAllocator@UPxDebugLine@physx@@@shdfnd@2@@shdfnd@physx@@KAXPEAUPxDebugLine@3@0PEBU43@@Z 0000000180004740 f i Cooking.obj
 0001:000038e0       ?getConcreteTypeName@PxConvexMesh@physx@@UEBAPEBDXZ 00000001800048e0 f i Cooking.obj
 0001:000038f0       ?getConcreteTypeName@PxHeightField@physx@@UEBAPEBDXZ 00000001800048f0 f i Cooking.obj
 0001:00003900       ?getConvexEdgeThreshold@HeightField@Gu@physx@@UEBAMXZ 0000000180004900 f i Cooking.obj
 0001:00003910       ?getFlags@HeightField@Gu@physx@@UEBA?AV?$PxFlags@W4Enum@PxHeightFieldFlag@physx@@G@3@XZ 0000000180004910 f i Cooking.obj
 0001:00003920       ?getFormat@HeightField@Gu@physx@@UEBA?AW4Enum@PxHeightFieldFormat@3@XZ 0000000180004920 f i Cooking.obj
 0001:00003930       ?getHeight@HeightField@Gu@physx@@UEBAMMM@Z 0000000180004930 f i Cooking.obj
 0001:00003970       ?getHeightInternal2@HeightField@Gu@physx@@QEBAMIMM@Z 0000000180004970 f i Cooking.obj
 0001:00003ae0       ?getIndexBuffer@ConvexMesh@Gu@physx@@UEBAPEBEXZ 0000000180004ae0 f i Cooking.obj
 0001:00003b20       ?getNbColumns@HeightField@Gu@physx@@UEBAIXZ 0000000180004b20 f i Cooking.obj
 0001:00003b30       ?getNbPolygons@ConvexMesh@Gu@physx@@UEBAIXZ 0000000180004b30 f i Cooking.obj
 0001:00003b40       ?getNbRows@HeightField@Gu@physx@@UEBAIXZ 0000000180004b40 f i Cooking.obj
 0001:00003b50       ?getNbVertices@ConvexMesh@Gu@physx@@UEBAIXZ 0000000180004b50 f i Cooking.obj
 0001:00003b60       ?getPaddedBounds@HeightFieldData@Gu@physx@@QEBAAEBVCenterExtentsPadded@23@XZ 0000000180004b60 f i Cooking.obj
 0001:00003b70       ?getSample@HeightField@Gu@physx@@UEBAAEBUPxHeightFieldSample@3@II@Z 0000000180004b70 f i Cooking.obj
 0001:00003b80       ?getSampleStride@HeightField@Gu@physx@@UEBAIXZ 0000000180004b80 f i Cooking.obj
 0001:00003b90       ?getTimestamp@HeightField@Gu@physx@@UEBAIXZ 0000000180004b90 f i Cooking.obj
 0001:00003ba0       ?getTriangleMaterialIndex@HeightField@Gu@physx@@UEBAGI@Z 0000000180004ba0 f i Cooking.obj
 0001:00003be0       ?getTriangleNormal@HeightField@Gu@physx@@UEBA?AVPxVec3@3@I@Z 0000000180004be0 f i Cooking.obj
 0001:00003c00       ?getTriangleNormalInternal@HeightField@Gu@physx@@QEBA?AVPxVec3@3@I@Z 0000000180004c00 f i Cooking.obj
 0001:00003d60       ?getVertices@ConvexMesh@Gu@physx@@UEBAPEBVPxVec3@3@XZ 0000000180004d60 f i Cooking.obj
 0001:00003d80       ?isKindOf@PxBase@physx@@MEBA_NPEBD@Z 0000000180004d80 f i Cooking.obj
 0001:00003db0       ?isKindOf@PxConvexMesh@physx@@MEBA_NPEBD@Z 0000000180004db0 f i Cooking.obj
 0001:00003e00       ?isKindOf@PxHeightField@physx@@MEBA_NPEBD@Z 0000000180004e00 f i Cooking.obj
 0001:00003e50       ?isReleasable@PxBase@physx@@UEBA_NXZ 0000000180004e50 f i Cooking.obj
 0001:00003e60       ?isValid@PxConvexMeshDesc@physx@@QEBA_NXZ 0000000180004e60 f i Cooking.obj
 0001:00003ef0       ?isValid@PxTriangleMeshDesc@physx@@QEBA_NXZ 0000000180004ef0 f i Cooking.obj
 0001:00003f70       ?onRefCountZero@RefCountable@Cm@physx@@UEAAXXZ 0000000180004f70 f i Cooking.obj
 0001:00003f90       ?outputSegment@RenderOutput@Cm@physx@@QEAAXAEBVPxVec3@3@0@Z 0000000180004f90 f i Cooking.obj
 0001:00004040       ?preExportDataReset@ConvexMesh@Gu@physx@@QEAAXXZ 0000000180005040 f i Cooking.obj
 0001:00004050       ?preExportDataReset@HeightField@Gu@physx@@QEAAXXZ 0000000180005050 f i Cooking.obj
 0001:00004060       ?recreate@?$Array@UPxDebugLine@physx@@V?$ReflectionAllocator@UPxDebugLine@physx@@@shdfnd@2@@shdfnd@physx@@IEAAXI@Z 0000000180005060 f i Cooking.obj
 0001:000040f0       ?requiresObjects@ConvexMesh@Gu@physx@@UEAAXAEAVPxProcessPxBaseCallback@3@@Z 00000001800050f0 f i Cooking.obj
 0001:00004100       ?reserveSegments@RenderOutput@Cm@physx@@QEAAPEAUPxDebugLine@3@I@Z 0000000180005100 f i Cooking.obj
 0001:00004160       ??0ReducedVertexCloud@physx@@QEAA@PEBVPxVec3@1@I@Z 0000000180005160 f   CookingUtils.obj
 0001:00004180       ??1ReducedVertexCloud@physx@@QEAA@XZ 0000000180005180 f   CookingUtils.obj
 0001:000041f0       ?Clean@ReducedVertexCloud@physx@@QEAAAEAV12@XZ 00000001800051f0 f   CookingUtils.obj
 0001:00004260       ?Reduce@ReducedVertexCloud@physx@@QEAA_NPEAUREDUCEDCLOUD@2@@Z 0000000180005260 f   CookingUtils.obj
 0001:000045b0       ??0EdgeList@Gu@physx@@QEAA@XZ 00000001800055b0 f   EdgeList.obj
 0001:000045d0       ??1EdgeList@Gu@physx@@QEAA@XZ 00000001800055d0 f   EdgeList.obj
 0001:00004680       ?load@EdgeList@Gu@physx@@QEAA_NAEAVPxInputStream@3@@Z 0000000180005680 f   EdgeList.obj
 0001:00004870       ??0EdgeListBuilder@Gu@physx@@QEAA@XZ 0000000180005870 f   EdgeList.obj
 0001:00004890       ??1EdgeListBuilder@Gu@physx@@QEAA@XZ 0000000180005890 f   EdgeList.obj
 0001:000048a0       ?init@EdgeListBuilder@Gu@physx@@QEAA_NAEBUEDGELISTCREATE@23@@Z 00000001800058a0 f   EdgeList.obj
 0001:000049e0       ?createFacesToEdges@EdgeListBuilder@Gu@physx@@AEAA_NIPEBIPEBG@Z 00000001800059e0 f   EdgeList.obj
 0001:00004ed0       ?createEdgesToFaces@EdgeListBuilder@Gu@physx@@AEAA_NIPEBIPEBG@Z 0000000180005ed0 f   EdgeList.obj
 0001:00005120       ?computeActiveEdges@EdgeListBuilder@Gu@physx@@AEAA_NIPEBIPEBGPEBVPxVec3@3@M@Z 0000000180006120 f   EdgeList.obj
 0001:00006680       ??0PxVec3@physx@@QEAA@XZ   0000000180007680 f i EdgeList.obj
 0001:000066e0       ??0MeshCleaner@physx@@QEAA@IPEBVPxVec3@1@IPEBIM@Z 00000001800076e0 f   MeshCleaner.obj
 0001:00007050       ??1MeshCleaner@physx@@QEAA@XZ 0000000180008050 f   MeshCleaner.obj
 0001:000070e0       ?createQuantizer@physx@@YAPEAVQuantizer@1@XZ 00000001800080e0 f   Quantizer.obj
 0001:00007190       ?kmeans_cluster3d@@YAIPEBVPxVec3@physx@@IIPEAV12@PEAIMM@Z 0000000180008190 f   Quantizer.obj
 0001:000071a0       ??$kmeans_cluster@VPxVec3@physx@@M@@YAIPEBVPxVec3@physx@@IIPEAV01@PEAIMM@Z 00000001800081a0 f i Quantizer.obj
 0001:00007a20       ??1Quantizer@physx@@MEAA@XZ 0000000180008a20 f i Quantizer.obj
 0001:00007a30       ??1QuantizerImpl@@EEAA@XZ  0000000180008a30 f i Quantizer.obj
 0001:00007ab0       ??_EQuantizer@physx@@MEAAPEAXI@Z 0000000180008ab0 f i Quantizer.obj
 0001:00007ab0       ??_GQuantizer@physx@@MEAAPEAXI@Z 0000000180008ab0 f i Quantizer.obj
 0001:00007ae0       ??_GQuantizerImpl@@EEAAPEAXI@Z 0000000180008ae0 f i Quantizer.obj
 0001:00007ae0       ??_EQuantizerImpl@@EEAAPEAXI@Z 0000000180008ae0 f i Quantizer.obj
 0001:00007b40       ?allocate@?$ReflectionAllocator@VPxVec3@physx@@@shdfnd@physx@@QEAAPEAX_KPEBDH@Z 0000000180008b40 f i Quantizer.obj
 0001:00007be0       ?copy@?$Array@VPxVec3@physx@@V?$ReflectionAllocator@VPxVec3@physx@@@shdfnd@2@@shdfnd@physx@@KAXPEAVPxVec3@3@0PEBV43@@Z 0000000180008be0 f i Quantizer.obj
 0001:00007cd0       ?getDenormalizeCenter@QuantizerImpl@@UEBAAEBVPxVec3@physx@@XZ 0000000180008cd0 f i Quantizer.obj
 0001:00007ce0       ?getDenormalizeScale@QuantizerImpl@@UEBAAEBVPxVec3@physx@@XZ 0000000180008ce0 f i Quantizer.obj
 0001:00007cf0       ?growAndPushBack@?$Array@VPxVec3@physx@@V?$ReflectionAllocator@VPxVec3@physx@@@shdfnd@2@@shdfnd@physx@@IEAAAEAVPxVec3@3@AEBV43@@Z 0000000180008cf0 f i Quantizer.obj
 0001:00007de0       ?kmeansQuantize3D@QuantizerImpl@@UEAAPEBVPxVec3@physx@@IPEBV23@I_NIAEAI@Z 0000000180008de0 f i Quantizer.obj
 0001:00008050       ?normalizeInput@QuantizerImpl@@AEAAXIPEBVPxVec3@physx@@I@Z 0000000180009050 f i Quantizer.obj
 0001:00008410       ?release@QuantizerImpl@@UEAAXXZ 0000000180009410 f i Quantizer.obj
 0001:00008430       ??0BVHStructureBuilder@physx@@QEAA@XZ 0000000180009430 f   BVHStructureBuilder.obj
 0001:00008450       ??1BVHStructureBuilder@physx@@QEAA@XZ 0000000180009450 f   BVHStructureBuilder.obj
 0001:000084e0       ?loadFromDesc@BVHStructureBuilder@physx@@QEAA_NAEBVPxBVHStructureDesc@2@@Z 00000001800094e0 f   BVHStructureBuilder.obj
 0001:000086b0       ?save@BVHStructureBuilder@physx@@QEBA_NAEAVPxOutputStream@2@_N@Z 00000001800096b0 f   BVHStructureBuilder.obj
 0001:00008840       ?moveData@BVHStructureBuilder@physx@@QEAAXAEAUBVHStructureData@Gu@2@@Z 0000000180009840 f   BVHStructureBuilder.obj
 0001:00008880       ?flatten@@YAXAEBVNodeAllocator@Gu@physx@@PEAUBVHNode@23@@Z 0000000180009880 f   BVHStructureBuilder.obj
 0001:00008a40       ??$?4V?$ReflectionAllocator@USlab@NodeAllocator@Gu@physx@@@shdfnd@physx@@@?$Array@USlab@NodeAllocator@Gu@physx@@V?$ReflectionAllocator@USlab@NodeAllocator@Gu@physx@@@shdfnd@4@@shdfnd@physx@@QEAAAEAV012@AEBV012@@Z 0000000180009a40 f i BVHStructureBuilder.obj
 0001:00008ab0       ??$copy@V?$ReflectionAllocator@USlab@NodeAllocator@Gu@physx@@@shdfnd@physx@@@?$Array@USlab@NodeAllocator@Gu@physx@@V?$ReflectionAllocator@USlab@NodeAllocator@Gu@physx@@@shdfnd@4@@shdfnd@physx@@IEAAXAEBV012@@Z 0000000180009ab0 f i BVHStructureBuilder.obj
 0001:00008b40       ??0AABBTreeBuildNode@Gu@physx@@QEAA@AEBV012@@Z 0000000180009b40 f i BVHStructureBuilder.obj
 0001:00008b80       ??0AABBTreeBuildNode@Gu@physx@@QEAA@XZ 0000000180009b80 f i BVHStructureBuilder.obj
 0001:00008b90       ??0AABBTreeBuildParams@Gu@physx@@QEAA@IIPEBVPxBounds3@2@@Z 0000000180009b90 f i BVHStructureBuilder.obj
 0001:00008bb0       ??0BuildStats@Gu@physx@@QEAA@XZ 0000000180009bb0 f i BVHStructureBuilder.obj
 0001:00008bc0       ??0NodeAllocator@Gu@physx@@QEAA@AEBV012@@Z 0000000180009bc0 f i BVHStructureBuilder.obj
 0001:00008c00       ??1AABBTreeBuildNode@Gu@physx@@QEAA@XZ 0000000180009c00 f i BVHStructureBuilder.obj
 0001:00008c10       ??1AABBTreeBuildParams@Gu@physx@@QEAA@XZ 0000000180009c10 f i BVHStructureBuilder.obj
 0001:00008c70       ??4AABBTreeBuildNode@Gu@physx@@QEAAAEAV012@AEBV012@@Z 0000000180009c70 f i BVHStructureBuilder.obj
 0001:00008cb0       ??4AABBTreeBuildParams@Gu@physx@@QEAAAEAV012@AEBV012@@Z 0000000180009cb0 f i BVHStructureBuilder.obj
 0001:00008cd0       ??4BuildStats@Gu@physx@@QEAAAEAU012@$$QEAU012@@Z 0000000180009cd0 f i BVHStructureBuilder.obj
 0001:00008ce0       ??4BuildStats@Gu@physx@@QEAAAEAU012@AEBU012@@Z 0000000180009ce0 f i BVHStructureBuilder.obj
 0001:00008cf0       ??4NodeAllocator@Gu@physx@@QEAAAEAV012@AEBV012@@Z 0000000180009cf0 f i BVHStructureBuilder.obj
 0001:00008d30       ??_FAABBTreeBuildParams@Gu@physx@@QEAAXXZ 0000000180009d30 f i BVHStructureBuilder.obj
 0001:00008d50       ?__global_array_delete@@YAXPEAX@Z 0000000180009d50 f i BVHStructureBuilder.obj
 0001:00008d60       ?__global_array_delete@@YAXPEAX_K@Z 0000000180009d60 f i BVHStructureBuilder.obj
 0001:00008d70       ?__global_delete@@YAXPEAX@Z 0000000180009d70 f i BVHStructureBuilder.obj
 0001:00008d80       ?__global_delete@@YAXPEAX_K@Z 0000000180009d80 f i BVHStructureBuilder.obj
 0001:00008d90       ?allocate@?$ReflectionAllocator@USlab@NodeAllocator@Gu@physx@@@shdfnd@physx@@QEAAPEAX_KPEBDH@Z 0000000180009d90 f i BVHStructureBuilder.obj
 0001:00008e30       ?getAABB@AABBTreeBuildNode@Gu@physx@@QEBAAEBVPxBounds3@3@XZ 0000000180009e30 f i BVHStructureBuilder.obj
 0001:00008e40       ?getCount@BuildStats@Gu@physx@@QEBAIXZ 0000000180009e40 f i BVHStructureBuilder.obj
 0001:00008e50       ?getNbPrimitives@AABBTreeBuildNode@Gu@physx@@QEBAIXZ 0000000180009e50 f i BVHStructureBuilder.obj
 0001:00008e60       ?getNbRuntimePrimitives@AABBTreeBuildNode@Gu@physx@@QEBAIXZ 0000000180009e60 f i BVHStructureBuilder.obj
 0001:00008e70       ?getNeg@AABBTreeBuildNode@Gu@physx@@QEBAPEBV123@XZ 0000000180009e70 f i BVHStructureBuilder.obj
 0001:00008e90       ?getPos@AABBTreeBuildNode@Gu@physx@@QEBAPEBV123@XZ 0000000180009e90 f i BVHStructureBuilder.obj
 0001:00008ea0       ?getPrimitives@AABBTreeBuildNode@Gu@physx@@QEAAPEAIPEAI@Z 0000000180009ea0 f i BVHStructureBuilder.obj
 0001:00008eb0       ?getPrimitives@AABBTreeBuildNode@Gu@physx@@QEBAPEBIPEBI@Z 0000000180009eb0 f i BVHStructureBuilder.obj
 0001:00008ec0       ?increaseCount@BuildStats@Gu@physx@@QEAAXI@Z 0000000180009ec0 f i BVHStructureBuilder.obj
 0001:00008ed0       ?isLeaf@AABBTreeBuildNode@Gu@physx@@QEBA_NXZ 0000000180009ed0 f i BVHStructureBuilder.obj
 0001:00008ee0       ?recreate@?$Array@USlab@NodeAllocator@Gu@physx@@V?$ReflectionAllocator@USlab@NodeAllocator@Gu@physx@@@shdfnd@4@@shdfnd@physx@@IEAAXI@Z 0000000180009ee0 f i BVHStructureBuilder.obj
 0001:00008f90       ?reset@AABBTreeBuildParams@Gu@physx@@QEAAXXZ 0000000180009f90 f i BVHStructureBuilder.obj
 0001:00008ff0       ?reset@BuildStats@Gu@physx@@QEAAXXZ 0000000180009ff0 f i BVHStructureBuilder.obj
 0001:00009000       ?setCount@BuildStats@Gu@physx@@QEAAXI@Z 000000018000a000 f i BVHStructureBuilder.obj
 0001:00009010       ?setNbRunTimePrimitives@AABBTreeBuildNode@Gu@physx@@QEAAXI@Z 000000018000a010 f i BVHStructureBuilder.obj
 0001:00009020       ?saveHeightField@physx@@YA_NAEBVHeightField@Gu@1@AEAVPxOutputStream@1@_N@Z 000000018000a020 f   HeightFieldCooking.obj
 0001:00009260       ?buildFromTriangles@RTreeCooker@physx@@SAXAEAURTree@Gu@2@PEBVPxVec3@2@IPEBGPEBIIAEAV?$Array@IV?$ReflectionAllocator@I@shdfnd@physx@@@shdfnd@2@PEAURemapCallback@12@MW4Enum@PxMeshCookingHint@2@@Z 000000018000a260 f   RTreeCooking.obj
 0001:00009520       ??$median3@I$$CBUSortBoundsPredicate@physx@@@internal@shdfnd@physx@@YAXPEAIHHAEBUSortBoundsPredicate@2@@Z 000000018000a520 f i RTreeCooking.obj
 0001:00009640       ??$partition@I$$CBU?$Less@I@shdfnd@physx@@@internal@shdfnd@physx@@YAHPEAIHHAEBU?$Less@I@12@@Z 000000018000a640 f i RTreeCooking.obj
 0001:00009710       ??$partition@I$$CBUSortBoundsPredicate@physx@@@internal@shdfnd@physx@@YAHPEAIHHAEBUSortBoundsPredicate@2@@Z 000000018000a710 f i RTreeCooking.obj
 0001:00009800       ??$partition@UBoundsLTE@physx@@@quickSelect@physx@@YAIPEIAIIIIAEBUBoundsLTE@1@@Z 000000018000a800 f i RTreeCooking.obj
 0001:000099a0       ??$quickSelectFirstK@UBoundsLTE@physx@@@quickSelect@physx@@YAXPEIAIIIIAEBUBoundsLTE@1@@Z 000000018000a9a0 f i RTreeCooking.obj
 0001:00009b90       ??$smallSort@I$$CBU?$Less@I@shdfnd@physx@@@internal@shdfnd@physx@@YAXPEAIHHAEBU?$Less@I@12@@Z 000000018000ab90 f i RTreeCooking.obj
 0001:00009c70       ??$smallSort@I$$CBUSortBoundsPredicate@physx@@@internal@shdfnd@physx@@YAXPEAIHHAEBUSortBoundsPredicate@2@@Z 000000018000ac70 f i RTreeCooking.obj
 0001:00009f60       ??$sort@I@shdfnd@physx@@YAXPEAII@Z 000000018000af60 f i RTreeCooking.obj
 0001:00009f80       ??$sort@IU?$Less@I@shdfnd@physx@@V?$ReflectionAllocator@I@23@@shdfnd@physx@@YAXPEAIIAEBU?$Less@I@01@AEBV?$ReflectionAllocator@I@01@I@Z 000000018000af80 f i RTreeCooking.obj
 0001:0000a280       ??$sort@IUSortBoundsPredicate@physx@@@shdfnd@physx@@YAXPEAIIAEBUSortBoundsPredicate@1@@Z 000000018000b280 f i RTreeCooking.obj
 0001:0000a2a0       ??$sort@IUSortBoundsPredicate@physx@@V?$ReflectionAllocator@I@shdfnd@2@@shdfnd@physx@@YAXPEAIIAEBUSortBoundsPredicate@1@AEBV?$ReflectionAllocator@I@01@I@Z 000000018000b2a0 f i RTreeCooking.obj
 0001:0000a5a0       ??0SubSortQuick@physx@@QEAA@PEAIPEBUPxBounds3V@1@IM@Z 000000018000b5a0 f i RTreeCooking.obj
 0001:0000a6f0       ??0SubSortSAH@physx@@QEAA@PEAIPEBUPxBounds3V@1@IPEBI22222M@Z 000000018000b6f0 f i RTreeCooking.obj
 0001:0000a880       ?allocate@?$Array@UInterval@physx@@V?$InlineAllocator@$0CAAA@V?$ReflectionAllocator@UInterval@physx@@@shdfnd@physx@@@shdfnd@2@@shdfnd@physx@@IEAAPEAUInterval@3@I@Z 000000018000b880 f i RTreeCooking.obj
 0001:0000a940       ?allocate@?$ReflectionAllocator@I@shdfnd@physx@@QEAAPEAX_KPEBDH@Z 000000018000b940 f i RTreeCooking.obj
 0001:0000a9e0       ?allocate@?$ReflectionAllocator@UPxBounds3V@physx@@@shdfnd@physx@@QEAAPEAX_KPEBDH@Z 000000018000b9e0 f i RTreeCooking.obj
 0001:0000aa80       ?allocate@?$ReflectionAllocator@URTreeNodeNQ@physx@@@shdfnd@physx@@QEAAPEAX_KPEBDH@Z 000000018000ba80 f i RTreeCooking.obj
 0001:0000ab20       ?allocate@?$ReflectionAllocator@URTreeNodeQ@Gu@physx@@@shdfnd@physx@@QEAAPEAX_KPEBDH@Z 000000018000bb20 f i RTreeCooking.obj
 0001:0000b610       ?copy@?$Array@URTreeNodeNQ@physx@@V?$ReflectionAllocator@URTreeNodeNQ@physx@@@shdfnd@2@@shdfnd@physx@@KAXPEAURTreeNodeNQ@3@0PEBU43@@Z 000000018000c610 f i RTreeCooking.obj
 0001:0000b7b0       ?growAndPushBack@?$Array@IV?$ReflectionAllocator@I@shdfnd@physx@@@shdfnd@physx@@IEAAAEAIAEBI@Z 000000018000c7b0 f i RTreeCooking.obj
 0001:0000b880       ?growAndPushBack@?$Array@UInterval@physx@@V?$InlineAllocator@$0CAAA@V?$ReflectionAllocator@UInterval@physx@@@shdfnd@physx@@@shdfnd@2@@shdfnd@physx@@IEAAAEAUInterval@3@AEBU43@@Z 000000018000c880 f i RTreeCooking.obj
 0001:0000b970       ?growAndPushBack@?$Array@UPxBounds3V@physx@@V?$ReflectionAllocator@UPxBounds3V@physx@@@shdfnd@2@@shdfnd@physx@@IEAAAEAUPxBounds3V@3@AEBU43@@Z 000000018000c970 f i RTreeCooking.obj
 0001:0000ba60       ?growAndPushBack@?$Array@URTreeNodeNQ@physx@@V?$ReflectionAllocator@URTreeNodeNQ@physx@@@shdfnd@2@@shdfnd@physx@@IEAAAEAURTreeNodeNQ@3@AEBU43@@Z 000000018000ca60 f i RTreeCooking.obj
 0001:0000bb60       ?growAndPushBack@?$Array@URTreeNodeQ@Gu@physx@@V?$ReflectionAllocator@URTreeNodeQ@Gu@physx@@@shdfnd@3@@shdfnd@physx@@IEAAAEAURTreeNodeQ@Gu@3@AEBU453@@Z 000000018000cb60 f i RTreeCooking.obj
 0001:0000bc60       ?recreate@?$Array@IV?$ReflectionAllocator@I@shdfnd@physx@@@shdfnd@physx@@IEAAXI@Z 000000018000cc60 f i RTreeCooking.obj
 0001:0000bd10       ?recreate@?$Array@UPxBounds3V@physx@@V?$ReflectionAllocator@UPxBounds3V@physx@@@shdfnd@2@@shdfnd@physx@@IEAAXI@Z 000000018000cd10 f i RTreeCooking.obj
 0001:0000bdc0       ?recreate@?$Array@URTreeNodeNQ@physx@@V?$ReflectionAllocator@URTreeNodeNQ@physx@@@shdfnd@2@@shdfnd@physx@@IEAAXI@Z 000000018000cdc0 f i RTreeCooking.obj
 0001:0000be50       ?recreate@?$Array@URTreeNodeQ@Gu@physx@@V?$ReflectionAllocator@URTreeNodeQ@Gu@physx@@@shdfnd@3@@shdfnd@physx@@IEAAXI@Z 000000018000ce50 f i RTreeCooking.obj
 0001:0000bf10       ?recreate@?$Array@VPxVec3@physx@@V?$ReflectionAllocator@VPxVec3@physx@@@shdfnd@2@@shdfnd@physx@@IEAAXI@Z 000000018000cf10 f i RTreeCooking.obj
 0001:0000bfa0       ?resize@?$Array@IV?$ReflectionAllocator@I@shdfnd@physx@@@shdfnd@physx@@QEAAXIAEBI@Z 000000018000cfa0 f i RTreeCooking.obj
 0001:0000c010       ?resizeUninitialized@?$Array@URTreeNodeNQ@physx@@V?$ReflectionAllocator@URTreeNodeNQ@physx@@@shdfnd@2@@shdfnd@physx@@QEAAXI@Z 000000018000d010 f i RTreeCooking.obj
 0001:0000c050       ?sort4@SubSortQuick@physx@@QEAAXPEIAIIAEAV?$Array@URTreeNodeNQ@physx@@V?$ReflectionAllocator@URTreeNodeNQ@physx@@@shdfnd@2@@shdfnd@2@AEAIAEAUPxBounds3V@2@I@Z 000000018000d050 f i RTreeCooking.obj
 0001:0000c3e0       ?sort4@SubSortSAH@physx@@QEAAXPEAIIAEAV?$Array@URTreeNodeNQ@physx@@V?$ReflectionAllocator@URTreeNodeNQ@physx@@@shdfnd@2@@shdfnd@2@AEAIIPEAURTreeNodeNQ@2@@Z 000000018000d3e0 f i RTreeCooking.obj
 0001:0000cb50       ?split@SubSortSAH@physx@@QEAAIPEAII@Z 000000018000db50 f i RTreeCooking.obj
 0001:0000d300       ?computeLocalBounds@MeshBulider@physx@@IEAAXAEAVMeshDataBase@Gu@2@@Z 000000018000e300 f   MeshBuilder.obj
 0001:0000d3b0       ??0TriangleMeshBuilder@physx@@QEAA@AEAVTriangleMeshData@Gu@1@AEBUPxCookingParams@1@@Z 000000018000e3b0 f   TriangleMeshBuilder.obj
 0001:0000d3e0       ??1TriangleMeshBuilder@physx@@UEAA@XZ 000000018000e3e0 f   TriangleMeshBuilder.obj
 0001:0000d450       ?cleanMesh@TriangleMeshBuilder@physx@@QEAA_N_NPEAW4Enum@PxTriangleMeshCookingResult@2@@Z 000000018000e450 f   TriangleMeshBuilder.obj
 0001:0000d990       ?remapTopology@TriangleMeshBuilder@physx@@QEAAXPEBI@Z 000000018000e990 f   TriangleMeshBuilder.obj
 0001:0000dc90       ?createSharedEdgeData@TriangleMeshBuilder@physx@@QEAAX_N0@Z 000000018000ec90 f   TriangleMeshBuilder.obj
 0001:0000e050       ?recordTriangleIndices@TriangleMeshBuilder@physx@@QEAAXXZ 000000018000f050 f   TriangleMeshBuilder.obj
 0001:0000e150       ?createGRBMidPhaseAndData@TriangleMeshBuilder@physx@@QEAAXI@Z 000000018000f150 f   TriangleMeshBuilder.obj
 0001:0000e320       ?createGRBData@TriangleMeshBuilder@physx@@QEAAXXZ 000000018000f320 f   TriangleMeshBuilder.obj
 0001:0000e420       ?loadFromDesc@TriangleMeshBuilder@physx@@QEAA_NAEBVPxTriangleMeshDesc@2@PEAW4Enum@PxTriangleMeshCookingResult@2@_N@Z 000000018000f420 f   TriangleMeshBuilder.obj
 0001:0000e710       ?save@TriangleMeshBuilder@physx@@QEBA_NAEAVPxOutputStream@2@_NAEBUPxCookingParams@2@@Z 000000018000f710 f   TriangleMeshBuilder.obj
 0001:0000eb90       ?checkMeshIndicesSize@TriangleMeshBuilder@physx@@QEAAXXZ 000000018000fb90 f   TriangleMeshBuilder.obj
 0001:0000eca0       ?importMesh@TriangleMeshBuilder@physx@@IEAA_NAEBVPxTriangleMeshDesc@2@AEBUPxCookingParams@2@PEAW4Enum@PxTriangleMeshCookingResult@2@_N@Z 000000018000fca0 f   TriangleMeshBuilder.obj
 0001:0000efa0       ?releaseEdgeList@TriangleMeshBuilder@physx@@IEAAXXZ 000000018000ffa0 f   TriangleMeshBuilder.obj
 0001:0000f000       ?createEdgeList@TriangleMeshBuilder@physx@@IEAAXXZ 0000000180010000 f   TriangleMeshBuilder.obj
 0001:0000f130       ??0RTreeTriangleMeshBuilder@physx@@QEAA@AEBUPxCookingParams@1@@Z 0000000180010130 f   TriangleMeshBuilder.obj
 0001:0000f1f0       ??1RTreeTriangleMeshBuilder@physx@@UEAA@XZ 00000001800101f0 f   TriangleMeshBuilder.obj
 0001:0000f2b0       ?createMidPhaseStructure@RTreeTriangleMeshBuilder@physx@@UEAAXXZ 00000001800102b0 f   TriangleMeshBuilder.obj
 0001:0000f3a0       ?saveMidPhaseStructure@RTreeTriangleMeshBuilder@physx@@UEBAXAEAVPxOutputStream@2@_N@Z 00000001800103a0 f   TriangleMeshBuilder.obj
 0001:0000f5e0       ??0BV4TriangleMeshBuilder@physx@@QEAA@AEBUPxCookingParams@1@@Z 00000001800105e0 f   TriangleMeshBuilder.obj
 0001:0000f620       ??1BV4TriangleMeshBuilder@physx@@UEAA@XZ 0000000180010620 f   TriangleMeshBuilder.obj
 0001:0000f6b0       ?createMidPhaseStructure@BV4TriangleMeshBuilder@physx@@UEAAXXZ 00000001800106b0 f   TriangleMeshBuilder.obj
 0001:0000f9e0       ?saveMidPhaseStructure@BV4TriangleMeshBuilder@physx@@UEBAXAEAVPxOutputStream@2@_N@Z 00000001800109e0 f   TriangleMeshBuilder.obj
 0001:0000fb80       ?onMeshIndexFormatChange@BV4TriangleMeshBuilder@physx@@UEAAXXZ 0000000180010b80 f   TriangleMeshBuilder.obj
 0001:0000fbc0       ?createMidPhaseStructure@BV32TriangleMeshBuilder@physx@@SAXAEBUPxCookingParams@2@AEAVTriangleMeshData@Gu@2@AEAVBV32Tree@52@@Z 0000000180010bc0 f   TriangleMeshBuilder.obj
 0001:0000fd90       ?saveMidPhaseStructure@BV32TriangleMeshBuilder@physx@@SAXPEAVBV32Tree@Gu@2@AEAVPxOutputStream@2@_N@Z 0000000180010d90 f   TriangleMeshBuilder.obj
 0001:0000ff30       ?findSharpVertices@GrbTrimeshCookerHelper@physx@@YAXAEAV?$Array@USortedNeighbor@GrbTrimeshCookerHelper@physx@@V?$ReflectionAllocator@USortedNeighbor@GrbTrimeshCookerHelper@physx@@@shdfnd@3@@shdfnd@2@AEAV?$Array@USharpEdgeRange@GrbTrimeshCookerHelper@physx@@V?$ReflectionAllocator@USharpEdgeRange@GrbTrimeshCookerHelper@physx@@@shdfnd@3@@42@PEBUuint3@2@PEBUuint4@2@II@Z 0000000180010f30 f   TriangleMeshBuilder.obj
 0001:000102e0       ?buildVertexConnectionNew_p1@GrbTrimeshCookerHelper@physx@@YAIAEAV?$Array@USortedNeighbor@GrbTrimeshCookerHelper@physx@@V?$ReflectionAllocator@USortedNeighbor@GrbTrimeshCookerHelper@physx@@@shdfnd@3@@shdfnd@2@AEAV?$Array@USharpEdgeRange@GrbTrimeshCookerHelper@physx@@V?$ReflectionAllocator@USharpEdgeRange@GrbTrimeshCookerHelper@physx@@@shdfnd@3@@42@PEBUuint3@2@PEBUuint4@2@II@Z 00000001800112e0 f   TriangleMeshBuilder.obj
 0001:00010490       ?buildVertexConnectionNew_p2@GrbTrimeshCookerHelper@physx@@YAXPEAI00AEAV?$Array@USortedNeighbor@GrbTrimeshCookerHelper@physx@@V?$ReflectionAllocator@USortedNeighbor@GrbTrimeshCookerHelper@physx@@@shdfnd@3@@shdfnd@2@AEAV?$Array@USharpEdgeRange@GrbTrimeshCookerHelper@physx@@V?$ReflectionAllocator@USharpEdgeRange@GrbTrimeshCookerHelper@physx@@@shdfnd@3@@42@I@Z 0000000180011490 f   TriangleMeshBuilder.obj
 0001:00010540       ??$median3@UEdgeTriLookup@physx@@$$CBU?$Less@UEdgeTriLookup@physx@@@shdfnd@2@@internal@shdfnd@physx@@YAXPEAUEdgeTriLookup@2@HHAEBU?$Less@UEdgeTriLookup@physx@@@12@@Z 0000000180011540 f i TriangleMeshBuilder.obj
 0001:00010650       ??$median3@USortedNeighbor@GrbTrimeshCookerHelper@physx@@$$CBU?$Less@USortedNeighbor@GrbTrimeshCookerHelper@physx@@@shdfnd@3@@internal@shdfnd@physx@@YAXPEAUSortedNeighbor@GrbTrimeshCookerHelper@2@HHAEBU?$Less@USortedNeighbor@GrbTrimeshCookerHelper@physx@@@12@@Z 0000000180011650 f i TriangleMeshBuilder.obj
 0001:000107b0       ??$partition@UEdgeTriLookup@physx@@$$CBU?$Less@UEdgeTriLookup@physx@@@shdfnd@2@@internal@shdfnd@physx@@YAHPEAUEdgeTriLookup@2@HHAEBU?$Less@UEdgeTriLookup@physx@@@12@@Z 00000001800117b0 f i TriangleMeshBuilder.obj
 0001:000108d0       ??$partition@USortedNeighbor@GrbTrimeshCookerHelper@physx@@$$CBU?$Less@USortedNeighbor@GrbTrimeshCookerHelper@physx@@@shdfnd@3@@internal@shdfnd@physx@@YAHPEAUSortedNeighbor@GrbTrimeshCookerHelper@2@HHAEBU?$Less@USortedNeighbor@GrbTrimeshCookerHelper@physx@@@12@@Z 00000001800118d0 f i TriangleMeshBuilder.obj
 0001:00010a20       ??$smallSort@UEdgeTriLookup@physx@@$$CBU?$Less@UEdgeTriLookup@physx@@@shdfnd@2@@internal@shdfnd@physx@@YAXPEAUEdgeTriLookup@2@HHAEBU?$Less@UEdgeTriLookup@physx@@@12@@Z 0000000180011a20 f i TriangleMeshBuilder.obj
 0001:00010b30       ??$smallSort@USortedNeighbor@GrbTrimeshCookerHelper@physx@@$$CBU?$Less@USortedNeighbor@GrbTrimeshCookerHelper@physx@@@shdfnd@3@@internal@shdfnd@physx@@YAXPEAUSortedNeighbor@GrbTrimeshCookerHelper@2@HHAEBU?$Less@USortedNeighbor@GrbTrimeshCookerHelper@physx@@@12@@Z 0000000180011b30 f i TriangleMeshBuilder.obj
 0001:00010c80       ??$sort@UEdgeTriLookup@physx@@@shdfnd@physx@@YAXPEAUEdgeTriLookup@1@I@Z 0000000180011c80 f i TriangleMeshBuilder.obj
 0001:00010ca0       ??$sort@UEdgeTriLookup@physx@@U?$Less@UEdgeTriLookup@physx@@@shdfnd@2@V?$ReflectionAllocator@UEdgeTriLookup@physx@@@42@@shdfnd@physx@@YAXPEAUEdgeTriLookup@1@IAEBU?$Less@UEdgeTriLookup@physx@@@01@AEBV?$ReflectionAllocator@UEdgeTriLookup@physx@@@01@I@Z 0000000180011ca0 f i TriangleMeshBuilder.obj
 0001:00010fa0       ??$sort@USortedNeighbor@GrbTrimeshCookerHelper@physx@@@shdfnd@physx@@YAXPEAUSortedNeighbor@GrbTrimeshCookerHelper@1@I@Z 0000000180011fa0 f i TriangleMeshBuilder.obj
 0001:00010fc0       ??$sort@USortedNeighbor@GrbTrimeshCookerHelper@physx@@U?$Less@USortedNeighbor@GrbTrimeshCookerHelper@physx@@@shdfnd@3@V?$ReflectionAllocator@USortedNeighbor@GrbTrimeshCookerHelper@physx@@@53@@shdfnd@physx@@YAXPEAUSortedNeighbor@GrbTrimeshCookerHelper@1@IAEBU?$Less@USortedNeighbor@GrbTrimeshCookerHelper@physx@@@01@AEBV?$ReflectionAllocator@USortedNeighbor@GrbTrimeshCookerHelper@physx@@@01@I@Z 0000000180011fc0 f i TriangleMeshBuilder.obj
 0001:000112c0       ??0BV4TriangleData@Gu@physx@@QEAA@XZ 00000001800122c0 f i TriangleMeshBuilder.obj
 0001:00011370       ??0PxVec4@physx@@QEAA@XZ   0000000180012370 f i TriangleMeshBuilder.obj
 0001:00011380       ??1BV4TriangleData@Gu@physx@@UEAA@XZ 0000000180012380 f i TriangleMeshBuilder.obj
 0001:000113c0       ??1MeshDataBase@Gu@physx@@UEAA@XZ 00000001800123c0 f i TriangleMeshBuilder.obj
 0001:000114a0       ??1RTreeTriangleData@Gu@physx@@UEAA@XZ 00000001800124a0 f i TriangleMeshBuilder.obj
 0001:00011510       ??1RemapCallback@RTreeCooker@physx@@UEAA@XZ 0000000180012510 f i TriangleMeshBuilder.obj
 0001:00011520       ??1TriangleMeshData@Gu@physx@@UEAA@XZ 0000000180012520 f i TriangleMeshBuilder.obj
 0001:000115f0       ??_GBV4TriangleData@Gu@physx@@UEAAPEAXI@Z 00000001800125f0 f i TriangleMeshBuilder.obj
 0001:000115f0       ??_EBV4TriangleData@Gu@physx@@UEAAPEAXI@Z 00000001800125f0 f i TriangleMeshBuilder.obj
 0001:00011670       ??_GBV4TriangleMeshBuilder@physx@@UEAAPEAXI@Z 0000000180012670 f i TriangleMeshBuilder.obj
 0001:00011670       ??_EBV4TriangleMeshBuilder@physx@@UEAAPEAXI@Z 0000000180012670 f i TriangleMeshBuilder.obj
 0001:000116b0       ??_EMeshDataBase@Gu@physx@@UEAAPEAXI@Z 00000001800126b0 f i TriangleMeshBuilder.obj
 0001:000116b0       ??_GMeshDataBase@Gu@physx@@UEAAPEAXI@Z 00000001800126b0 f i TriangleMeshBuilder.obj
 0001:00011710       ??_GRTreeCookerRemap@physx@@UEAAPEAXI@Z 0000000180012710 f i TriangleMeshBuilder.obj
 0001:00011710       ??_ERTreeCookerRemap@physx@@UEAAPEAXI@Z 0000000180012710 f i TriangleMeshBuilder.obj
 0001:00011740       ??_ERTreeTriangleData@Gu@physx@@UEAAPEAXI@Z 0000000180012740 f i TriangleMeshBuilder.obj
 0001:00011740       ??_GRTreeTriangleData@Gu@physx@@UEAAPEAXI@Z 0000000180012740 f i TriangleMeshBuilder.obj
 0001:000117f0       ??_ERTreeTriangleMeshBuilder@physx@@UEAAPEAXI@Z 00000001800127f0 f i TriangleMeshBuilder.obj
 0001:000117f0       ??_GRTreeTriangleMeshBuilder@physx@@UEAAPEAXI@Z 00000001800127f0 f i TriangleMeshBuilder.obj
 0001:00011830       ??_GRemapCallback@RTreeCooker@physx@@UEAAPEAXI@Z 0000000180012830 f i TriangleMeshBuilder.obj
 0001:00011830       ??_ERemapCallback@RTreeCooker@physx@@UEAAPEAXI@Z 0000000180012830 f i TriangleMeshBuilder.obj
 0001:00011860       ??_ETriangleMeshBuilder@physx@@UEAAPEAXI@Z 0000000180012860 f i TriangleMeshBuilder.obj
 0001:00011860       ??_GTriangleMeshBuilder@physx@@UEAAPEAXI@Z 0000000180012860 f i TriangleMeshBuilder.obj
 0001:000118d0       ??_GTriangleMeshData@Gu@physx@@UEAAPEAXI@Z 00000001800128d0 f i TriangleMeshBuilder.obj
 0001:000118d0       ??_ETriangleMeshData@Gu@physx@@UEAAPEAXI@Z 00000001800128d0 f i TriangleMeshBuilder.obj
 0001:00011930       ?allocate@?$ReflectionAllocator@USharpEdgeRange@GrbTrimeshCookerHelper@physx@@@shdfnd@physx@@QEAAPEAX_KPEBDH@Z 0000000180012930 f i TriangleMeshBuilder.obj
 0001:000119d0       ?allocate@?$ReflectionAllocator@USortedNeighbor@GrbTrimeshCookerHelper@physx@@@shdfnd@physx@@QEAAPEAX_KPEBDH@Z 00000001800129d0 f i TriangleMeshBuilder.obj
 0001:00011a70       ?allocateMaterials@TriangleMeshData@Gu@physx@@QEAAPEAGXZ 0000000180012a70 f i TriangleMeshBuilder.obj
 0001:00011b30       ?allocateTriangles@TriangleMeshData@Gu@physx@@QEAAPEAXI_NI@Z 0000000180012b30 f i TriangleMeshBuilder.obj
 0001:00011c20       ?allocateVertices@MeshDataBase@Gu@physx@@QEAAPEAVPxVec3@3@I@Z 0000000180012c20 f i TriangleMeshBuilder.obj
 0001:00012300       ?getMidphaseID@BV4TriangleMeshBuilder@physx@@UEBA?AW4Enum@PxMeshMidPhase@2@XZ 0000000180013300 f i TriangleMeshBuilder.obj
 0001:00012310       ?getMidphaseID@RTreeTriangleMeshBuilder@physx@@UEBA?AW4Enum@PxMeshMidPhase@2@XZ 0000000180013310 f i TriangleMeshBuilder.obj
 0001:00012320       ?growAndPushBack@?$Array@USortedNeighbor@GrbTrimeshCookerHelper@physx@@V?$ReflectionAllocator@USortedNeighbor@GrbTrimeshCookerHelper@physx@@@shdfnd@3@@shdfnd@physx@@IEAAAEAUSortedNeighbor@GrbTrimeshCookerHelper@3@AEBU453@@Z 0000000180013320 f i TriangleMeshBuilder.obj
 0001:00012420       ?onMeshIndexFormatChange@TriangleMeshBuilder@physx@@UEAAXXZ 0000000180013420 f i TriangleMeshBuilder.obj
 0001:00012430       ?recreate@?$Array@USharpEdgeRange@GrbTrimeshCookerHelper@physx@@V?$ReflectionAllocator@USharpEdgeRange@GrbTrimeshCookerHelper@physx@@@shdfnd@3@@shdfnd@physx@@IEAAXI@Z 0000000180013430 f i TriangleMeshBuilder.obj
 0001:000124e0       ?recreate@?$Array@USortedNeighbor@GrbTrimeshCookerHelper@physx@@V?$ReflectionAllocator@USortedNeighbor@GrbTrimeshCookerHelper@physx@@@shdfnd@3@@shdfnd@physx@@IEAAXI@Z 00000001800134e0 f i TriangleMeshBuilder.obj
 0001:00012590       ?remap@RTreeCookerRemap@physx@@UEAAXPEAIII@Z 0000000180013590 f i TriangleMeshBuilder.obj
 0001:000125b0       ?resize@?$Array@USharpEdgeRange@GrbTrimeshCookerHelper@physx@@V?$ReflectionAllocator@USharpEdgeRange@GrbTrimeshCookerHelper@physx@@@shdfnd@3@@shdfnd@physx@@QEAAXIAEBUSharpEdgeRange@GrbTrimeshCookerHelper@3@@Z 00000001800135b0 f i TriangleMeshBuilder.obj
 0001:00012620       ?resizeUninitialized@?$Array@USortedNeighbor@GrbTrimeshCookerHelper@physx@@V?$ReflectionAllocator@USortedNeighbor@GrbTrimeshCookerHelper@physx@@@shdfnd@3@@shdfnd@physx@@QEAAXI@Z 0000000180013620 f i TriangleMeshBuilder.obj
 0001:00012660       ??0BigConvexDataBuilder@physx@@QEAA@PEBUConvexHullData@Gu@1@PEAVBigConvexData@1@PEBVPxVec3@1@@Z 0000000180013660 f   BigConvexDataBuilder.obj
 0001:00012680       ??1BigConvexDataBuilder@physx@@QEAA@XZ 0000000180013680 f   BigConvexDataBuilder.obj
 0001:00012690       ?precompute@BigConvexDataBuilder@physx@@QEAA_NI@Z 0000000180013690 f   BigConvexDataBuilder.obj
 0001:00013050       ?initialize@BigConvexDataBuilder@physx@@QEAA_NXZ 0000000180014050 f   BigConvexDataBuilder.obj
 0001:000130f0       ?save@BigConvexDataBuilder@physx@@QEBA_NAEAVPxOutputStream@2@_N@Z 00000001800140f0 f   BigConvexDataBuilder.obj
 0001:000131d0       ?computeValencies@BigConvexDataBuilder@physx@@QEAA_NAEBVConvexHullBuilder@2@@Z 00000001800141d0 f   BigConvexDataBuilder.obj
 0001:000135c0       ?saveValencies@BigConvexDataBuilder@physx@@QEBA_NAEAVPxOutputStream@2@_N@Z 00000001800145c0 f   BigConvexDataBuilder.obj
 0001:00013770       ??0BigConvexData@physx@@QEAA@W4PxEMPTY@1@@Z 0000000180014770 f i BigConvexDataBuilder.obj
 0001:00013780       ??4BigConvexData@physx@@QEAAAEAV01@AEBV01@@Z 0000000180014780 f i BigConvexDataBuilder.obj
 0001:000137a0       ?GetAdjacentVerts@BigConvexData@physx@@QEBAPEBEXZ 00000001800147a0 f i BigConvexDataBuilder.obj
 0001:000137b0       ?GetNbNeighbors@BigConvexData@physx@@QEBAGI@Z 00000001800147b0 f i BigConvexDataBuilder.obj
 0001:000137c0       ?GetNbSamples@BigConvexData@physx@@QEBAIXZ 00000001800147c0 f i BigConvexDataBuilder.obj
 0001:000137d0       ?GetNbVerts@BigConvexData@physx@@QEBAIXZ 00000001800147d0 f i BigConvexDataBuilder.obj
 0001:000137e0       ?GetNeighbors@BigConvexData@physx@@QEBAPEBEI@Z 00000001800147e0 f i BigConvexDataBuilder.obj
 0001:000137f0       ?GetOffset@BigConvexData@physx@@QEBAGI@Z 00000001800147f0 f i BigConvexDataBuilder.obj
 0001:00013800       ?GetSubdiv@BigConvexData@physx@@QEBAIXZ 0000000180014800 f i BigConvexDataBuilder.obj
 0001:00013810       ?GetValencies@BigConvexData@physx@@QEBAPEBUValency@Gu@2@XZ 0000000180014810 f i BigConvexDataBuilder.obj
 0001:00013820       ?GetValency@BigConvexData@physx@@QEBAGI@Z 0000000180014820 f i BigConvexDataBuilder.obj
 0001:00013830       ??0ConvexHullBuilder@physx@@QEAA@PEAUConvexHullData@Gu@1@_N@Z 0000000180014830 f   ConvexHullBuilder.obj
 0001:00013860       ??1ConvexHullBuilder@physx@@QEAA@XZ 0000000180014860 f   ConvexHullBuilder.obj
 0001:00013970       ?init@ConvexHullBuilder@physx@@QEAA_NIPEBVPxVec3@2@PEBIIIPEBUPxHullPolygon@2@_NPEAVConvexHullLib@2@@Z 0000000180014970 f   ConvexHullBuilder.obj
 0001:00013d70       ?save@ConvexHullBuilder@physx@@QEBA_NAEAVPxOutputStream@2@_N@Z 0000000180014d70 f   ConvexHullBuilder.obj
 0001:00014080       ?copy@ConvexHullBuilder@physx@@QEAA_NAEAUConvexHullData@Gu@2@AEAI@Z 0000000180015080 f   ConvexHullBuilder.obj
 0001:000142e0       ?createEdgeList@ConvexHullBuilder@physx@@QEAA_N_NI@Z 00000001800152e0 f   ConvexHullBuilder.obj
 0001:00014bb0       ?checkHullPolygons@ConvexHullBuilder@physx@@QEBA_NXZ 0000000180015bb0 f   ConvexHullBuilder.obj
 0001:00014fe0       ?calculateVertexMapTable@ConvexHullBuilder@physx@@QEAA_NI_N@Z 0000000180015fe0 f   ConvexHullBuilder.obj
 0001:00015210       ?computeGeomCenter@ConvexHullBuilder@physx@@IEBA_NAEAVPxVec3@2@IPEAUHullTriangleData@2@@Z 0000000180016210 f   ConvexHullBuilder.obj
 0001:00015440       ??1ConvexHullLib@physx@@UEAA@XZ 0000000180016440 f   ConvexHullLib.obj
 0001:000154a0       ?cleanupVertices@ConvexHullLib@physx@@IEAA_NIPEBVPxVec3@2@IAEAIPEAV32@AEAV32@3@Z 00000001800164a0 f   ConvexHullLib.obj
 0001:00015900       ?shiftAndcleanupVertices@ConvexHullLib@physx@@IEAA_NIPEBVPxVec3@2@IAEAIPEAV32@AEAV32@3@Z 0000000180016900 f   ConvexHullLib.obj
 0001:00015d40       ?swapLargestFace@ConvexHullLib@physx@@IEAAXAEAVPxConvexMeshDesc@2@@Z 0000000180016d40 f   ConvexHullLib.obj
 0001:00015f30       ?shiftConvexMeshDesc@ConvexHullLib@physx@@IEAAXAEAVPxConvexMeshDesc@2@@Z 0000000180016f30 f   ConvexHullLib.obj
 0001:00015ff0       ??_EConvexHullLib@physx@@UEAAPEAXI@Z 0000000180016ff0 f i ConvexHullLib.obj
 0001:00015ff0       ??_GConvexHullLib@physx@@UEAAPEAXI@Z 0000000180016ff0 f i ConvexHullLib.obj
 0001:000164d0       ??0ConvexHull@physx@@QEAA@AEBVPxVec3@1@0AEBV?$Array@VPxPlane@physx@@V?$ReflectionAllocator@VPxPlane@physx@@@shdfnd@2@@shdfnd@1@@Z 00000001800174d0 f   ConvexHullUtils.obj
 0001:00016f80       ??0ConvexHull@physx@@QEAA@AEBVPxVec3@1@AEBVPxTransform@1@AEBV?$Array@VPxPlane@physx@@V?$ReflectionAllocator@VPxPlane@physx@@@shdfnd@2@@shdfnd@1@@Z 0000000180017f80 f   ConvexHullUtils.obj
 0001:00018360       ?findCandidatePlane@ConvexHull@physx@@QEBAHMM@Z 0000000180019360 f   ConvexHullUtils.obj
 0001:00018870       ?assertIntact@ConvexHull@physx@@QEBA_NM@Z 0000000180019870 f   ConvexHullUtils.obj
 0001:00018b90       ?maxNumVertsPerFace@ConvexHull@physx@@QEBAIXZ 0000000180019b90 f   ConvexHullUtils.obj
 0001:00018c00       ?convexHullCrop@physx@@YAPEAVConvexHull@1@AEBV21@AEBVPxPlane@1@M@Z 0000000180019c00 f   ConvexHullUtils.obj
 0001:00019a40       ?computeOBBFromConvex@physx@@YA_NAEBVPxConvexMeshDesc@1@AEAVPxVec3@1@AEAVPxTransform@1@@Z 000000018001aa40 f   ConvexHullUtils.obj
 0001:0001a190       ?computeOBBSIMD@local@@YAXIPEBT__m128@@AEAT2@AEBT2@1@Z 000000018001b190 f   ConvexHullUtils.obj
 0001:0001a3f0       ??0Box@Gu@physx@@QEAA@AEBV012@@Z 000000018001b3f0 f i ConvexHullUtils.obj
 0001:0001a450       ??0Box@Gu@physx@@QEAA@AEBVPxVec3@2@0AEBVPxMat33@2@@Z 000000018001b450 f i ConvexHullUtils.obj
 0001:0001a4c0       ??0Box@Gu@physx@@QEAA@XZ   000000018001b4c0 f i ConvexHullUtils.obj
 0001:0001a4d0       ??0HalfEdge@ConvexHull@physx@@QEAA@XZ 000000018001b4d0 f i ConvexHullUtils.obj
 0001:0001a4e0       ??0PxPlane@physx@@QEAA@XZ  000000018001b4e0 f i ConvexHullUtils.obj
 0001:0001a4f0       ??0PxQuat@physx@@QEAA@AEBVPxMat33@1@@Z 000000018001b4f0 f i ConvexHullUtils.obj
 0001:0001a6f0       ??1Box@Gu@physx@@QEAA@XZ   000000018001b6f0 f i ConvexHullUtils.obj
 0001:0001a700       ??4Box@Gu@physx@@QEAAAEBV012@AEBV012@@Z 000000018001b700 f i ConvexHullUtils.obj
 0001:0001a760       ?allocate@?$ReflectionAllocator@VHalfEdge@ConvexHull@physx@@@shdfnd@physx@@QEAAPEAX_KPEBDH@Z 000000018001b760 f i ConvexHullUtils.obj
 0001:0001a800       ?allocate@?$ReflectionAllocator@VPxPlane@physx@@@shdfnd@physx@@QEAAPEAX_KPEBDH@Z 000000018001b800 f i ConvexHullUtils.obj
 0001:0001a8a0       ?computeAABBExtent@Box@Gu@physx@@QEBA?AVPxVec3@3@XZ 000000018001b8a0 f i ConvexHullUtils.obj
 0001:0001a960       ?computeBoxPoints@Box@Gu@physx@@QEBAXPEIAVPxVec3@3@@Z 000000018001b960 f i ConvexHullUtils.obj
 0001:0001a9a0       ?copy@?$Array@VPxPlane@physx@@V?$ReflectionAllocator@VPxPlane@physx@@@shdfnd@2@@shdfnd@physx@@KAXPEAVPxPlane@3@0PEBV43@@Z 000000018001b9a0 f i ConvexHullUtils.obj
 0001:0001aad0       ?copyHull@ConvexHull@physx@@QEAAXAEBV12@@Z 000000018001bad0 f i ConvexHullUtils.obj
 0001:0001ab80       ?create@?$Array@VPxPlane@physx@@V?$ReflectionAllocator@VPxPlane@physx@@@shdfnd@2@@shdfnd@physx@@KAXPEAVPxPlane@3@0AEBV43@@Z 000000018001bb80 f i ConvexHullUtils.obj
 0001:0001ac80       ?create@?$Array@VPxVec3@physx@@V?$ReflectionAllocator@VPxVec3@physx@@@shdfnd@2@@shdfnd@physx@@KAXPEAVPxVec3@3@0AEBV43@@Z 000000018001bc80 f i ConvexHullUtils.obj
 0001:0001ad60       ?getInverse@PxMat33@physx@@QEBA?BV12@XZ 000000018001bd60 f i ConvexHullUtils.obj
 0001:0001aff0       ?getTransform@Box@Gu@physx@@QEBA?AVPxTransform@3@XZ 000000018001bff0 f i ConvexHullUtils.obj
 0001:0001b050       ?growAndPushBack@?$Array@VHalfEdge@ConvexHull@physx@@V?$ReflectionAllocator@VHalfEdge@ConvexHull@physx@@@shdfnd@3@@shdfnd@physx@@IEAAAEAVHalfEdge@ConvexHull@3@AEBV453@@Z 000000018001c050 f i ConvexHullUtils.obj
 0001:0001b120       ?growAndPushBack@?$Array@VPxPlane@physx@@V?$ReflectionAllocator@VPxPlane@physx@@@shdfnd@2@@shdfnd@physx@@IEAAAEAVPxPlane@3@AEBV43@@Z 000000018001c120 f i ConvexHullUtils.obj
 0001:0001b210       ?isValid@Box@Gu@physx@@QEBA_NXZ 000000018001c210 f i ConvexHullUtils.obj
 0001:0001b230       ?recreate@?$Array@VHalfEdge@ConvexHull@physx@@V?$ReflectionAllocator@VHalfEdge@ConvexHull@physx@@@shdfnd@3@@shdfnd@physx@@IEAAXI@Z 000000018001c230 f i ConvexHullUtils.obj
 0001:0001b2e0       ?recreate@?$Array@VPxPlane@physx@@V?$ReflectionAllocator@VPxPlane@physx@@@shdfnd@2@@shdfnd@physx@@IEAAXI@Z 000000018001c2e0 f i ConvexHullUtils.obj
 0001:0001b370       ?resize@?$Array@VHalfEdge@ConvexHull@physx@@V?$ReflectionAllocator@VHalfEdge@ConvexHull@physx@@@shdfnd@3@@shdfnd@physx@@QEAAXIAEBVHalfEdge@ConvexHull@3@@Z 000000018001c370 f i ConvexHullUtils.obj
 0001:0001b3e0       ?resize@?$Array@VPxPlane@physx@@V?$ReflectionAllocator@VPxPlane@physx@@@shdfnd@2@@shdfnd@physx@@QEAAXIAEBVPxPlane@3@@Z 000000018001c3e0 f i ConvexHullUtils.obj
 0001:0001b440       ?resize@?$Array@VPxVec3@physx@@V?$ReflectionAllocator@VPxVec3@physx@@@shdfnd@2@@shdfnd@physx@@QEAAXIAEBVPxVec3@3@@Z 000000018001c440 f i ConvexHullUtils.obj
 0001:0001b4a0       ?rotate@Box@Gu@physx@@QEBA?AVPxVec3@3@AEBV43@@Z 000000018001c4a0 f i ConvexHullUtils.obj
 0001:0001b550       ?rotateInv@Box@Gu@physx@@QEBA?AVPxVec3@3@AEBV43@@Z 000000018001c550 f i ConvexHullUtils.obj
 0001:0001b5e0       ?setAxes@Box@Gu@physx@@QEAAXAEBVPxVec3@3@00@Z 000000018001c5e0 f i ConvexHullUtils.obj
 0001:0001b620       ?setEmpty@Box@Gu@physx@@QEAAXXZ 000000018001c620 f i ConvexHullUtils.obj
 0001:0001b660       ?transform@Box@Gu@physx@@QEBA?AVPxVec3@3@AEBV43@@Z 000000018001c660 f i ConvexHullUtils.obj
 0001:0001b720       ??0ConvexMeshBuilder@physx@@QEAA@_N@Z 000000018001c720 f   ConvexMeshBuilder.obj
 0001:0001b790       ??1ConvexMeshBuilder@physx@@QEAA@XZ 000000018001c790 f   ConvexMeshBuilder.obj
 0001:0001b7f0       ?build@ConvexMeshBuilder@physx@@QEAA_NAEBVPxConvexMeshDesc@2@I_NPEAVConvexHullLib@2@@Z 000000018001c7f0 f   ConvexMeshBuilder.obj
 0001:0001b980       ?save@ConvexMeshBuilder@physx@@QEBA_NAEAVPxOutputStream@2@_N@Z 000000018001c980 f   ConvexMeshBuilder.obj
 0001:0001bb90       ?copy@ConvexMeshBuilder@physx@@QEAA_NAEAUConvexHullData@Gu@2@AEAI@Z 000000018001cb90 f   ConvexMeshBuilder.obj
 0001:0001bc20       ?loadConvexHull@ConvexMeshBuilder@physx@@QEAA_NAEBVPxConvexMeshDesc@2@PEAVConvexHullLib@2@@Z 000000018001cc20 f   ConvexMeshBuilder.obj
 0001:0001bec0       ?computeHullPolygons@ConvexMeshBuilder@physx@@QEAA_NAEBIPEBVPxVec3@2@0PEBIAEAVPxAllocatorCallback@2@AEAIAEAPEAV32@4AEAPEAI4AEAPEAUPxHullPolygon@2@@Z 000000018001cec0 f   ConvexMeshBuilder.obj
 0001:0001c0d0       ?computeGaussMaps@ConvexMeshBuilder@physx@@QEAA_NXZ 000000018001d0d0 f   ConvexMeshBuilder.obj
 0001:0001c1c0       ?computeMassInfo@ConvexMeshBuilder@physx@@QEAAX_N@Z 000000018001d1c0 f   ConvexMeshBuilder.obj
 0001:0001c5f0       ?computeInternalObjects@ConvexMeshBuilder@physx@@QEAAXXZ 000000018001d5f0 f   ConvexMeshBuilder.obj
 0001:0001ca80       ?isFinite@PxVec3@physx@@QEBA_NXZ 000000018001da80 f i ConvexMeshBuilder.obj
 0001:0001cae0       ??0ConvexPolygonsBuilder@physx@@QEAA@PEAUConvexHullData@Gu@1@_N@Z 000000018001dae0 f   ConvexPolygonsBuilder.obj
 0001:0001cb10       ??1ConvexPolygonsBuilder@physx@@QEAA@XZ 000000018001db10 f   ConvexPolygonsBuilder.obj
 0001:0001cb60       ?computeHullPolygons@ConvexPolygonsBuilder@physx@@QEAA_NAEBIPEBVPxVec3@2@0PEBI@Z 000000018001db60 f   ConvexPolygonsBuilder.obj
 0001:0001cd80       ?createPolygonData@ConvexPolygonsBuilder@physx@@AEAA_NXZ 000000018001dd80 f   ConvexPolygonsBuilder.obj
 0001:0001d620       ?createTrianglesFromPolygons@ConvexPolygonsBuilder@physx@@AEAA_NXZ 000000018001e620 f   ConvexPolygonsBuilder.obj
 0001:0001e020       ??$PlaneEquation@U?$TriangleT@I@Gu@physx@@@@YA?AVPxPlane@physx@@AEBU?$TriangleT@I@Gu@1@PEBVPxVec3@1@@Z 000000018001f020 f i ConvexPolygonsBuilder.obj
 0001:0001e1b0       ??$copy@V?$ReflectionAllocator@VPair@@@shdfnd@physx@@@?$Array@VPair@@V?$ReflectionAllocator@VPair@@@shdfnd@physx@@@shdfnd@physx@@IEAAXAEBV012@@Z 000000018001f1b0 f i ConvexPolygonsBuilder.obj
 0001:0001f080       ?allocate@?$ReflectionAllocator@VPair@@@shdfnd@physx@@QEAAPEAX_KPEBDH@Z 0000000180020080 f i ConvexPolygonsBuilder.obj
 0001:000206c0       ?growAndPushBack@?$Array@VPair@@V?$ReflectionAllocator@VPair@@@shdfnd@physx@@@shdfnd@physx@@IEAAAEAVPair@@AEBV4@@Z 00000001800216c0 f i ConvexPolygonsBuilder.obj
 0001:000207a0       ??0QuickHullConvexHullLib@physx@@QEAA@AEBVPxConvexMeshDesc@1@AEBUPxCookingParams@1@@Z 00000001800217a0 f   QuickHullConvexHullLib.obj
 0001:00020890       ??1QuickHullConvexHullLib@physx@@UEAA@XZ 0000000180021890 f   QuickHullConvexHullLib.obj
 0001:00020970       ?createConvexHull@QuickHullConvexHullLib@physx@@UEAA?AW4Enum@PxConvexMeshCookingResult@2@XZ 0000000180021970 f   QuickHullConvexHullLib.obj
 0001:00020bc0       ?fillConvexMeshDesc@QuickHullConvexHullLib@physx@@UEAAXAEAVPxConvexMeshDesc@2@@Z 0000000180021bc0 f   QuickHullConvexHullLib.obj
 0001:00020c10       ?createEdgeList@QuickHullConvexHullLib@physx@@UEAA_NIPEBEPEAPEAEPEAPEAG2@Z 0000000180021c10 f   QuickHullConvexHullLib.obj
 0001:00020f00       ?expandHullOBB@QuickHullConvexHullLib@physx@@IEAA?AW4Enum@PxConvexMeshCookingResult@2@XZ 0000000180021f00 f   QuickHullConvexHullLib.obj
 0001:00021320       ?expandHull@QuickHullConvexHullLib@physx@@IEAA?AW4Enum@PxConvexMeshCookingResult@2@XZ 0000000180022320 f   QuickHullConvexHullLib.obj
 0001:00021c20       ?cleanupForSimplex@QuickHullConvexHullLib@physx@@IEAA_NPEAVPxVec3@2@IPEAUQuickHullVertex@local@@1AEAM2@Z 0000000180022c20 f   QuickHullConvexHullLib.obj
 0001:00022770       ?fillConvexMeshDescFromQuickHull@QuickHullConvexHullLib@physx@@IEAAXAEAVPxConvexMeshDesc@2@@Z 0000000180023770 f   QuickHullConvexHullLib.obj
 0001:00022af0       ?fillConvexMeshDescFromCroppedHull@QuickHullConvexHullLib@physx@@IEAAXAEAVPxConvexMeshDesc@2@@Z 0000000180023af0 f   QuickHullConvexHullLib.obj
 0001:00022cf0       ?getOppositeFaceDistance@QuickHullHalfEdge@local@@QEBAMXZ 0000000180023cf0 f   QuickHullConvexHullLib.obj
 0001:00022d30       ?mergeAdjacentFace@QuickHullFace@local@@QEAA_NPEAUQuickHullHalfEdge@2@AEAV?$Array@PEAUQuickHullFace@local@@V?$ReflectionAllocator@PEAUQuickHullFace@local@@@shdfnd@physx@@@shdfnd@physx@@@Z 0000000180023d30 f   QuickHullConvexHullLib.obj
 0001:000231a0       ?checkFaceConsistency@QuickHullFace@local@@QEAA_NXZ 00000001800241a0 f   QuickHullConvexHullLib.obj
 0001:000231b0       ?connectHalfEdges@QuickHullFace@local@@AEAAPEAU12@PEAUQuickHullHalfEdge@2@0@Z 00000001800241b0 f   QuickHullConvexHullLib.obj
 0001:00023530       ??0QuickHull@local@@QEAA@AEBUPxCookingParams@physx@@AEBVPxConvexMeshDesc@3@@Z 0000000180024530 f   QuickHullConvexHullLib.obj
 0001:000235e0       ??1QuickHull@local@@QEAA@XZ 00000001800245e0 f   QuickHullConvexHullLib.obj
 0001:00023730       ?preallocate@QuickHull@local@@QEAAXI@Z 0000000180024730 f   QuickHullConvexHullLib.obj
 0001:00023870       ?parseInputVertices@QuickHull@local@@QEAAXPEBVPxVec3@physx@@I@Z 0000000180024870 f   QuickHullConvexHullLib.obj
 0001:000239e0       ?releaseHull@QuickHull@local@@QEAAXXZ 00000001800249e0 f   QuickHullConvexHullLib.obj
 0001:00023a40       ?setPrecomputedMinMax@QuickHull@local@@QEAAXPEBUQuickHullVertex@2@0MM@Z 0000000180024a40 f   QuickHullConvexHullLib.obj
 0001:00023bd0       ?buildHull@QuickHull@local@@QEAA?AW4Enum@QuickHullResult@2@XZ 0000000180024bd0 f   QuickHullConvexHullLib.obj
 0001:00023d60       ?maxNumVertsPerFace@QuickHull@local@@QEBAIXZ 0000000180024d60 f   QuickHullConvexHullLib.obj
 0001:00023da0       ?computeMinMaxVerts@QuickHull@local@@IEAAXXZ 0000000180024da0 f   QuickHullConvexHullLib.obj
 0001:00024180       ?findSimplex@QuickHull@local@@IEAA_NXZ 0000000180025180 f   QuickHullConvexHullLib.obj
 0001:00024d50       ?addSimplex@QuickHull@local@@IEAAXPEAUQuickHullVertex@2@_N@Z 0000000180025d50 f   QuickHullConvexHullLib.obj
 0001:000251c0       ?nextPointToAdd@QuickHull@local@@IEAAPEAUQuickHullVertex@2@AEAPEAUQuickHullFace@2@@Z 00000001800261c0 f   QuickHullConvexHullLib.obj
 0001:00025320       ?addPointToHull@QuickHull@local@@IEAA_NPEBUQuickHullVertex@2@AEAUQuickHullFace@2@AEA_N@Z 0000000180026320 f   QuickHullConvexHullLib.obj
 0001:00025600       ?createTriangle@QuickHull@local@@IEAAPEAUQuickHullFace@2@AEBUQuickHullVertex@2@00@Z 0000000180026600 f   QuickHullConvexHullLib.obj
 0001:000259b0       ?addPointToFace@QuickHull@local@@IEAAXAEAUQuickHullFace@2@PEAUQuickHullVertex@2@M@Z 00000001800269b0 f   QuickHullConvexHullLib.obj
 0001:00025a00       ?removeEyePointFromFace@QuickHull@local@@IEAAXAEAUQuickHullFace@2@PEBUQuickHullVertex@2@@Z 0000000180026a00 f   QuickHullConvexHullLib.obj
 0001:00025a20       ?calculateHorizon@QuickHull@local@@IEAAXAEBVPxVec3@physx@@PEAUQuickHullHalfEdge@2@AEAUQuickHullFace@2@AEAV?$Array@PEAUQuickHullHalfEdge@local@@V?$ReflectionAllocator@PEAUQuickHullHalfEdge@local@@@shdfnd@physx@@@shdfnd@4@AEAV?$Array@PEAUQuickHullFace@local@@V?$ReflectionAllocator@PEAUQuickHullFace@local@@@shdfnd@physx@@@84@@Z 0000000180026a20 f   QuickHullConvexHullLib.obj
 0001:00025bd0       ?addNewFacesFromHorizon@QuickHull@local@@IEAAXPEBUQuickHullVertex@2@AEBV?$Array@PEAUQuickHullHalfEdge@local@@V?$ReflectionAllocator@PEAUQuickHullHalfEdge@local@@@shdfnd@physx@@@shdfnd@physx@@AEAV?$Array@PEAUQuickHullFace@local@@V?$ReflectionAllocator@PEAUQuickHullFace@local@@@shdfnd@physx@@@56@@Z 0000000180026bd0 f   QuickHullConvexHullLib.obj
 0001:00025d30       ?doAdjacentMerge@QuickHull@local@@IEAA_NAEAUQuickHullFace@2@_NAEA_N@Z 0000000180026d30 f   QuickHullConvexHullLib.obj
 0001:00025fc0       ?doPostAdjacentMerge@QuickHull@local@@IEAA_NAEAUQuickHullFace@2@M@Z 0000000180026fc0 f   QuickHullConvexHullLib.obj
 0001:000260f0       ?deleteFacePoints@QuickHull@local@@IEAAXAEAUQuickHullFace@2@PEAU32@@Z 00000001800270f0 f   QuickHullConvexHullLib.obj
 0001:00026210       ?resolveUnclaimedPoints@QuickHull@local@@IEAAXAEBV?$Array@PEAUQuickHullFace@local@@V?$ReflectionAllocator@PEAUQuickHullFace@local@@@shdfnd@physx@@@shdfnd@physx@@@Z 0000000180027210 f   QuickHullConvexHullLib.obj
 0001:00026470       ?postMergeHull@QuickHull@local@@IEAAXXZ 0000000180027470 f   QuickHullConvexHullLib.obj
 0001:000265f0       ?canMergeFaces@QuickHull@local@@IEAA_NAEBUQuickHullHalfEdge@2@@Z 00000001800275f0 f   QuickHullConvexHullLib.obj
 0001:00026e30       ?getExpandPoint@local@@YAXAEBUQuickHullHalfEdge@1@AEAUExpandPoint@1@PEBV?$Array@IV?$ReflectionAllocator@I@shdfnd@physx@@@shdfnd@physx@@@Z 0000000180027e30 f   QuickHullConvexHullLib.obj
 0001:00026ee0       ?addExpandPoint@local@@YAXAEBUExpandPoint@1@AEAV?$Array@UExpandPoint@local@@V?$ReflectionAllocator@UExpandPoint@local@@@shdfnd@physx@@@shdfnd@physx@@@Z 0000000180027ee0 f   QuickHullConvexHullLib.obj
 0001:00026fa0       ??0PxPlane@physx@@QEAA@AEBV01@@Z 0000000180027fa0 f i QuickHullConvexHullLib.obj
 0001:00026fc0       ??0QuickHullVertex@local@@QEAA@XZ 0000000180027fc0 f i QuickHullConvexHullLib.obj
 0001:00026fd0       ??1?$MemBlock@UQuickHullFace@local@@$00@local@@QEAA@XZ 0000000180027fd0 f i QuickHullConvexHullLib.obj
 0001:00027060       ??1?$MemBlock@UQuickHullHalfEdge@local@@$0A@@local@@QEAA@XZ 0000000180028060 f i QuickHullConvexHullLib.obj
 0001:000270f0       ??1ConvexHull@physx@@QEAA@XZ 00000001800280f0 f i QuickHullConvexHullLib.obj
 0001:00027190       ??_EQuickHullConvexHullLib@physx@@UEAAPEAXI@Z 0000000180028190 f i QuickHullConvexHullLib.obj
 0001:00027190       ??_GQuickHullConvexHullLib@physx@@UEAAPEAXI@Z 0000000180028190 f i QuickHullConvexHullLib.obj
 0001:000271f0       ??__G@YAXPEAX0_K1P6APEAX00@Z@Z 00000001800281f0 f i QuickHullConvexHullLib.obj
 0001:00027250       ?allocate@?$ReflectionAllocator@PEAUQuickHullFace@local@@@shdfnd@physx@@QEAAPEAX_KPEBDH@Z 0000000180028250 f i QuickHullConvexHullLib.obj
 0001:000272f0       ?allocate@?$ReflectionAllocator@PEAUQuickHullHalfEdge@local@@@shdfnd@physx@@QEAAPEAX_KPEBDH@Z 00000001800282f0 f i QuickHullConvexHullLib.obj
 0001:00027390       ?allocate@?$ReflectionAllocator@PEAUQuickHullVertex@local@@@shdfnd@physx@@QEAAPEAX_KPEBDH@Z 0000000180028390 f i QuickHullConvexHullLib.obj
 0001:00027430       ?allocate@?$ReflectionAllocator@UExpandPoint@local@@@shdfnd@physx@@QEAAPEAX_KPEBDH@Z 0000000180028430 f i QuickHullConvexHullLib.obj
 0001:000274d0       ?copy@?$Array@UExpandPoint@local@@V?$ReflectionAllocator@UExpandPoint@local@@@shdfnd@physx@@@shdfnd@physx@@KAXPEAUExpandPoint@local@@0PEBU45@@Z 00000001800284d0 f i QuickHullConvexHullLib.obj
 0001:00027550       ?getFreeItem@?$MemBlock@UQuickHullFace@local@@$00@local@@QEAAPEAUQuickHullFace@2@XZ 0000000180028550 f i QuickHullConvexHullLib.obj
 0001:00027680       ?getFreeItem@?$MemBlock@UQuickHullHalfEdge@local@@$0A@@local@@QEAAPEAUQuickHullHalfEdge@2@XZ 0000000180028680 f i QuickHullConvexHullLib.obj
 0001:00027760       ?growAndPushBack@?$Array@PEAUQuickHullFace@local@@V?$ReflectionAllocator@PEAUQuickHullFace@local@@@shdfnd@physx@@@shdfnd@physx@@IEAAAEAPEAUQuickHullFace@local@@AEBQEAU45@@Z 0000000180028760 f i QuickHullConvexHullLib.obj
 0001:00027840       ?growAndPushBack@?$Array@PEAUQuickHullHalfEdge@local@@V?$ReflectionAllocator@PEAUQuickHullHalfEdge@local@@@shdfnd@physx@@@shdfnd@physx@@IEAAAEAPEAUQuickHullHalfEdge@local@@AEBQEAU45@@Z 0000000180028840 f i QuickHullConvexHullLib.obj
 0001:00027920       ?growAndPushBack@?$Array@PEAUQuickHullVertex@local@@V?$ReflectionAllocator@PEAUQuickHullVertex@local@@@shdfnd@physx@@@shdfnd@physx@@IEAAAEAPEAUQuickHullVertex@local@@AEBQEAU45@@Z 0000000180028920 f i QuickHullConvexHullLib.obj
 0001:00027a00       ?growAndPushBack@?$Array@UExpandPoint@local@@V?$ReflectionAllocator@UExpandPoint@local@@@shdfnd@physx@@@shdfnd@physx@@IEAAAEAUExpandPoint@local@@AEBU45@@Z 0000000180028a00 f i QuickHullConvexHullLib.obj
 0001:00027b00       ?init@?$MemBlock@UQuickHullFace@local@@$00@local@@QEAAXI@Z 0000000180028b00 f i QuickHullConvexHullLib.obj
 0001:00027c00       ?init@?$MemBlock@UQuickHullHalfEdge@local@@$0A@@local@@QEAAXI@Z 0000000180028c00 f i QuickHullConvexHullLib.obj
 0001:00027ca0       ?recreate@?$Array@PEAUQuickHullFace@local@@V?$ReflectionAllocator@PEAUQuickHullFace@local@@@shdfnd@physx@@@shdfnd@physx@@IEAAXI@Z 0000000180028ca0 f i QuickHullConvexHullLib.obj
 0001:00027d50       ?recreate@?$Array@PEAUQuickHullHalfEdge@local@@V?$ReflectionAllocator@PEAUQuickHullHalfEdge@local@@@shdfnd@physx@@@shdfnd@physx@@IEAAXI@Z 0000000180028d50 f i QuickHullConvexHullLib.obj
 0001:00027e00       ?recreate@?$Array@PEAUQuickHullVertex@local@@V?$ReflectionAllocator@PEAUQuickHullVertex@local@@@shdfnd@physx@@@shdfnd@physx@@IEAAXI@Z 0000000180028e00 f i QuickHullConvexHullLib.obj
 0001:00027eb0       ?recreate@?$Array@UExpandPoint@local@@V?$ReflectionAllocator@UExpandPoint@local@@@shdfnd@physx@@@shdfnd@physx@@IEAAXI@Z 0000000180028eb0 f i QuickHullConvexHullLib.obj
 0001:00027f40       ?reset@?$MemBlock@UQuickHullFace@local@@$00@local@@QEAAXXZ 0000000180028f40 f i QuickHullConvexHullLib.obj
 0001:00027fb0       ?reset@?$MemBlock@UQuickHullHalfEdge@local@@$0A@@local@@QEAAXXZ 0000000180028fb0 f i QuickHullConvexHullLib.obj
 0001:000281a0       ?computeVolumeIntegrals@physx@@YA_NAEBVPxSimpleTriangleMesh@1@MAEAUPxIntegrals@1@@Z 00000001800291a0 f   VolumeIntegration.obj
 0001:00028210       ?computeVolumeIntegralsEberly@physx@@YA_NAEBVPxConvexMeshDesc@1@MAEAUPxIntegrals@1@AEBVPxVec3@1@@Z 0000000180029210 f   VolumeIntegration.obj
 0001:00028260       ?computeVolumeIntegralsEberlySIMD@physx@@YA_NAEBVPxConvexMeshDesc@1@MAEAUPxIntegrals@1@AEBVPxVec3@1@@Z 0000000180029260 f   VolumeIntegration.obj
 0001:0002a6a0       PxSetPhysXCookingDelayLoadHook 000000018002b6a0 f   WindowsCookingDelayLoadHook.obj
 0001:0002a6b0       ?cookingDelayHook@@YAP6A_JXZIPEAUDelayLoadInfo@@@Z 000000018002b6b0 f   WindowsCookingDelayLoadHook.obj
 0001:0002a700       ?physXCommonDliNotePreLoadLibrary@Cm@physx@@YAP6A_JXZPEBDPEBVPxDelayLoadHook@2@@Z 000000018002b700 f i WindowsCookingDelayLoadHook.obj
 0001:0002a781       __imp_load_??0RadixSortBuffered@Cm@physx@@QEAA@XZ 000000018002b781 f   PhysXCommon_64:PhysXCommon_64.dll
 0001:0002a78d       __tailMerge_PhysXCommon_64_dll 000000018002b78d f i PhysXCommon_64:PhysXCommon_64.dll
 0001:0002a806       ??0RadixSortBuffered@Cm@physx@@QEAA@XZ 000000018002b806 f   PhysXCommon_64:PhysXCommon_64.dll
 0001:0002a80c       __imp_load_??1RadixSortBuffered@Cm@physx@@UEAA@XZ 000000018002b80c f   PhysXCommon_64:PhysXCommon_64.dll
 0001:0002a818       ??1RadixSortBuffered@Cm@physx@@UEAA@XZ 000000018002b818 f   PhysXCommon_64:PhysXCommon_64.dll
 0001:0002a81e       __imp_load_?Sort@RadixSortBuffered@Cm@physx@@QEAAAEAV123@PEBIIW4RadixHint@23@@Z 000000018002b81e f   PhysXCommon_64:PhysXCommon_64.dll
 0001:0002a82a       ?Sort@RadixSortBuffered@Cm@physx@@QEAAAEAV123@PEBIIW4RadixHint@23@@Z 000000018002b82a f   PhysXCommon_64:PhysXCommon_64.dll
 0001:0002a830       __imp_load_?readDword@physx@@YAI_NAEAVPxInputStream@1@@Z 000000018002b830 f   PhysXCommon_64:PhysXCommon_64.dll
 0001:0002a83c       ?readDword@physx@@YAI_NAEAVPxInputStream@1@@Z 000000018002b83c f   PhysXCommon_64:PhysXCommon_64.dll
 0001:0002a842       __imp_load_?ReadHeader@Gu@physx@@YA_NEEEEAEAIAEA_NAEAVPxInputStream@2@@Z 000000018002b842 f   PhysXCommon_64:PhysXCommon_64.dll
 0001:0002a84e       ?ReadHeader@Gu@physx@@YA_NEEEEAEAIAEA_NAEAVPxInputStream@2@@Z 000000018002b84e f   PhysXCommon_64:PhysXCommon_64.dll
 0001:0002a854       __imp_load_?exportExtraData@ConvexMesh@Gu@physx@@UEAAXAEAVPxSerializationContext@3@@Z 000000018002b854 f   PhysXCommon_64:PhysXCommon_64.dll
 0001:0002a860       ?exportExtraData@ConvexMesh@Gu@physx@@UEAAXAEAVPxSerializationContext@3@@Z 000000018002b860 f   PhysXCommon_64:PhysXCommon_64.dll
 0001:0002a866       __imp_load_?onRefCountZero@ConvexMesh@Gu@physx@@UEAAXXZ 000000018002b866 f   PhysXCommon_64:PhysXCommon_64.dll
 0001:0002a872       ?onRefCountZero@ConvexMesh@Gu@physx@@UEAAXXZ 000000018002b872 f   PhysXCommon_64:PhysXCommon_64.dll
 0001:0002a878       __imp_load_?release@ConvexMesh@Gu@physx@@UEAAXXZ 000000018002b878 f   PhysXCommon_64:PhysXCommon_64.dll
 0001:0002a884       ?release@ConvexMesh@Gu@physx@@UEAAXXZ 000000018002b884 f   PhysXCommon_64:PhysXCommon_64.dll
 0001:0002a88a       __imp_load_?getPolygonData@ConvexMesh@Gu@physx@@UEBA_NIAEAUPxHullPolygon@3@@Z 000000018002b88a f   PhysXCommon_64:PhysXCommon_64.dll
 0001:0002a896       ?getPolygonData@ConvexMesh@Gu@physx@@UEBA_NIAEAUPxHullPolygon@3@@Z 000000018002b896 f   PhysXCommon_64:PhysXCommon_64.dll
 0001:0002a89c       __imp_load_?isGpuCompatible@ConvexMesh@Gu@physx@@UEBA_NXZ 000000018002b89c f   PhysXCommon_64:PhysXCommon_64.dll
 0001:0002a8a8       ?isGpuCompatible@ConvexMesh@Gu@physx@@UEBA_NXZ 000000018002b8a8 f   PhysXCommon_64:PhysXCommon_64.dll
 0001:0002a8ae       __imp_load_?getReferenceCount@ConvexMesh@Gu@physx@@UEBAIXZ 000000018002b8ae f   PhysXCommon_64:PhysXCommon_64.dll
 0001:0002a8ba       ?getReferenceCount@ConvexMesh@Gu@physx@@UEBAIXZ 000000018002b8ba f   PhysXCommon_64:PhysXCommon_64.dll
 0001:0002a8c0       __imp_load_?acquireReference@ConvexMesh@Gu@physx@@UEAAXXZ 000000018002b8c0 f   PhysXCommon_64:PhysXCommon_64.dll
 0001:0002a8cc       ?acquireReference@ConvexMesh@Gu@physx@@UEAAXXZ 000000018002b8cc f   PhysXCommon_64:PhysXCommon_64.dll
 0001:0002a8d2       __imp_load_?getMassInformation@ConvexMesh@Gu@physx@@UEBAXAEAMAEAVPxMat33@3@AEAVPxVec3@3@@Z 000000018002b8d2 f   PhysXCommon_64:PhysXCommon_64.dll
 0001:0002a8de       ?getMassInformation@ConvexMesh@Gu@physx@@UEBAXAEAMAEAVPxMat33@3@AEAVPxVec3@3@@Z 000000018002b8de f   PhysXCommon_64:PhysXCommon_64.dll
 0001:0002a8e4       __imp_load_?getLocalBounds@ConvexMesh@Gu@physx@@UEBA?AVPxBounds3@3@XZ 000000018002b8e4 f   PhysXCommon_64:PhysXCommon_64.dll
 0001:0002a8f0       ?getLocalBounds@ConvexMesh@Gu@physx@@UEBA?AVPxBounds3@3@XZ 000000018002b8f0 f   PhysXCommon_64:PhysXCommon_64.dll
 0001:0002a8f6       __imp_load_??1ConvexMesh@Gu@physx@@UEAA@XZ 000000018002b8f6 f   PhysXCommon_64:PhysXCommon_64.dll
 0001:0002a902       ??1ConvexMesh@Gu@physx@@UEAA@XZ 000000018002b902 f   PhysXCommon_64:PhysXCommon_64.dll
 0001:0002a908       __imp_load_??0HeightField@Gu@physx@@QEAA@PEAVGuMeshFactory@2@@Z 000000018002b908 f   PhysXCommon_64:PhysXCommon_64.dll
 0001:0002a914       ??0HeightField@Gu@physx@@QEAA@PEAVGuMeshFactory@2@@Z 000000018002b914 f   PhysXCommon_64:PhysXCommon_64.dll
 0001:0002a91a       __imp_load_?loadFromDesc@HeightField@Gu@physx@@QEAA_NAEBVPxHeightFieldDesc@3@@Z 000000018002b91a f   PhysXCommon_64:PhysXCommon_64.dll
 0001:0002a926       ?loadFromDesc@HeightField@Gu@physx@@QEAA_NAEBVPxHeightFieldDesc@3@@Z 000000018002b926 f   PhysXCommon_64:PhysXCommon_64.dll
 0001:0002a92c       __imp_load_?computeCellCoordinates@HeightField@Gu@physx@@QEBAIMMAEAM0@Z 000000018002b92c f   PhysXCommon_64:PhysXCommon_64.dll
 0001:0002a938       ?computeCellCoordinates@HeightField@Gu@physx@@QEBAIMMAEAM0@Z 000000018002b938 f   PhysXCommon_64:PhysXCommon_64.dll
 0001:0002a93e       __imp_load_?releaseMemory@HeightField@Gu@physx@@QEAAXXZ 000000018002b93e f   PhysXCommon_64:PhysXCommon_64.dll
 0001:0002a94a       ?releaseMemory@HeightField@Gu@physx@@QEAAXXZ 000000018002b94a f   PhysXCommon_64:PhysXCommon_64.dll
 0001:0002a950       __imp_load_??1HeightField@Gu@physx@@UEAA@XZ 000000018002b950 f   PhysXCommon_64:PhysXCommon_64.dll
 0001:0002a95c       ??1HeightField@Gu@physx@@UEAA@XZ 000000018002b95c f   PhysXCommon_64:PhysXCommon_64.dll
 0001:0002a962       __imp_load_??0NodeAllocator@Gu@physx@@QEAA@XZ 000000018002b962 f   PhysXCommon_64:PhysXCommon_64.dll
 0001:0002a96e       ??0NodeAllocator@Gu@physx@@QEAA@XZ 000000018002b96e f   PhysXCommon_64:PhysXCommon_64.dll
 0001:0002a974       __imp_load_??1NodeAllocator@Gu@physx@@QEAA@XZ 000000018002b974 f   PhysXCommon_64:PhysXCommon_64.dll
 0001:0002a980       ??1NodeAllocator@Gu@physx@@QEAA@XZ 000000018002b980 f   PhysXCommon_64:PhysXCommon_64.dll
 0001:0002a986       __imp_load_?release@NodeAllocator@Gu@physx@@QEAAXXZ 000000018002b986 f   PhysXCommon_64:PhysXCommon_64.dll
 0001:0002a992       ?release@NodeAllocator@Gu@physx@@QEAAXXZ 000000018002b992 f   PhysXCommon_64:PhysXCommon_64.dll
 0001:0002a998       __imp_load_?buildAABBTree@Gu@physx@@YA_NAEAVAABBTreeBuildParams@12@AEAVNodeAllocator@12@AEAUBuildStats@12@AEAPEAI@Z 000000018002b998 f   PhysXCommon_64:PhysXCommon_64.dll
 0001:0002a9a4       ?buildAABBTree@Gu@physx@@YA_NAEAVAABBTreeBuildParams@12@AEAVNodeAllocator@12@AEAUBuildStats@12@AEAPEAI@Z 000000018002b9a4 f   PhysXCommon_64:PhysXCommon_64.dll
 0001:0002a9aa       __imp_load_?writeDword@physx@@YAXI_NAEAVPxOutputStream@1@@Z 000000018002b9aa f   PhysXCommon_64:PhysXCommon_64.dll
 0001:0002a9b6       ?writeDword@physx@@YAXI_NAEAVPxOutputStream@1@@Z 000000018002b9b6 f   PhysXCommon_64:PhysXCommon_64.dll
 0001:0002a9bc       __imp_load_?writeFloatBuffer@physx@@YAXPEBMI_NAEAVPxOutputStream@1@@Z 000000018002b9bc f   PhysXCommon_64:PhysXCommon_64.dll
 0001:0002a9c8       ?writeFloatBuffer@physx@@YAXPEBMI_NAEAVPxOutputStream@1@@Z 000000018002b9c8 f   PhysXCommon_64:PhysXCommon_64.dll
 0001:0002a9ce       __imp_load_?writeHeader@physx@@YA_NCCCCI_NAEAVPxOutputStream@1@@Z 000000018002b9ce f   PhysXCommon_64:PhysXCommon_64.dll
 0001:0002a9da       ?writeHeader@physx@@YA_NCCCCI_NAEAVPxOutputStream@1@@Z 000000018002b9da f   PhysXCommon_64:PhysXCommon_64.dll
 0001:0002a9e0       __imp_load_?writeWord@physx@@YAXG_NAEAVPxOutputStream@1@@Z 000000018002b9e0 f   PhysXCommon_64:PhysXCommon_64.dll
 0001:0002a9ec       ?writeWord@physx@@YAXG_NAEAVPxOutputStream@1@@Z 000000018002b9ec f   PhysXCommon_64:PhysXCommon_64.dll
 0001:0002a9f2       __imp_load_?writeFloat@physx@@YAXM_NAEAVPxOutputStream@1@@Z 000000018002b9f2 f   PhysXCommon_64:PhysXCommon_64.dll
 0001:0002a9fe       ?writeFloat@physx@@YAXM_NAEAVPxOutputStream@1@@Z 000000018002b9fe f   PhysXCommon_64:PhysXCommon_64.dll
 0001:0002aa04       __imp_load_?computeBoundsAroundVertices@Gu@physx@@YAXAEAVPxBounds3@2@IPEIBVPxVec3@2@@Z 000000018002ba04 f   PhysXCommon_64:PhysXCommon_64.dll
 0001:0002aa10       ?computeBoundsAroundVertices@Gu@physx@@YAXAEAVPxBounds3@2@IPEIBVPxVec3@2@@Z 000000018002ba10 f   PhysXCommon_64:PhysXCommon_64.dll
 0001:0002aa16       __imp_load_??0SourceMesh@Gu@physx@@QEAA@XZ 000000018002ba16 f   PhysXCommon_64:PhysXCommon_64.dll
 0001:0002aa22       ??0SourceMesh@Gu@physx@@QEAA@XZ 000000018002ba22 f   PhysXCommon_64:PhysXCommon_64.dll
 0001:0002aa28       __imp_load_??1SourceMesh@Gu@physx@@QEAA@XZ 000000018002ba28 f   PhysXCommon_64:PhysXCommon_64.dll
 0001:0002aa34       ??1SourceMesh@Gu@physx@@QEAA@XZ 000000018002ba34 f   PhysXCommon_64:PhysXCommon_64.dll
 0001:0002aa3a       __imp_load_??0BV4Tree@Gu@physx@@QEAA@XZ 000000018002ba3a f   PhysXCommon_64:PhysXCommon_64.dll
 0001:0002aa46       ??0BV4Tree@Gu@physx@@QEAA@XZ 000000018002ba46 f   PhysXCommon_64:PhysXCommon_64.dll
 0001:0002aa4c       __imp_load_??1BV4Tree@Gu@physx@@QEAA@XZ 000000018002ba4c f   PhysXCommon_64:PhysXCommon_64.dll
 0001:0002aa58       ??1BV4Tree@Gu@physx@@QEAA@XZ 000000018002ba58 f   PhysXCommon_64:PhysXCommon_64.dll
 0001:0002aa5e       __imp_load_??0BV32Tree@Gu@physx@@QEAA@XZ 000000018002ba5e f   PhysXCommon_64:PhysXCommon_64.dll
 0001:0002aa6a       ??0BV32Tree@Gu@physx@@QEAA@XZ 000000018002ba6a f   PhysXCommon_64:PhysXCommon_64.dll
 0001:0002aa70       __imp_load_??1BV32Tree@Gu@physx@@QEAA@XZ 000000018002ba70 f   PhysXCommon_64:PhysXCommon_64.dll
 0001:0002aa7c       ??1BV32Tree@Gu@physx@@QEAA@XZ 000000018002ba7c f   PhysXCommon_64:PhysXCommon_64.dll
 0001:0002aa82       __imp_load_?writeWordBuffer@physx@@YAXPEBGI_NAEAVPxOutputStream@1@@Z 000000018002ba82 f   PhysXCommon_64:PhysXCommon_64.dll
 0001:0002aa8e       ?writeWordBuffer@physx@@YAXPEBGI_NAEAVPxOutputStream@1@@Z 000000018002ba8e f   PhysXCommon_64:PhysXCommon_64.dll
 0001:0002aa94       __imp_load_?computeMaxIndex@physx@@YAIPEBII@Z 000000018002ba94 f   PhysXCommon_64:PhysXCommon_64.dll
 0001:0002aaa0       ?computeMaxIndex@physx@@YAIPEBII@Z 000000018002baa0 f   PhysXCommon_64:PhysXCommon_64.dll
 0001:0002aaa6       __imp_load_?storeIndices@physx@@YAXIIPEBIAEAVPxOutputStream@1@_N@Z 000000018002baa6 f   PhysXCommon_64:PhysXCommon_64.dll
 0001:0002aab2       ?storeIndices@physx@@YAXIIPEBIAEAVPxOutputStream@1@_N@Z 000000018002bab2 f   PhysXCommon_64:PhysXCommon_64.dll
 0001:0002aab8       __imp_load_?BuildBV4Ex@Gu@physx@@YA_NAEAVBV4Tree@12@AEAVSourceMesh@12@MI@Z 000000018002bab8 f   PhysXCommon_64:PhysXCommon_64.dll
 0001:0002aac4       ?BuildBV4Ex@Gu@physx@@YA_NAEAVBV4Tree@12@AEAVSourceMesh@12@MI@Z 000000018002bac4 f   PhysXCommon_64:PhysXCommon_64.dll
 0001:0002aaca       __imp_load_?BuildBV32Ex@Gu@physx@@YA_NAEAVBV32Tree@12@AEAVSourceMesh@12@MI@Z 000000018002baca f   PhysXCommon_64:PhysXCommon_64.dll
 0001:0002aad6       ?BuildBV32Ex@Gu@physx@@YA_NAEAVBV32Tree@12@AEAVSourceMesh@12@MI@Z 000000018002bad6 f   PhysXCommon_64:PhysXCommon_64.dll
 0001:0002aadc       __imp_load_?computeMaxIndex@physx@@YAGPEBGI@Z 000000018002badc f   PhysXCommon_64:PhysXCommon_64.dll
 0001:0002aae8       ?computeMaxIndex@physx@@YAGPEBGI@Z 000000018002bae8 f   PhysXCommon_64:PhysXCommon_64.dll
 0001:0002aaee       __imp_load_?WriteHeader@Gu@physx@@YA_NEEEEI_NAEAVPxOutputStream@2@@Z 000000018002baee f   PhysXCommon_64:PhysXCommon_64.dll
 0001:0002aafa       ?WriteHeader@Gu@physx@@YA_NEEEEI_NAEAVPxOutputStream@2@@Z 000000018002bafa f   PhysXCommon_64:PhysXCommon_64.dll
 0001:0002ab00       __imp_load_?StoreIndices@Gu@physx@@YAXGIPEBGAEAVPxOutputStream@2@_N@Z 000000018002bb00 f   PhysXCommon_64:PhysXCommon_64.dll
 0001:0002ab0c       ?StoreIndices@Gu@physx@@YAXGIPEBGAEAVPxOutputStream@2@_N@Z 000000018002bb0c f   PhysXCommon_64:PhysXCommon_64.dll
 0001:0002ab12       __imp_load_?CreateOffsets@BigConvexData@physx@@IEAAXXZ 000000018002bb12 f   PhysXCommon_64:PhysXCommon_64.dll
 0001:0002ab1e       ?CreateOffsets@BigConvexData@physx@@IEAAXXZ 000000018002bb1e f   PhysXCommon_64:PhysXCommon_64.dll
 0001:0002ab24       __imp_load_?computeOBBPoints@Gu@physx@@YAXPEIAVPxVec3@2@AEBV32@1111@Z 000000018002bb24 f   PhysXCommon_64:PhysXCommon_64.dll
 0001:0002ab30       ?computeOBBPoints@Gu@physx@@YAXPEIAVPxVec3@2@AEBV32@1111@Z 000000018002bb30 f   PhysXCommon_64:PhysXCommon_64.dll
 0001:0002ab36       __imp_load_??0BigConvexData@physx@@QEAA@XZ 000000018002bb36 f   PhysXCommon_64:PhysXCommon_64.dll
 0001:0002ab42       ??0BigConvexData@physx@@QEAA@XZ 000000018002bb42 f   PhysXCommon_64:PhysXCommon_64.dll
 0001:0002ab48       __imp_load_??1BigConvexData@physx@@QEAA@XZ 000000018002bb48 f   PhysXCommon_64:PhysXCommon_64.dll
 0001:0002ab54       ??1BigConvexData@physx@@QEAA@XZ 000000018002bb54 f   PhysXCommon_64:PhysXCommon_64.dll
 0001:0002ab5a       __imp_load_PxGetFoundation 000000018002bb5a f   PhysXFoundation_64:PhysXFoundation_64.dll
 0001:0002ab66       __tailMerge_PhysXFoundation_64_dll 000000018002bb66 f i PhysXFoundation_64:PhysXFoundation_64.dll
 0001:0002abdf       PxGetFoundation            000000018002bbdf f   PhysXFoundation_64:PhysXFoundation_64.dll
 0001:0002abe5       __imp_load_?getAllocator@shdfnd@physx@@YAAEAVPxAllocatorCallback@2@XZ 000000018002bbe5 f   PhysXFoundation_64:PhysXFoundation_64.dll
 0001:0002abf1       ?getAllocator@shdfnd@physx@@YAAEAVPxAllocatorCallback@2@XZ 000000018002bbf1 f   PhysXFoundation_64:PhysXFoundation_64.dll
 0001:0002abf7       __imp_load_?getInstance@Foundation@shdfnd@physx@@SAAEAV123@XZ 000000018002bbf7 f   PhysXFoundation_64:PhysXFoundation_64.dll
 0001:0002ac03       ?getInstance@Foundation@shdfnd@physx@@SAAEAV123@XZ 000000018002bc03 f   PhysXFoundation_64:PhysXFoundation_64.dll
 0001:0002ac09       __imp_load_?error@Foundation@shdfnd@physx@@QEAAXW4Enum@PxErrorCode@3@PEBDH1ZZ 000000018002bc09 f   PhysXFoundation_64:PhysXFoundation_64.dll
 0001:0002ac15       ?error@Foundation@shdfnd@physx@@QEAAXW4Enum@PxErrorCode@3@PEBDH1ZZ 000000018002bc15 f   PhysXFoundation_64:PhysXFoundation_64.dll
 0001:0002ac1b       __imp_load_?incRefCount@Foundation@shdfnd@physx@@SAXXZ 000000018002bc1b f   PhysXFoundation_64:PhysXFoundation_64.dll
 0001:0002ac27       ?incRefCount@Foundation@shdfnd@physx@@SAXXZ 000000018002bc27 f   PhysXFoundation_64:PhysXFoundation_64.dll
 0001:0002ac2d       __imp_load_?decRefCount@Foundation@shdfnd@physx@@SAXXZ 000000018002bc2d f   PhysXFoundation_64:PhysXFoundation_64.dll
 0001:0002ac39       ?decRefCount@Foundation@shdfnd@physx@@SAXXZ 000000018002bc39 f   PhysXFoundation_64:PhysXFoundation_64.dll
 0001:0002ac3f       __imp_load_??0FPUGuard@shdfnd@physx@@QEAA@XZ 000000018002bc3f f   PhysXFoundation_64:PhysXFoundation_64.dll
 0001:0002ac4b       ??0FPUGuard@shdfnd@physx@@QEAA@XZ 000000018002bc4b f   PhysXFoundation_64:PhysXFoundation_64.dll
 0001:0002ac51       __imp_load_??1FPUGuard@shdfnd@physx@@QEAA@XZ 000000018002bc51 f   PhysXFoundation_64:PhysXFoundation_64.dll
 0001:0002ac5d       ??1FPUGuard@shdfnd@physx@@QEAA@XZ 000000018002bc5d f   PhysXFoundation_64:PhysXFoundation_64.dll
 0001:0002ac63       __imp_load_?allocate@TempAllocator@shdfnd@physx@@QEAAPEAX_KPEBDH@Z 000000018002bc63 f   PhysXFoundation_64:PhysXFoundation_64.dll
 0001:0002ac6f       ?allocate@TempAllocator@shdfnd@physx@@QEAAPEAX_KPEBDH@Z 000000018002bc6f f   PhysXFoundation_64:PhysXFoundation_64.dll
 0001:0002ac75       __imp_load_?deallocate@TempAllocator@shdfnd@physx@@QEAAXPEAX@Z 000000018002bc75 f   PhysXFoundation_64:PhysXFoundation_64.dll
 0001:0002ac81       ?deallocate@TempAllocator@shdfnd@physx@@QEAAXPEAX@Z 000000018002bc81 f   PhysXFoundation_64:PhysXFoundation_64.dll
 0001:0002ac87       __imp_load_?PxDiagonalize@physx@@YA?AVPxVec3@1@AEBVPxMat33@1@AEAVPxQuat@1@@Z 000000018002bc87 f   PhysXFoundation_64:PhysXFoundation_64.dll
 0001:0002ac93       ?PxDiagonalize@physx@@YA?AVPxVec3@1@AEBVPxMat33@1@AEAVPxQuat@1@@Z 000000018002bc93 f   PhysXFoundation_64:PhysXFoundation_64.dll
 0001:0002ac9a       LoadLibraryA               000000018002bc9a f   kernel32:KERNEL32.dll
 0001:0002aca0       ??$PFromRva@PEAP6A_JXZ@@YAPEAP6A_JXZK@Z 000000018002bca0 f i Delayimp:delayhlp.obj
 0001:0002acb0       ??$PFromRva@PEAPEAUHINSTANCE__@@@@YAPEAPEAUHINSTANCE__@@K@Z 000000018002bcb0 f i Delayimp:delayhlp.obj
 0001:0002acc0       ??$PFromRva@PEAU_IMAGE_IMPORT_BY_NAME@@@@YAPEAU_IMAGE_IMPORT_BY_NAME@@K@Z 000000018002bcc0 f i Delayimp:delayhlp.obj
 0001:0002acd0       ??$PFromRva@PEAU_IMAGE_THUNK_DATA64@@@@YAPEAU_IMAGE_THUNK_DATA64@@K@Z 000000018002bcd0 f i Delayimp:delayhlp.obj
 0001:0002ace0       ??$PFromRva@PEBD@@YAPEBDK@Z 000000018002bce0 f i Delayimp:delayhlp.obj
 0001:0002acf0       ??$PFromRva@PEBUImgDelayDescr@@@@YAPEBUImgDelayDescr@@K@Z 000000018002bcf0 f i Delayimp:delayhlp.obj
 0001:0002ad00       ??$PFromRva@PEBU_IMAGE_THUNK_DATA64@@@@YAPEBU_IMAGE_THUNK_DATA64@@K@Z 000000018002bd00 f i Delayimp:delayhlp.obj
 0001:0002ad10       ?CountOfImports@@YAIPEBU_IMAGE_THUNK_DATA64@@@Z 000000018002bd10 f i Delayimp:delayhlp.obj
 0001:0002ad24       ?DloadAcquireSectionWriteAccess@@YAXXZ 000000018002bd24 f i Delayimp:delayhlp.obj
 0001:0002ade0       ?DloadGetSRWLockFunctionPointers@@YAEXZ 000000018002bde0 f i Delayimp:delayhlp.obj
 0001:0002ae7c       ?DloadLock@@YAXXZ          000000018002be7c f i Delayimp:delayhlp.obj
 0001:0002aed0       ?DloadMakePermanentImageCommit@@YAXPEAX_K@Z 000000018002bed0 f i Delayimp:delayhlp.obj
 0001:0002af68       ?DloadObtainSection@@YAPEAXPEAK0@Z 000000018002bf68 f i Delayimp:delayhlp.obj
 0001:0002b000       ?DloadProtectSection@@YAXKPEAK@Z 000000018002c000 f i Delayimp:delayhlp.obj
 0001:0002b090       ?DloadReleaseSectionWriteAccess@@YAXXZ 000000018002c090 f i Delayimp:delayhlp.obj
 0001:0002b134       ?DloadUnlock@@YAXXZ        000000018002c134 f i Delayimp:delayhlp.obj
 0001:0002b180       ?IndexFromPImgThunkData@@YAIPEBU_IMAGE_THUNK_DATA64@@0@Z 000000018002c180 f i Delayimp:delayhlp.obj
 0001:0002b2c8       HRESULT_FROM_WIN32         000000018002c2c8 f i Delayimp:delayhlp.obj
 0001:0002b2d8       ReadAcquire64              000000018002c2d8 f i Delayimp:delayhlp.obj
 0001:0002b2dc       ReadPointerAcquire         000000018002c2dc f i Delayimp:delayhlp.obj
 0001:0002b2e0       WritePointerRelease        000000018002c2e0 f i Delayimp:delayhlp.obj
 0001:0002b2e4       WriteRelease64             000000018002c2e4 f i Delayimp:delayhlp.obj
 0001:0002b2e8       __FUnloadDelayLoadedDLL2   000000018002c2e8 f   Delayimp:delayhlp.obj
 0001:0002b3a4       __HrLoadAllImportsForDll   000000018002c3a4 f   Delayimp:delayhlp.obj
 0001:0002b418       __delayLoadHelper2         000000018002c418 f   Delayimp:delayhlp.obj
 0001:0002b714       ??3@YAXPEAX_K@Z            000000018002c714 f   MSVCRT:delete_scalar_size.obj
 0001:0002b71c       ??_V@YAXPEAX_K@Z           000000018002c71c f   MSVCRT:delete_array_size.obj
 0001:0002b724       ?__scrt_initialize_type_info@@YAXXZ 000000018002c724 f   MSVCRT:tncleanup.obj
 0001:0002b734       ?__scrt_uninitialize_type_info@@YAXXZ 000000018002c734 f   MSVCRT:tncleanup.obj
 0001:0002b740       ??1type_info@@UEAA@XZ      000000018002c740 f   MSVCRT:std_type_info_static.obj
 0001:0002b74c       ??_Gtype_info@@UEAAPEAXI@Z 000000018002c74c f i MSVCRT:std_type_info_static.obj
 0001:0002b74c       ??_Etype_info@@UEAAPEAXI@Z 000000018002c74c f i MSVCRT:std_type_info_static.obj
 0001:0002b790       __chkstk                   000000018002c790 f   MSVCRT:_chkstk_.obj
 0001:0002b790       _alloca_probe              000000018002c790 f   MSVCRT:_chkstk_.obj
 0001:0002b7e4       ??3@YAXPEAX@Z              000000018002c7e4 f   MSVCRT:delete_scalar.obj
 0001:0002b7ec       ??_V@YAXPEAX@Z             000000018002c7ec f   MSVCRT:delete_array.obj
 0001:0002bb40       _CRT_INIT                  000000018002cb40 f   MSVCRT:dll_dllmain.obj
 0001:0002bb48       _DllMainCRTStartup         000000018002cb48 f   MSVCRT:dll_dllmain.obj
 0001:0002bb88       _guard_check_icall_nop     000000018002cb88 f i MSVCRT:guard_support.obj
 0001:0002bb8c       _guard_icall_checks_enforced 000000018002cb8c f i MSVCRT:guard_support.obj
 0001:0002bba4       ??$__crt_fast_decode_pointer@PEAP6AXXZ@@YAPEAP6AXXZQEAP6AXXZ@Z 000000018002cba4 f i MSVCRT:utility.obj
 0001:0002bbbc       ??$__crt_fast_encode_pointer@PEAP6AXXZ@@YAPEAP6AXXZQEAP6AXXZ@Z 000000018002cbbc f i MSVCRT:utility.obj
 0001:0002bbdc       ?__crt_rotate_pointer_value@@YA_K_KH@Z 000000018002cbdc f i MSVCRT:utility.obj
 0001:0002bbe8       ?configure_argv@__scrt_narrow_argv_policy@@SAHXZ 000000018002cbe8 f i MSVCRT:utility.obj
 0001:0002bc78       NtCurrentTeb               000000018002cc78 f i MSVCRT:utility.obj
 0001:0002bc84       __scrt_acquire_startup_lock 000000018002cc84 f   MSVCRT:utility.obj
 0001:0002bcc0       __scrt_dllmain_after_initialize_c 000000018002ccc0 f   MSVCRT:utility.obj
 0001:0002bcf4       __scrt_dllmain_before_initialize_c 000000018002ccf4 f   MSVCRT:utility.obj
 0001:0002bd0c       __scrt_dllmain_crt_thread_attach 000000018002cd0c f   MSVCRT:utility.obj
 0001:0002bd34       __scrt_dllmain_crt_thread_detach 000000018002cd34 f   MSVCRT:utility.obj
 0001:0002bd4c       __scrt_dllmain_exception_filter 000000018002cd4c f   MSVCRT:utility.obj
 0001:0002bdb0       __scrt_dllmain_uninitialize_c 000000018002cdb0 f   MSVCRT:utility.obj
 0001:0002bde0       __scrt_dllmain_uninitialize_critical 000000018002cde0 f   MSVCRT:utility.obj
 0001:0002bdf4       __scrt_initialize_crt      000000018002cdf4 f   MSVCRT:utility.obj
 0001:0002be40       __scrt_initialize_onexit_tables 000000018002ce40 f   MSVCRT:utility.obj
 0001:0002bf0c       __scrt_is_nonwritable_in_current_image 000000018002cf0c f   MSVCRT:utility.obj
 0001:0002bfa8       __scrt_release_startup_lock 000000018002cfa8 f   MSVCRT:utility.obj
 0001:0002bfcc       __scrt_uninitialize_crt    000000018002cfcc f   MSVCRT:utility.obj
 0001:0002bff8       _onexit                    000000018002cff8 f   MSVCRT:utility.obj
 0001:0002c048       at_quick_exit              000000018002d048 f   MSVCRT:utility.obj
 0001:0002c080       atexit                     000000018002d080 f   MSVCRT:utility.obj
 0001:0002c098       __security_init_cookie     000000018002d098 f   MSVCRT:gs_support.obj
 0001:0002c144       DllMain                    000000018002d144 f   MSVCRT:dll_dllmain_stub.obj
 0001:0002c168       __local_stdio_printf_options 000000018002d168 f i MSVCRT:default_local_stdio_options.obj
 0001:0002c170       __local_stdio_scanf_options 000000018002d170 f i MSVCRT:default_local_stdio_options.obj
 0001:0002c178       __scrt_initialize_default_local_stdio_options 000000018002d178 f   MSVCRT:default_local_stdio_options.obj
 0001:0002c194       __scrt_get_dyn_tls_init_callback 000000018002d194 f   MSVCRT:dyn_tls_init.obj
 0001:0002c19c       __crt_debugger_hook        000000018002d19c f   MSVCRT:utility_desktop.obj
 0001:0002c1a4       __scrt_fastfail            000000018002d1a4 f   MSVCRT:utility_desktop.obj
 0001:0002c2ec       __scrt_get_show_window_mode 000000018002d2ec f   MSVCRT:utility_desktop.obj
 0001:0002c328       __scrt_initialize_winrt    000000018002d328 f   MSVCRT:utility_desktop.obj
 0001:0002c32c       __scrt_is_managed_app      000000018002d32c f   MSVCRT:utility_desktop.obj
 0001:0002c380       __scrt_set_unhandled_exception_filter 000000018002d380 f   MSVCRT:utility_desktop.obj
 0001:0002c390       __scrt_unhandled_exception_filter 000000018002d390 f   MSVCRT:utility_desktop.obj
 0001:0002c3c8       _RTC_Initialize            000000018002d3c8 f   MSVCRT:_initsect_.obj
 0001:0002c414       _RTC_Terminate             000000018002d414 f   MSVCRT:_initsect_.obj
 0001:0002c460       _guard_check_icall         000000018002d460 f i MSVCRT:checkcfg.obj
 0001:0002c470       __isa_available_init       000000018002d470 f   MSVCRT:_cpu_disp_.obj
 0001:0002c638       _get_startup_argv_mode     000000018002d638 f   MSVCRT:argv_mode.obj
 0001:0002c640       __scrt_is_ucrt_dll_in_use  000000018002d640 f   MSVCRT:ucrt_detection.obj
 0001:0002c64c       _purecall                  000000018002d64c f   vcruntime:VCRUNTIME140.dll
 0001:0002c652       __std_type_info_name       000000018002d652 f   vcruntime:VCRUNTIME140.dll
 0001:0002c658       memset                     000000018002d658 f   vcruntime:VCRUNTIME140.dll
 0001:0002c65e       memcpy                     000000018002d65e f   vcruntime:VCRUNTIME140.dll
 0001:0002c664       strstr                     000000018002d664 f   vcruntime:VCRUNTIME140.dll
 0001:0002c66a       __std_type_info_destroy_list 000000018002d66a f   vcruntime:VCRUNTIME140.dll
 0001:0002c670       __C_specific_handler       000000018002d670 f   vcruntime:VCRUNTIME140.dll
 0001:0002c676       strcmp                     000000018002d676 f   ucrt:api-ms-win-crt-string-l1-1-0.dll
 0001:0002c67c       atan2f                     000000018002d67c f   ucrt:api-ms-win-crt-math-l1-1-0.dll
 0001:0002c682       powf                       000000018002d682 f   ucrt:api-ms-win-crt-math-l1-1-0.dll
 0001:0002c688       cosf                       000000018002d688 f   ucrt:api-ms-win-crt-math-l1-1-0.dll
 0001:0002c68e       sinf                       000000018002d68e f   ucrt:api-ms-win-crt-math-l1-1-0.dll
 0001:0002c694       _fpclass                   000000018002d694 f   ucrt:api-ms-win-crt-math-l1-1-0.dll
 0001:0002c69a       free                       000000018002d69a f   ucrt:api-ms-win-crt-heap-l1-1-0.dll
 0001:0002c6a0       _initterm                  000000018002d6a0 f   ucrt:api-ms-win-crt-runtime-l1-1-0.dll
 0001:0002c6a6       _initterm_e                000000018002d6a6 f   ucrt:api-ms-win-crt-runtime-l1-1-0.dll
 0001:0002c6ac       _seh_filter_dll            000000018002d6ac f   ucrt:api-ms-win-crt-runtime-l1-1-0.dll
 0001:0002c6b2       _configure_narrow_argv     000000018002d6b2 f   ucrt:api-ms-win-crt-runtime-l1-1-0.dll
 0001:0002c6b8       _initialize_narrow_environment 000000018002d6b8 f   ucrt:api-ms-win-crt-runtime-l1-1-0.dll
 0001:0002c6be       _initialize_onexit_table   000000018002d6be f   ucrt:api-ms-win-crt-runtime-l1-1-0.dll
 0001:0002c6c4       _register_onexit_function  000000018002d6c4 f   ucrt:api-ms-win-crt-runtime-l1-1-0.dll
 0001:0002c6ca       _execute_onexit_table      000000018002d6ca f   ucrt:api-ms-win-crt-runtime-l1-1-0.dll
 0001:0002c6d0       _crt_atexit                000000018002d6d0 f   ucrt:api-ms-win-crt-runtime-l1-1-0.dll
 0001:0002c6d6       _crt_at_quick_exit         000000018002d6d6 f   ucrt:api-ms-win-crt-runtime-l1-1-0.dll
 0001:0002c6dc       _cexit                     000000018002d6dc f   ucrt:api-ms-win-crt-runtime-l1-1-0.dll
 0001:0002c6e2       terminate                  000000018002d6e2 f   ucrt:api-ms-win-crt-runtime-l1-1-0.dll
 0001:0002c6e8       RaiseException             000000018002d6e8 f   kernel32:KERNEL32.dll
 0001:0002c6ee       GetLastError               000000018002d6ee f   kernel32:KERNEL32.dll
 0001:0002c6f4       GetSystemInfo              000000018002d6f4 f   kernel32:KERNEL32.dll
 0001:0002c6fa       VirtualProtect             000000018002d6fa f   kernel32:KERNEL32.dll
 0001:0002c700       VirtualQuery               000000018002d700 f   kernel32:KERNEL32.dll
 0001:0002c706       FreeLibrary                000000018002d706 f   kernel32:KERNEL32.dll
 0001:0002c70c       GetModuleHandleW           000000018002d70c f   kernel32:KERNEL32.dll
 0001:0002c712       GetProcAddress             000000018002d712 f   kernel32:KERNEL32.dll
 0001:0002c718       LoadLibraryExA             000000018002d718 f   kernel32:KERNEL32.dll
 0001:0002c71e       InitializeSListHead        000000018002d71e f   kernel32:KERNEL32.dll
 0001:0002c724       QueryPerformanceCounter    000000018002d724 f   kernel32:KERNEL32.dll
 0001:0002c72a       GetCurrentProcessId        000000018002d72a f   kernel32:KERNEL32.dll
 0001:0002c730       GetCurrentThreadId         000000018002d730 f   kernel32:KERNEL32.dll
 0001:0002c736       GetSystemTimeAsFileTime    000000018002d736 f   kernel32:KERNEL32.dll
 0001:0002c73c       DisableThreadLibraryCalls  000000018002d73c f   kernel32:KERNEL32.dll
 0001:0002c742       RtlCaptureContext          000000018002d742 f   kernel32:KERNEL32.dll
 0001:0002c748       RtlLookupFunctionEntry     000000018002d748 f   kernel32:KERNEL32.dll
 0001:0002c74e       RtlVirtualUnwind           000000018002d74e f   kernel32:KERNEL32.dll
 0001:0002c754       IsDebuggerPresent          000000018002d754 f   kernel32:KERNEL32.dll
 0001:0002c75a       UnhandledExceptionFilter   000000018002d75a f   kernel32:KERNEL32.dll
 0001:0002c760       SetUnhandledExceptionFilter 000000018002d760 f   kernel32:KERNEL32.dll
 0001:0002c766       GetStartupInfoW            000000018002d766 f   kernel32:KERNEL32.dll
 0001:0002c76c       IsProcessorFeaturePresent  000000018002d76c f   kernel32:KERNEL32.dll
 0001:0002c774       __acrt_initialize          000000018002d774 f   MSVCRT:ucrt_stubs.obj
 0001:0002c774       __vcrt_initialize          000000018002d774 f   MSVCRT:ucrt_stubs.obj
 0001:0002c774       __scrt_stub_for_acrt_initialize 000000018002d774 f   MSVCRT:ucrt_stubs.obj
 0001:0002c778       __scrt_stub_for_acrt_thread_attach 000000018002d778 f   MSVCRT:ucrt_stubs.obj
 0001:0002c778       __acrt_thread_attach       000000018002d778 f   MSVCRT:ucrt_stubs.obj
 0001:0002c778       __vcrt_thread_attach       000000018002d778 f   MSVCRT:ucrt_stubs.obj
 0001:0002c77c       __acrt_thread_detach       000000018002d77c f   MSVCRT:ucrt_stubs.obj
 0001:0002c77c       __vcrt_thread_detach       000000018002d77c f   MSVCRT:ucrt_stubs.obj
 0001:0002c77c       __scrt_stub_for_acrt_thread_detach 000000018002d77c f   MSVCRT:ucrt_stubs.obj
 0001:0002c780       __vcrt_uninitialize        000000018002d780 f   MSVCRT:ucrt_stubs.obj
 0001:0002c780       __acrt_uninitialize        000000018002d780 f   MSVCRT:ucrt_stubs.obj
 0001:0002c780       __scrt_stub_for_acrt_uninitialize 000000018002d780 f   MSVCRT:ucrt_stubs.obj
 0001:0002c784       __scrt_stub_for_acrt_uninitialize_critical 000000018002d784 f   MSVCRT:ucrt_stubs.obj
 0001:0002c784       __acrt_uninitialize_critical 000000018002d784 f   MSVCRT:ucrt_stubs.obj
 0001:0002c784       __vcrt_uninitialize_critical 000000018002d784 f   MSVCRT:ucrt_stubs.obj
 0001:0002c788       __scrt_stub_for_is_c_termination_complete 000000018002d788 f   MSVCRT:ucrt_stubs.obj
 0001:0002c788       _is_c_termination_complete 000000018002d788 f   MSVCRT:ucrt_stubs.obj
 0001:0002c7a0       _guard_dispatch_icall_nop  000000018002d7a0 f   MSVCRT:_guard_dispatch_.obj
 0002:00000000       __imp_LoadLibraryA         000000018002e000     kernel32:KERNEL32.dll
 0002:00000008       __imp_GetStartupInfoW      000000018002e008     kernel32:KERNEL32.dll
 0002:00000010       __imp_SetUnhandledExceptionFilter 000000018002e010     kernel32:KERNEL32.dll
 0002:00000018       __imp_UnhandledExceptionFilter 000000018002e018     kernel32:KERNEL32.dll
 0002:00000020       __imp_IsDebuggerPresent    000000018002e020     kernel32:KERNEL32.dll
 0002:00000028       __imp_RtlVirtualUnwind     000000018002e028     kernel32:KERNEL32.dll
 0002:00000030       __imp_RtlLookupFunctionEntry 000000018002e030     kernel32:KERNEL32.dll
 0002:00000038       __imp_RtlCaptureContext    000000018002e038     kernel32:KERNEL32.dll
 0002:00000040       __imp_DisableThreadLibraryCalls 000000018002e040     kernel32:KERNEL32.dll
 0002:00000048       __imp_GetSystemTimeAsFileTime 000000018002e048     kernel32:KERNEL32.dll
 0002:00000050       __imp_GetCurrentThreadId   000000018002e050     kernel32:KERNEL32.dll
 0002:00000058       __imp_GetCurrentProcessId  000000018002e058     kernel32:KERNEL32.dll
 0002:00000060       __imp_QueryPerformanceCounter 000000018002e060     kernel32:KERNEL32.dll
 0002:00000068       __imp_InitializeSListHead  000000018002e068     kernel32:KERNEL32.dll
 0002:00000070       __imp_LoadLibraryExA       000000018002e070     kernel32:KERNEL32.dll
 0002:00000078       __imp_GetProcAddress       000000018002e078     kernel32:KERNEL32.dll
 0002:00000080       __imp_GetModuleHandleW     000000018002e080     kernel32:KERNEL32.dll
 0002:00000088       __imp_FreeLibrary          000000018002e088     kernel32:KERNEL32.dll
 0002:00000090       __imp_VirtualQuery         000000018002e090     kernel32:KERNEL32.dll
 0002:00000098       __imp_VirtualProtect       000000018002e098     kernel32:KERNEL32.dll
 0002:000000a0       __imp_GetSystemInfo        000000018002e0a0     kernel32:KERNEL32.dll
 0002:000000a8       __imp_GetLastError         000000018002e0a8     kernel32:KERNEL32.dll
 0002:000000b0       __imp_RaiseException       000000018002e0b0     kernel32:KERNEL32.dll
 0002:000000b8       __imp_IsProcessorFeaturePresent 000000018002e0b8     kernel32:KERNEL32.dll
 0002:000000c0       \177KERNEL32_NULL_THUNK_DATA 000000018002e0c0     kernel32:KERNEL32.dll
 0002:000000c8       __imp_memset               000000018002e0c8     vcruntime:VCRUNTIME140.dll
 0002:000000d0       __imp_memcpy               000000018002e0d0     vcruntime:VCRUNTIME140.dll
 0002:000000d8       __imp_strstr               000000018002e0d8     vcruntime:VCRUNTIME140.dll
 0002:000000e0       __imp___std_type_info_destroy_list 000000018002e0e0     vcruntime:VCRUNTIME140.dll
 0002:000000e8       __imp__purecall            000000018002e0e8     vcruntime:VCRUNTIME140.dll
 0002:000000f0       __imp___C_specific_handler 000000018002e0f0     vcruntime:VCRUNTIME140.dll
 0002:000000f8       __imp___std_type_info_name 000000018002e0f8     vcruntime:VCRUNTIME140.dll
 0002:00000100       \177VCRUNTIME140_NULL_THUNK_DATA 000000018002e100     vcruntime:VCRUNTIME140.dll
 0002:00000108       __imp_free                 000000018002e108     ucrt:api-ms-win-crt-heap-l1-1-0.dll
 0002:00000110       \177api-ms-win-crt-heap-l1-1-0_NULL_THUNK_DATA 000000018002e110     ucrt:api-ms-win-crt-heap-l1-1-0.dll
 0002:00000118       __imp_powf                 000000018002e118     ucrt:api-ms-win-crt-math-l1-1-0.dll
 0002:00000120       __imp_atan2f               000000018002e120     ucrt:api-ms-win-crt-math-l1-1-0.dll
 0002:00000128       __imp_cosf                 000000018002e128     ucrt:api-ms-win-crt-math-l1-1-0.dll
 0002:00000130       __imp_sinf                 000000018002e130     ucrt:api-ms-win-crt-math-l1-1-0.dll
 0002:00000138       __imp__fpclass             000000018002e138     ucrt:api-ms-win-crt-math-l1-1-0.dll
 0002:00000140       \177api-ms-win-crt-math-l1-1-0_NULL_THUNK_DATA 000000018002e140     ucrt:api-ms-win-crt-math-l1-1-0.dll
 0002:00000148       __imp__initialize_onexit_table 000000018002e148     ucrt:api-ms-win-crt-runtime-l1-1-0.dll
 0002:00000150       __imp__initterm_e          000000018002e150     ucrt:api-ms-win-crt-runtime-l1-1-0.dll
 0002:00000158       __imp__seh_filter_dll      000000018002e158     ucrt:api-ms-win-crt-runtime-l1-1-0.dll
 0002:00000160       __imp__initialize_narrow_environment 000000018002e160     ucrt:api-ms-win-crt-runtime-l1-1-0.dll
 0002:00000168       __imp__configure_narrow_argv 000000018002e168     ucrt:api-ms-win-crt-runtime-l1-1-0.dll
 0002:00000170       __imp__register_onexit_function 000000018002e170     ucrt:api-ms-win-crt-runtime-l1-1-0.dll
 0002:00000178       __imp__crt_atexit          000000018002e178     ucrt:api-ms-win-crt-runtime-l1-1-0.dll
 0002:00000180       __imp__execute_onexit_table 000000018002e180     ucrt:api-ms-win-crt-runtime-l1-1-0.dll
 0002:00000188       __imp__cexit               000000018002e188     ucrt:api-ms-win-crt-runtime-l1-1-0.dll
 0002:00000190       __imp__crt_at_quick_exit   000000018002e190     ucrt:api-ms-win-crt-runtime-l1-1-0.dll
 0002:00000198       __imp__initterm            000000018002e198     ucrt:api-ms-win-crt-runtime-l1-1-0.dll
 0002:000001a0       __imp_terminate            000000018002e1a0     ucrt:api-ms-win-crt-runtime-l1-1-0.dll
 0002:000001a8       \177api-ms-win-crt-runtime-l1-1-0_NULL_THUNK_DATA 000000018002e1a8     ucrt:api-ms-win-crt-runtime-l1-1-0.dll
 0002:000001b0       __imp_strcmp               000000018002e1b0     ucrt:api-ms-win-crt-string-l1-1-0.dll
 0002:000001b8       \177api-ms-win-crt-string-l1-1-0_NULL_THUNK_DATA 000000018002e1b8     ucrt:api-ms-win-crt-string-l1-1-0.dll
 0002:000001c0       __guard_check_icall_fptr   000000018002e1c0     MSVCRT:guard_support.obj
 0002:000001c8       __guard_dispatch_icall_fptr 000000018002e1c8     MSVCRT:guard_support.obj
 0002:000001d0       __xc_a                     000000018002e1d0     MSVCRT:initializers.obj
 0002:000003b8       __xc_z                     000000018002e3b8     MSVCRT:initializers.obj
 0002:000003c0       __xi_a                     000000018002e3c0     MSVCRT:initializers.obj
 0002:000003c8       __xi_z                     000000018002e3c8     MSVCRT:initializers.obj
 0002:000003d0       __xp_a                     000000018002e3d0     MSVCRT:initializers.obj
 0002:000003d8       __xp_z                     000000018002e3d8     MSVCRT:initializers.obj
 0002:000003e0       __xt_a                     000000018002e3e0     MSVCRT:initializers.obj
 0002:000003e8       __xt_z                     000000018002e3e8     MSVCRT:initializers.obj
 0002:000003f0       ??_7PxFoundation@physx@@6B@ 000000018002e3f0     Adjacencies.obj
 0002:00000430       ??_C@_0DC@DMHHONHL@Adjacencies?3?3GetBoundaryVertices@ 000000018002e430     Adjacencies.obj
 0002:00000468       ??_C@_0DH@INIBFA@C?3?2PhysX?2physx?2source?2physxcooki@ 000000018002e468     Adjacencies.obj
 0002:000004a0       ??_C@_0CK@KKNAOLHI@Adjacencies?3?3MakeLastRef?3?5NULL?5p@ 000000018002e4a0     Adjacencies.obj
 0002:000004d0       ??_C@_0DA@FMEHLBKI@Adjacencies?3?3UpdateLink?3?5invalid@ 000000018002e4d0     Adjacencies.obj
 0002:00000500       ??_C@_0EA@CPHOACLK@Adjacencies?3?3CreateDatabase?3?5can@ 000000018002e500     Adjacencies.obj
 0002:00000540       ??_C@_0BM@OIFKLHDN@?$DMallocation?5names?5disabled?$DO?$AA@ 000000018002e540     Adjacencies.obj
 0002:0000055c       ?sBufferSize@DebugText@Cm@physx@@2HB 000000018002e55c     Cooking.obj
 0002:00000560       ?g_PXSinCoefficients0@aos@shdfnd@physx@@3UPX_VECTORF32@123@B 000000018002e560     Cooking.obj
 0002:00000570       ?g_PXSinCoefficients1@aos@shdfnd@physx@@3UPX_VECTORF32@123@B 000000018002e570     Cooking.obj
 0002:00000580       ?g_PXSinCoefficients2@aos@shdfnd@physx@@3UPX_VECTORF32@123@B 000000018002e580     Cooking.obj
 0002:00000590       ?g_PXCosCoefficients0@aos@shdfnd@physx@@3UPX_VECTORF32@123@B 000000018002e590     Cooking.obj
 0002:000005a0       ?g_PXCosCoefficients1@aos@shdfnd@physx@@3UPX_VECTORF32@123@B 000000018002e5a0     Cooking.obj
 0002:000005b0       ?g_PXCosCoefficients2@aos@shdfnd@physx@@3UPX_VECTORF32@123@B 000000018002e5b0     Cooking.obj
 0002:000005c0       ?g_PXTanCoefficients0@aos@shdfnd@physx@@3UPX_VECTORF32@123@B 000000018002e5c0     Cooking.obj
 0002:000005d0       ?g_PXTanCoefficients1@aos@shdfnd@physx@@3UPX_VECTORF32@123@B 000000018002e5d0     Cooking.obj
 0002:000005e0       ?g_PXTanCoefficients2@aos@shdfnd@physx@@3UPX_VECTORF32@123@B 000000018002e5e0     Cooking.obj
 0002:000005f0       ?g_PXASinCoefficients0@aos@shdfnd@physx@@3UPX_VECTORF32@123@B 000000018002e5f0     Cooking.obj
 0002:00000600       ?g_PXASinCoefficients1@aos@shdfnd@physx@@3UPX_VECTORF32@123@B 000000018002e600     Cooking.obj
 0002:00000610       ?g_PXASinCoefficients2@aos@shdfnd@physx@@3UPX_VECTORF32@123@B 000000018002e610     Cooking.obj
 0002:00000620       ?g_PXATanCoefficients0@aos@shdfnd@physx@@3UPX_VECTORF32@123@B 000000018002e620     Cooking.obj
 0002:00000630       ?g_PXATanCoefficients1@aos@shdfnd@physx@@3UPX_VECTORF32@123@B 000000018002e630     Cooking.obj
 0002:00000640       ?g_PXATanCoefficients2@aos@shdfnd@physx@@3UPX_VECTORF32@123@B 000000018002e640     Cooking.obj
 0002:00000650       ?g_PXSinEstCoefficients@aos@shdfnd@physx@@3UPX_VECTORF32@123@B 000000018002e650     Cooking.obj
 0002:00000660       ?g_PXCosEstCoefficients@aos@shdfnd@physx@@3UPX_VECTORF32@123@B 000000018002e660     Cooking.obj
 0002:00000670       ?g_PXTanEstCoefficients@aos@shdfnd@physx@@3UPX_VECTORF32@123@B 000000018002e670     Cooking.obj
 0002:00000680       ?g_PXATanEstCoefficients@aos@shdfnd@physx@@3UPX_VECTORF32@123@B 000000018002e680     Cooking.obj
 0002:00000690       ?g_PXASinEstCoefficients@aos@shdfnd@physx@@3UPX_VECTORF32@123@B 000000018002e690     Cooking.obj
 0002:000006a0       ?g_PXASinEstConstants@aos@shdfnd@physx@@3UPX_VECTORF32@123@B 000000018002e6a0     Cooking.obj
 0002:000006b0       ?g_PXPiConstants0@aos@shdfnd@physx@@3UPX_VECTORF32@123@B 000000018002e6b0     Cooking.obj
 0002:000006c0       ?g_PXReciprocalTwoPi@aos@shdfnd@physx@@3UPX_VECTORF32@123@B 000000018002e6c0     Cooking.obj
 0002:000006d0       ?g_PXTwoPi@aos@shdfnd@physx@@3UPX_VECTORF32@123@B 000000018002e6d0     Cooking.obj
 0002:00000700       ??_C@_06EJKDJEDO@PxBase?$AA@ 000000018002e700     Cooking.obj
 0002:00000708       ??_C@_0N@CDGINLLF@PxConvexMesh?$AA@ 000000018002e708     Cooking.obj
 0002:00000718       ??_C@_0O@PBAKPCEC@PxHeightField?$AA@ 000000018002e718     Cooking.obj
 0002:00000728       ??_7PxBase@physx@@6B@      000000018002e728     Cooking.obj
 0002:00000750       ??_7PxConvexMesh@physx@@6B@ 000000018002e750     Cooking.obj
 0002:000007c8       ??_7PxCooking@physx@@6B@   000000018002e7c8     Cooking.obj
 0002:00000848       ??_7Cooking@physx@@6B@     000000018002e848     Cooking.obj
 0002:000008c8       ??_7RefCountable@Cm@physx@@6B@ 000000018002e8c8     Cooking.obj
 0002:000008d8       ??_7ConvexMesh@Gu@physx@@6BPxConvexMesh@2@@ 000000018002e8d8     Cooking.obj
 0002:00000960       ??_7ConvexMesh@Gu@physx@@6BRefCountable@Cm@2@@ 000000018002e960     Cooking.obj
 0002:00000970       ??_C@_0FC@PJIHAFK@Cooking?3?3validateTriangleMesh?3?5u@ 000000018002e970     Cooking.obj
 0002:000009c8       ??_C@_0DD@EKHNBCAO@C?3?2PhysX?2physx?2source?2physxcooki@ 000000018002e9c8     Cooking.obj
 0002:00000a00       ??_C@_0EK@EKAIJEBL@Cooking?3?3cookConvexMesh?3?5user?9pr@ 000000018002ea00     Cooking.obj
 0002:00000a50       ??_C@_0FA@GFFGAPML@Cooking?3?3cookConvexMesh?3?5provide@ 000000018002ea50     Cooking.obj
 0002:00000aa0       ??_C@_0EP@PKDCPNNO@Cooking?3?3cookConvexMesh?3?5provide@ 000000018002eaa0     Cooking.obj
 0002:00000af0       ??_C@_0EO@LKFMMDE@Cooking?3?3cookConvexMesh?3?5user?9pr@ 000000018002eaf0     Cooking.obj
 0002:00000b40       ??_C@_0DD@PEFEOIJG@c?3?2physx?2physx?2source?2foundation@ 000000018002eb40     Cooking.obj
 0002:00000b74       __real@3a83126f            000000018002eb74     Cooking.obj
 0002:00000b78       __real@3f800000            000000018002eb78     Cooking.obj
 0002:00000b7c       __real@ba83126f            000000018002eb7c     Cooking.obj
 0002:00000b80       __real@bf800000            000000018002eb80     Cooking.obj
 0002:00000b90       __xmm@000000003a83126f3a83126f3a83126f 000000018002eb90     Cooking.obj
 0002:00000ba0       __xmm@00000000ba83126fba83126fba83126f 000000018002eba0     Cooking.obj
 0002:00000bb0       ??_C@_0BA@DLCJDKDM@NonTrackedAlloc?$AA@ 000000018002ebb0     CookingUtils.obj
 0002:00000bc0       ??_C@_0DI@LHAHFHNF@C?3?2PhysX?2physx?2source?2physxcooki@ 000000018002ebc0     CookingUtils.obj
 0002:00000bf8       ??_C@_0DE@KDFILKPG@C?3?2PhysX?2physx?2source?2physxcooki@ 000000018002ebf8     EdgeList.obj
 0002:00000c30       ??_C@_0CO@GBNJFPN@EdgeList?3?3CreateFacesToEdges?3?5NU@ 000000018002ec30     EdgeList.obj
 0002:00000c60       ??_C@_0CO@EHJBBMNK@EdgeList?3?3ComputeActiveEdges?3?5NU@ 000000018002ec60     EdgeList.obj
 0002:00000c90       ??_C@_0DI@GBHLFOFP@ActiveEdges?3?3ComputeConvexEdges?3@ 000000018002ec90     EdgeList.obj
 0002:00000cc8       ??_C@_0DM@JOGBLHDI@ActiveEdges?3?3ComputeConvexEdges?3@ 000000018002ecc8     EdgeList.obj
 0002:00000d10       ??_C@_0ED@FEMJKPEL@ActiveEdges?3?3ComputeConvexEdges?3@ 000000018002ed10     EdgeList.obj
 0002:00000d60       ??_C@_0EB@BFDPMFCD@ActiveEdges?3?3ComputeConvexEdges?3@ 000000018002ed60     EdgeList.obj
 0002:00000da4       __real@bf7fbe77            000000018002eda4     EdgeList.obj
 0002:00000db0       __xmm@7fffffff7fffffff7fffffff7fffffff 000000018002edb0     EdgeList.obj
 0002:00000dc0       __xmm@80000000800000008000000080000000 000000018002edc0     EdgeList.obj
 0002:00000dd0       ??_C@_0DH@CFNGKMAE@C?3?2PhysX?2physx?2source?2physxcooki@ 000000018002edd0     MeshCleaner.obj
 0002:00000e08       __real@3f000000            000000018002ee08     MeshCleaner.obj
 0002:00000e10       ??_7Quantizer@physx@@6B@   000000018002ee10     Quantizer.obj
 0002:00000e38       ??_7QuantizerImpl@@6B@     000000018002ee38     Quantizer.obj
 0002:00000e60       ??_C@_0DF@JNJAHKHB@C?3?2PhysX?2physx?2source?2physxcooki@ 000000018002ee60     Quantizer.obj
 0002:00000e98       ??_C@_0DD@EBBFHGGD@C?3?2PhysX?2physx?2source?2foundation@ 000000018002ee98     Quantizer.obj
 0002:00000ecc       __real@38d1b717            000000018002eecc     Quantizer.obj
 0002:00000ed0       __real@3c23d70a            000000018002eed0     Quantizer.obj
 0002:00000ed4       __real@3f8020c5            000000018002eed4     Quantizer.obj
 0002:00000ed8       __real@7f7fffff            000000018002eed8     Quantizer.obj
 0002:00000edc       __real@fe7fffff            000000018002eedc     Quantizer.obj
 0002:00000ee0       __xmm@fe7fffff7e7fffff7e7fffff7e7fffff 000000018002eee0     Quantizer.obj
 0002:00000f10       ??_C@_0DP@GCNJGMEO@C?3?2PhysX?2physx?2source?2physxcooki@ 000000018002ef10     BVHStructureBuilder.obj
 0002:00000f50       __real@3ba3d70a            000000018002ef50     BVHStructureBuilder.obj
 0002:00000f60       ?reductionFactors@SubSortQuick@physx@@2QBMB 000000018002ef60     RTreeCooking.obj
 0002:00000f70       ?stopAtTrisPerLeaf1@SubSortQuick@physx@@2QBIB 000000018002ef70     RTreeCooking.obj
 0002:00001040       ??_C@_0DN@FDPOALNG@C?3?2PhysX?2physx?2source?2physxcooki@ 000000018002f040     RTreeCooking.obj
 0002:00001080       ??_C@_0DC@LFHLABHI@C?3?2PhysX?2physx?2source?2foundation@ 000000018002f080     RTreeCooking.obj
 0002:000010b8       ??_C@_0DL@CGCEOCLK@c?3?2physx?2physx?2source?2foundation@ 000000018002f0b8     RTreeCooking.obj
 0002:000010f4       __real@37800080            000000018002f0f4     RTreeCooking.obj
 0002:000010f8       __real@3a03126f            000000018002f0f8     RTreeCooking.obj
 0002:000010fc       __real@41100000            000000018002f0fc     RTreeCooking.obj
 0002:00001100       __real@41700000            000000018002f100     RTreeCooking.obj
 0002:00001104       __real@42200000            000000018002f104     RTreeCooking.obj
 0002:00001108       __real@ff7fffff            000000018002f108     RTreeCooking.obj
 0002:00001110       __xmm@00000001000000010000000100000001 000000018002f110     RTreeCooking.obj
 0002:00001120       __xmm@00000003000000020000000100000000 000000018002f120     RTreeCooking.obj
 0002:00001150       __real@40000000            000000018002f150     MeshBuilder.obj
 0002:00001154       __real@c1b00000            000000018002f154     MeshBuilder.obj
 0002:00001180       ??_7MeshDataBase@Gu@physx@@6B@ 000000018002f180     TriangleMeshBuilder.obj
 0002:00001188       ??_C@_0DG@KMKCPGHC@C?3?2PhysX?2physx?2source?2geomutils?2@ 000000018002f188     TriangleMeshBuilder.obj
 0002:000011c0       ??_7TriangleMeshData@Gu@physx@@6B@ 000000018002f1c0     TriangleMeshBuilder.obj
 0002:000011c8       ??_7RTreeTriangleData@Gu@physx@@6B@ 000000018002f1c8     TriangleMeshBuilder.obj
 0002:000011d0       ??_7BV4TriangleData@Gu@physx@@6B@ 000000018002f1d0     TriangleMeshBuilder.obj
 0002:000011d8       ??_7RemapCallback@RTreeCooker@physx@@6B@ 000000018002f1d8     TriangleMeshBuilder.obj
 0002:000011e8       ??_7TriangleMeshBuilder@physx@@6B@ 000000018002f1e8     TriangleMeshBuilder.obj
 0002:00001210       ??_7RTreeTriangleMeshBuilder@physx@@6B@ 000000018002f210     TriangleMeshBuilder.obj
 0002:00001238       ??_7BV4TriangleMeshBuilder@physx@@6B@ 000000018002f238     TriangleMeshBuilder.obj
 0002:00001260       ??_C@_0EF@HLMGCAHK@c?3?2physx?2physx?2source?2physxcooki@ 000000018002f260     TriangleMeshBuilder.obj
 0002:000012b0       ??_C@_0EE@CHCFCMKP@C?3?2PhysX?2physx?2source?2physxcooki@ 000000018002f2b0     TriangleMeshBuilder.obj
 0002:000012f8       ??_C@_0DJ@IGODLHLP@TriangleMesh?3?5Enable?5mesh?5weldin@ 000000018002f2f8     TriangleMeshBuilder.obj
 0002:00001340       ??_C@_0FJ@HHJLKGDF@TriangleMesh?3?5triangles?5are?5too?5@ 000000018002f340     TriangleMeshBuilder.obj
 0002:000013a0       ??_C@_0CN@KGPHHHLK@TriangleMesh?3?5mesh?5is?5too?5big?5fo@ 000000018002f3a0     TriangleMeshBuilder.obj
 0002:000013d0       ??_C@_0DD@CMJGDCNN@TriangleMesh?3?3loadFromDesc?3?5desc@ 000000018002f3d0     TriangleMeshBuilder.obj
 0002:00001410       ??_C@_0ED@ILJJNHIP@TriangleMesh?3?3loadFromDesc?3?5mPar@ 000000018002f410     TriangleMeshBuilder.obj
 0002:00001458       ??_C@_0BJ@BKHDBBHO@cleaning?5the?5mesh?5failed?$AA@ 000000018002f458     TriangleMeshBuilder.obj
 0002:00001478       ??_C@_0BK@JIDHMMCE@BV4?5tree?5failed?5to?5build?4?$AA@ 000000018002f478     TriangleMeshBuilder.obj
 0002:00001498       ??_C@_0BL@DHNECNBE@BV32?5tree?5failed?5to?5build?4?$AA@ 000000018002f498     TriangleMeshBuilder.obj
 0002:000014b8       ??_7RTreeCookerRemap@physx@@6B@ 000000018002f4b8     TriangleMeshBuilder.obj
 0002:000014c8       __real@3951b717            000000018002f4c8     TriangleMeshBuilder.obj
 0002:000014cc       __real@3dcccccd            000000018002f4cc     TriangleMeshBuilder.obj
 0002:000014d0       __real@48742400            000000018002f4d0     TriangleMeshBuilder.obj
 0002:00001500       ??_C@_0EH@JNHGPKKD@C?3?2PhysX?2physx?2source?2physxcooki@ 000000018002f500     BigConvexDataBuilder.obj
 0002:00001570       ??_C@_0EE@LFJLMOMK@C?3?2PhysX?2physx?2source?2physxcooki@ 000000018002f570     ConvexHullBuilder.obj
 0002:000015c0       ??_C@_0EB@DCEIFDGC@ConvexHullBuilder?3?3init?3?5convex?5@ 000000018002f5c0     ConvexHullBuilder.obj
 0002:00001610       ??_C@_0FM@KICBLCBH@Gu?3?3ConvexMesh?3?3checkHullPolygon@ 000000018002f610     ConvexHullBuilder.obj
 0002:00001670       ??_C@_0GO@HBFIOGLL@Gu?3?3ConvexMesh?3?3checkHullPolygon@ 000000018002f670     ConvexHullBuilder.obj
 0002:000016e0       ??_C@_0HF@OLJFBIEL@ConvexHullBuilder?3?5convex?5hull?5d@ 000000018002f6e0     ConvexHullBuilder.obj
 0002:00001760       ??_C@_0OG@JNHFOIL@ConvexHullBuilder?3?5convex?5hull?5d@ 000000018002f760     ConvexHullBuilder.obj
 0002:00001850       ??_C@_0EJ@NIOIBAKH@Cooking?3?3cookConvexMesh?3?5non?9man@ 000000018002f850     ConvexHullBuilder.obj
 0002:0000189c       __real@3ca3d70a            000000018002f89c     ConvexHullBuilder.obj
 0002:000018a0       __real@3eaaaaab            000000018002f8a0     ConvexHullBuilder.obj
 0002:000018a8       ??_7ConvexHullLib@physx@@6B@ 000000018002f8a8     ConvexHullLib.obj
 0002:000018d0       ??_C@_0EA@FGOABJFC@C?3?2PhysX?2physx?2source?2physxcooki@ 000000018002f8d0     ConvexHullLib.obj
 0002:00001910       __real@358637bd            000000018002f910     ConvexHullLib.obj
 0002:00001914       __real@3d4ccccd            000000018002f914     ConvexHullLib.obj
 0002:00001940       ??_C@_0EC@FJLLCMBC@C?3?2PhysX?2physx?2source?2physxcooki@ 000000018002f940     ConvexHullUtils.obj
 0002:00001984       __real@00800000            000000018002f984     ConvexHullUtils.obj
 0002:00001988       __real@3c8efa35            000000018002f988     ConvexHullUtils.obj
 0002:0000198c       __real@3e20d97c            000000018002f98c     ConvexHullUtils.obj
 0002:00001990       __real@4e6e6b28            000000018002f990     ConvexHullUtils.obj
 0002:00001994       __real@bf000000            000000018002f994     ConvexHullUtils.obj
 0002:000019c0       ??_C@_0DF@LLFJIJGM@Gu?3?3ConvexMesh?3?3loadFromDesc?3?5de@ 000000018002f9c0     ConvexMeshBuilder.obj
 0002:00001a00       ??_C@_0EE@HLDPGOJP@C?3?2PhysX?2physx?2source?2physxcooki@ 000000018002fa00     ConvexMeshBuilder.obj
 0002:00001a50       ??_C@_0HK@JOGKIEAA@Gu?3?3ConvexMesh?3?5Mesh?5has?5a?5negat@ 000000018002fa50     ConvexMeshBuilder.obj
 0002:00001ad0       ??_C@_0DH@NJPPHFFD@Gu?3?3ConvexMesh?3?5Error?5computing?5@ 000000018002fad0     ConvexMeshBuilder.obj
 0002:00001b08       ??_C@_0DJ@LJDLGLDJ@Gu?3?3ConvexMesh?3?3loadConvexHull?3?5@ 000000018002fb08     ConvexMeshBuilder.obj
 0002:00001b50       ??_C@_0HJ@KJANPPOE@ConvexMeshBuilder?3?3computeHullPo@ 000000018002fb50     ConvexMeshBuilder.obj
 0002:00001bcc       ??_C@_06KDGGGLIJ@PxVec3?$AA@ 000000018002fbcc     ConvexMeshBuilder.obj
 0002:00001bd4       ??_C@_05LMJPANIN@PxU32?$AA@ 000000018002fbd4     ConvexMeshBuilder.obj
 0002:00001be0       ??_C@_0O@JMAGMMGG@PxHullPolygon?$AA@ 000000018002fbe0     ConvexMeshBuilder.obj
 0002:00001bf0       __real@33d6bf95            000000018002fbf0     ConvexMeshBuilder.obj
 0002:00001bf4       __real@3f13cd3a            000000018002fbf4     ConvexMeshBuilder.obj
 0002:00001bf8       __real@b3d6bf95            000000018002fbf8     ConvexMeshBuilder.obj
 0002:00001c00       __xmm@80000000000000008000000000000000 000000018002fc00     ConvexMeshBuilder.obj
 0002:00001c10       ??_C@_0DP@PJBJBEGF@Meshmerizer?3?3extractHullPolygons@ 000000018002fc10     ConvexPolygonsBuilder.obj
 0002:00001c50       ??_C@_0EI@MLOMDMOH@C?3?2PhysX?2physx?2source?2physxcooki@ 000000018002fc50     ConvexPolygonsBuilder.obj
 0002:00001c98       ??_C@_0DL@IAFKOCCK@ConvexHullBuilder?3?5convex?5hull?5h@ 000000018002fc98     ConvexPolygonsBuilder.obj
 0002:00001ce0       ??_C@_0GF@OJLJHAMH@ConvexHullBuilder?3?3CreateTriangl@ 000000018002fce0     ConvexPolygonsBuilder.obj
 0002:00001d48       ??_7QuickHullConvexHullLib@physx@@6B@ 000000018002fd48     QuickHullConvexHullLib.obj
 0002:00001d70       ??_C@_0EJ@NFCELAPD@C?3?2PhysX?2physx?2source?2physxcooki@ 000000018002fd70     QuickHullConvexHullLib.obj
 0002:00001dc0       ??_C@_0GA@EPPAEJPM@QuickHullConvexHullLib?3?3findSimp@ 000000018002fdc0     QuickHullConvexHullLib.obj
 0002:00001e20       ??_C@_0FB@NEBIJMML@QuickHullConvexHullLib?3?3findSimp@ 000000018002fe20     QuickHullConvexHullLib.obj
 0002:00001e80       ??_C@_0FB@CLLCBEMM@QuickHullConvexHullLib?3?3findSimp@ 000000018002fe80     QuickHullConvexHullLib.obj
 0002:00001ed4       __real@34c00000            000000018002fed4     QuickHullConvexHullLib.obj
 0002:00001ed8       __real@3e800000            000000018002fed8     QuickHullConvexHullLib.obj
 0002:00001f00       __real@00000000            000000018002ff00     VolumeIntegration.obj
 0002:00001f04       __real@3c088889            000000018002ff04     VolumeIntegration.obj
 0002:00001f08       __real@3c888889            000000018002ff08     VolumeIntegration.obj
 0002:00001f0c       __real@3d2aaaab            000000018002ff0c     VolumeIntegration.obj
 0002:00001f10       __real@3e2aaaab            000000018002ff10     VolumeIntegration.obj
 0002:00001f18       __real@3f91111111111111    000000018002ff18     VolumeIntegration.obj
 0002:00001f20       __real@3fa5555555555555    000000018002ff20     VolumeIntegration.obj
 0002:00001f28       __real@3fa999999999999a    000000018002ff28     VolumeIntegration.obj
 0002:00001f30       __real@3fb5555555555555    000000018002ff30     VolumeIntegration.obj
 0002:00001f38       __real@3fc5555555555555    000000018002ff38     VolumeIntegration.obj
 0002:00001f40       __real@3fe0000000000000    000000018002ff40     VolumeIntegration.obj
 0002:00001f48       __real@3ff0000000000000    000000018002ff48     VolumeIntegration.obj
 0002:00001f50       __real@4008000000000000    000000018002ff50     VolumeIntegration.obj
 0002:00001f58       __real@4010000000000000    000000018002ff58     VolumeIntegration.obj
 0002:00001f60       __real@bf91111111111111    000000018002ff60     VolumeIntegration.obj
 0002:00001f68       __real@bfa999999999999a    000000018002ff68     VolumeIntegration.obj
 0002:00001f70       __real@bfb5555555555555    000000018002ff70     VolumeIntegration.obj
 0002:00001f78       __real@bfc5555555555555    000000018002ff78     VolumeIntegration.obj
 0002:00001f80       __xmm@3f811111111111113f81111111111111 000000018002ff80     VolumeIntegration.obj
 0002:00001f90       __xmm@3f811111111111113f91111111111111 000000018002ff90     VolumeIntegration.obj
 0002:00001fa0       __xmm@3f911111111111113f91111111111111 000000018002ffa0     VolumeIntegration.obj
 0002:00001fb0       __xmm@3fa55555555555553fa5555555555555 000000018002ffb0     VolumeIntegration.obj
 0002:00001fc0       __xmm@3fa55555555555553fc5555555555555 000000018002ffc0     VolumeIntegration.obj
 0002:00001fd0       __xmm@3fd55555555555553fd5555555555555 000000018002ffd0     VolumeIntegration.obj
 0002:00001fe0       __xmm@3fe00000000000003fe0000000000000 000000018002ffe0     VolumeIntegration.obj
 0002:00001ff0       __xmm@7fffffffffffffff7fffffffffffffff 000000018002fff0     VolumeIntegration.obj
 0002:00002000       ??_C@_0BA@EGLNOO@PhysXFoundation?$AA@ 0000000180030000     WindowsCookingDelayLoadHook.obj
 0002:00002010       ??_C@_0M@ILKNCJKN@PhysXCommon?$AA@ 0000000180030010     WindowsCookingDelayLoadHook.obj
 0002:00002020       __sz_PhysXCommon_64_dll    0000000180030020     PhysXCommon_64:PhysXCommon_64.dll
 0002:00002040       __sz_PhysXFoundation_64_dll 0000000180030040     PhysXFoundation_64:PhysXFoundation_64.dll
 0002:00002058       ??_C@_1BK@DBDEIDLH@?$AAK?$AAE?$AAR?$AAN?$AAE?$AAL?$AA3?$AA2?$AA?4?$AAD?$AAL?$AAL?$AA?$AA@ 0000000180030058     Delayimp:delayhlp.obj
 0002:00002078       ??_C@_0BI@OMNLIJDB@AcquireSRWLockExclusive?$AA@ 0000000180030078     Delayimp:delayhlp.obj
 0002:00002090       ??_C@_0BI@HMIEPCNJ@ReleaseSRWLockExclusive?$AA@ 0000000180030090     Delayimp:delayhlp.obj
 0002:000020a8       __pfnDliFailureHook2       00000001800300a8     Delayimp:delayhk1.obj
 0002:000020b8       ??_7type_info@@6B@         00000001800300b8     MSVCRT:std_type_info_static.obj
 0002:000020c0       _pRawDllMain               00000001800300c0     MSVCRT:dll_dllmain.obj
 0002:000020c0       _pDefaultRawDllMain        00000001800300c0     MSVCRT:dll_dllmain.obj
 0002:000020d0       _load_config_used          00000001800300d0     MSVCRT:loadcfg.obj
 0002:000021c8       ??_R4type_info@@6B@        00000001800301c8     MSVCRT:std_type_info_static.obj
 0002:000021f0       ??_R3type_info@@8          00000001800301f0     MSVCRT:std_type_info_static.obj
 0002:00002208       ??_R2type_info@@8          0000000180030208     MSVCRT:std_type_info_static.obj
 0002:00002218       ??_R1A@?0A@EA@type_info@@8 0000000180030218     MSVCRT:std_type_info_static.obj
 0002:000025c8       __rtc_iaa                  00000001800305c8     MSVCRT:_initsect_.obj
 0002:000025d0       __rtc_izz                  00000001800305d0     MSVCRT:_initsect_.obj
 0002:000025d8       __rtc_taa                  00000001800305d8     MSVCRT:_initsect_.obj
 0002:000025e0       __rtc_tzz                  00000001800305e0     MSVCRT:_initsect_.obj
 0002:00005fd8       __DELAY_IMPORT_DESCRIPTOR_PhysXCommon_64_dll 0000000180033fd8     PhysXCommon_64:PhysXCommon_64.dll
 0002:00005ff8       __DELAY_IMPORT_DESCRIPTOR_PhysXFoundation_64_dll 0000000180033ff8     PhysXFoundation_64:PhysXFoundation_64.dll
 0002:00006018       __NULL_DELAY_IMPORT_DESCRIPTOR 0000000180034018     PhysXCommon_64:PhysXCommon_64.dll
 0002:000061b8       \177PhysXCommon_64_NULL_THUNK_DATA_DLN 00000001800341b8     PhysXCommon_64:PhysXCommon_64.dll
 0002:00006218       \177PhysXFoundation_64_NULL_THUNK_DATA_DLN 0000000180034218     PhysXFoundation_64:PhysXFoundation_64.dll
 0002:00006e20       \177PhysXCommon_64_NULL_THUNK_DATA_DLB 0000000180034e20     PhysXCommon_64:PhysXCommon_64.dll
 0002:00006fa8       \177PhysXFoundation_64_NULL_THUNK_DATA_DLB 0000000180034fa8     PhysXFoundation_64:PhysXFoundation_64.dll
 0002:00008d54       __IMPORT_DESCRIPTOR_KERNEL32 0000000180036d54     kernel32:KERNEL32.dll
 0002:00008d68       __IMPORT_DESCRIPTOR_VCRUNTIME140 0000000180036d68     vcruntime:VCRUNTIME140.dll
 0002:00008d7c       __IMPORT_DESCRIPTOR_api-ms-win-crt-string-l1-1-0 0000000180036d7c     ucrt:api-ms-win-crt-string-l1-1-0.dll
 0002:00008d90       __IMPORT_DESCRIPTOR_api-ms-win-crt-math-l1-1-0 0000000180036d90     ucrt:api-ms-win-crt-math-l1-1-0.dll
 0002:00008da4       __IMPORT_DESCRIPTOR_api-ms-win-crt-heap-l1-1-0 0000000180036da4     ucrt:api-ms-win-crt-heap-l1-1-0.dll
 0002:00008db8       __IMPORT_DESCRIPTOR_api-ms-win-crt-runtime-l1-1-0 0000000180036db8     ucrt:api-ms-win-crt-runtime-l1-1-0.dll
 0002:00008dcc       __NULL_IMPORT_DESCRIPTOR   0000000180036dcc     kernel32:KERNEL32.dll
 0003:00000008       __pfnDliNotifyHook2        0000000180038008     WindowsCookingDelayLoadHook.obj
 0003:00000010       _fltused                   0000000180038010     MSVCRT:dllsupp.obj
 0003:00000020       __scrt_native_dllmain_reason 0000000180038020     MSVCRT:utility.obj
 0003:00000028       __security_cookie          0000000180038028     MSVCRT:gs_cookie.obj
 0003:00000030       __security_cookie_complement 0000000180038030     MSVCRT:gs_cookie.obj
 0003:00000040       __isa_available            0000000180038040     MSVCRT:_cpu_disp_.obj
 0003:00000044       __isa_enabled              0000000180038044     MSVCRT:_cpu_disp_.obj
 0003:00000048       __memcpy_nt_iters          0000000180038048     MSVCRT:_cpu_disp_.obj
 0003:00000050       __scrt_ucrt_dll_is_in_use  0000000180038050     MSVCRT:ucrt_stubs.obj
 0003:00000060       ??_R0?AVAdjEdge@@@8        0000000180038060     Adjacencies.obj
 0003:00000080       ??_R0I@8                   0000000180038080     Adjacencies.obj
 0003:00000098       ??_R0?AVAdjTriangle@physx@@@8 0000000180038098     Adjacencies.obj
 0003:000000c0       ??_R0?AVCooking@physx@@@8  00000001800380c0     Cooking.obj
 0003:000000e8       ??_R0?AVHeightField@Gu@physx@@@8 00000001800380e8     Cooking.obj
 0003:00000118       ??_R0?AVQuickHullConvexHullLib@physx@@@8 0000000180038118     Cooking.obj
 0003:00000150       ??_R0?AUPxDebugLine@physx@@@8 0000000180038150     Cooking.obj
 0003:00000178       ??_R0M@8                   0000000180038178     CookingUtils.obj
 0003:00000190       ??_R0?AUEdgeData@Gu@physx@@@8 0000000180038190     EdgeList.obj
 0003:000001b8       ??_R0?AUEdgeTriangleData@Gu@physx@@@8 00000001800381b8     EdgeList.obj
 0003:000001e8       ??_R0?AVQuantizerImpl@@@8  00000001800381e8     Quantizer.obj
 0003:00000210       ??_R0?AVPxVec3@physx@@@8   0000000180038210     Quantizer.obj
 0003:00000238       ??_R0?AUSlab@NodeAllocator@Gu@physx@@@8 0000000180038238     BVHStructureBuilder.obj
 0003:00000270       ??_R0?AUInterval@physx@@@8 0000000180038270     RTreeCooking.obj
 0003:00000298       ??_R0?AURTreeNodeQ@Gu@physx@@@8 0000000180038298     RTreeCooking.obj
 0003:000002c8       ??_R0?AURTreeNodeNQ@physx@@@8 00000001800382c8     RTreeCooking.obj
 0003:000002f0       ??_R0?AUPxBounds3V@physx@@@8 00000001800382f0     RTreeCooking.obj
 0003:00000318       ??_R0?AVEdgeListBuilder@Gu@physx@@@8 0000000180038318     TriangleMeshBuilder.obj
 0003:00000348       ??_R0?AVBV32Tree@Gu@physx@@@8 0000000180038348     TriangleMeshBuilder.obj
 0003:00000370       ??_R0E@8                   0000000180038370     TriangleMeshBuilder.obj
 0003:00000388       ??_R0G@8                   0000000180038388     TriangleMeshBuilder.obj
 0003:000003a0       ??_R0?AUSortedNeighbor@GrbTrimeshCookerHelper@physx@@@8 00000001800383a0     TriangleMeshBuilder.obj
 0003:000003f0       ??_R0?AUSharpEdgeRange@GrbTrimeshCookerHelper@physx@@@8 00000001800383f0     TriangleMeshBuilder.obj
 0003:00000438       ??_R0?AUEdgeTriLookup@physx@@@8 0000000180038438     TriangleMeshBuilder.obj
 0003:00000468       ??_R0?AUEdgeDescData@Gu@physx@@@8 0000000180038468     ConvexHullBuilder.obj
 0003:00000498       ??_R0_N@8                  0000000180038498     ConvexHullBuilder.obj
 0003:000004b0       ??_R0?AVConvexHull@physx@@@8 00000001800384b0     ConvexHullUtils.obj
 0003:000004d8       ??_R0?AVHalfEdge@ConvexHull@physx@@@8 00000001800384d8     ConvexHullUtils.obj
 0003:00000508       ??_R0?AVPxPlane@physx@@@8  0000000180038508     ConvexHullUtils.obj
 0003:00000530       ??_R0?AVBigConvexData@physx@@@8 0000000180038530     ConvexMeshBuilder.obj
 0003:00000560       ??_R0?AUHullTriangleData@physx@@@8 0000000180038560     ConvexPolygonsBuilder.obj
 0003:00000590       ??_R0?AVPair@@@8           0000000180038590     ConvexPolygonsBuilder.obj
 0003:000005b0       ??_R0?AVQuickHull@local@@@8 00000001800385b0     QuickHullConvexHullLib.obj
 0003:000005d8       ??_R0?AUExpandPoint@local@@@8 00000001800385d8     QuickHullConvexHullLib.obj
 0003:00000600       ??_R0PEAUQuickHullFace@local@@@8 0000000180038600     QuickHullConvexHullLib.obj
 0003:00000630       ??_R0PEAUQuickHullHalfEdge@local@@@8 0000000180038630     QuickHullConvexHullLib.obj
 0003:00000660       ??_R0PEAUQuickHullVertex@local@@@8 0000000180038660     QuickHullConvexHullLib.obj
 0003:00000690       ??_R0?AVtype_info@@@8      0000000180038690     MSVCRT:std_type_info_static.obj
 0003:000006b0       __imp_??0RadixSortBuffered@Cm@physx@@QEAA@XZ 00000001800386b0     PhysXCommon_64:PhysXCommon_64.dll
 0003:000006b8       __imp_??1RadixSortBuffered@Cm@physx@@UEAA@XZ 00000001800386b8     PhysXCommon_64:PhysXCommon_64.dll
 0003:000006c0       __imp_?Sort@RadixSortBuffered@Cm@physx@@QEAAAEAV123@PEBIIW4RadixHint@23@@Z 00000001800386c0     PhysXCommon_64:PhysXCommon_64.dll
 0003:000006c8       __imp_?readDword@physx@@YAI_NAEAVPxInputStream@1@@Z 00000001800386c8     PhysXCommon_64:PhysXCommon_64.dll
 0003:000006d0       __imp_?ReadHeader@Gu@physx@@YA_NEEEEAEAIAEA_NAEAVPxInputStream@2@@Z 00000001800386d0     PhysXCommon_64:PhysXCommon_64.dll
 0003:000006d8       __imp_?exportExtraData@ConvexMesh@Gu@physx@@UEAAXAEAVPxSerializationContext@3@@Z 00000001800386d8     PhysXCommon_64:PhysXCommon_64.dll
 0003:000006e0       __imp_?onRefCountZero@ConvexMesh@Gu@physx@@UEAAXXZ 00000001800386e0     PhysXCommon_64:PhysXCommon_64.dll
 0003:000006e8       __imp_?release@ConvexMesh@Gu@physx@@UEAAXXZ 00000001800386e8     PhysXCommon_64:PhysXCommon_64.dll
 0003:000006f0       __imp_?getPolygonData@ConvexMesh@Gu@physx@@UEBA_NIAEAUPxHullPolygon@3@@Z 00000001800386f0     PhysXCommon_64:PhysXCommon_64.dll
 0003:000006f8       __imp_?isGpuCompatible@ConvexMesh@Gu@physx@@UEBA_NXZ 00000001800386f8     PhysXCommon_64:PhysXCommon_64.dll
 0003:00000700       __imp_?getReferenceCount@ConvexMesh@Gu@physx@@UEBAIXZ 0000000180038700     PhysXCommon_64:PhysXCommon_64.dll
 0003:00000708       __imp_?acquireReference@ConvexMesh@Gu@physx@@UEAAXXZ 0000000180038708     PhysXCommon_64:PhysXCommon_64.dll
 0003:00000710       __imp_?getMassInformation@ConvexMesh@Gu@physx@@UEBAXAEAMAEAVPxMat33@3@AEAVPxVec3@3@@Z 0000000180038710     PhysXCommon_64:PhysXCommon_64.dll
 0003:00000718       __imp_?getLocalBounds@ConvexMesh@Gu@physx@@UEBA?AVPxBounds3@3@XZ 0000000180038718     PhysXCommon_64:PhysXCommon_64.dll
 0003:00000720       __imp_??1ConvexMesh@Gu@physx@@UEAA@XZ 0000000180038720     PhysXCommon_64:PhysXCommon_64.dll
 0003:00000728       __imp_??0HeightField@Gu@physx@@QEAA@PEAVGuMeshFactory@2@@Z 0000000180038728     PhysXCommon_64:PhysXCommon_64.dll
 0003:00000730       __imp_?loadFromDesc@HeightField@Gu@physx@@QEAA_NAEBVPxHeightFieldDesc@3@@Z 0000000180038730     PhysXCommon_64:PhysXCommon_64.dll
 0003:00000738       __imp_?computeCellCoordinates@HeightField@Gu@physx@@QEBAIMMAEAM0@Z 0000000180038738     PhysXCommon_64:PhysXCommon_64.dll
 0003:00000740       __imp_?releaseMemory@HeightField@Gu@physx@@QEAAXXZ 0000000180038740     PhysXCommon_64:PhysXCommon_64.dll
 0003:00000748       __imp_??1HeightField@Gu@physx@@UEAA@XZ 0000000180038748     PhysXCommon_64:PhysXCommon_64.dll
 0003:00000750       __imp_??0NodeAllocator@Gu@physx@@QEAA@XZ 0000000180038750     PhysXCommon_64:PhysXCommon_64.dll
 0003:00000758       __imp_??1NodeAllocator@Gu@physx@@QEAA@XZ 0000000180038758     PhysXCommon_64:PhysXCommon_64.dll
 0003:00000760       __imp_?release@NodeAllocator@Gu@physx@@QEAAXXZ 0000000180038760     PhysXCommon_64:PhysXCommon_64.dll
 0003:00000768       __imp_?buildAABBTree@Gu@physx@@YA_NAEAVAABBTreeBuildParams@12@AEAVNodeAllocator@12@AEAUBuildStats@12@AEAPEAI@Z 0000000180038768     PhysXCommon_64:PhysXCommon_64.dll
 0003:00000770       __imp_?writeDword@physx@@YAXI_NAEAVPxOutputStream@1@@Z 0000000180038770     PhysXCommon_64:PhysXCommon_64.dll
 0003:00000778       __imp_?writeFloatBuffer@physx@@YAXPEBMI_NAEAVPxOutputStream@1@@Z 0000000180038778     PhysXCommon_64:PhysXCommon_64.dll
 0003:00000780       __imp_?writeHeader@physx@@YA_NCCCCI_NAEAVPxOutputStream@1@@Z 0000000180038780     PhysXCommon_64:PhysXCommon_64.dll
 0003:00000788       __imp_?writeWord@physx@@YAXG_NAEAVPxOutputStream@1@@Z 0000000180038788     PhysXCommon_64:PhysXCommon_64.dll
 0003:00000790       __imp_?writeFloat@physx@@YAXM_NAEAVPxOutputStream@1@@Z 0000000180038790     PhysXCommon_64:PhysXCommon_64.dll
 0003:00000798       __imp_?computeBoundsAroundVertices@Gu@physx@@YAXAEAVPxBounds3@2@IPEIBVPxVec3@2@@Z 0000000180038798     PhysXCommon_64:PhysXCommon_64.dll
 0003:000007a0       __imp_??0SourceMesh@Gu@physx@@QEAA@XZ 00000001800387a0     PhysXCommon_64:PhysXCommon_64.dll
 0003:000007a8       __imp_??1SourceMesh@Gu@physx@@QEAA@XZ 00000001800387a8     PhysXCommon_64:PhysXCommon_64.dll
 0003:000007b0       __imp_??0BV4Tree@Gu@physx@@QEAA@XZ 00000001800387b0     PhysXCommon_64:PhysXCommon_64.dll
 0003:000007b8       __imp_??1BV4Tree@Gu@physx@@QEAA@XZ 00000001800387b8     PhysXCommon_64:PhysXCommon_64.dll
 0003:000007c0       __imp_??0BV32Tree@Gu@physx@@QEAA@XZ 00000001800387c0     PhysXCommon_64:PhysXCommon_64.dll
 0003:000007c8       __imp_??1BV32Tree@Gu@physx@@QEAA@XZ 00000001800387c8     PhysXCommon_64:PhysXCommon_64.dll
 0003:000007d0       __imp_?writeWordBuffer@physx@@YAXPEBGI_NAEAVPxOutputStream@1@@Z 00000001800387d0     PhysXCommon_64:PhysXCommon_64.dll
 0003:000007d8       __imp_?computeMaxIndex@physx@@YAIPEBII@Z 00000001800387d8     PhysXCommon_64:PhysXCommon_64.dll
 0003:000007e0       __imp_?storeIndices@physx@@YAXIIPEBIAEAVPxOutputStream@1@_N@Z 00000001800387e0     PhysXCommon_64:PhysXCommon_64.dll
 0003:000007e8       __imp_?BuildBV4Ex@Gu@physx@@YA_NAEAVBV4Tree@12@AEAVSourceMesh@12@MI@Z 00000001800387e8     PhysXCommon_64:PhysXCommon_64.dll
 0003:000007f0       __imp_?BuildBV32Ex@Gu@physx@@YA_NAEAVBV32Tree@12@AEAVSourceMesh@12@MI@Z 00000001800387f0     PhysXCommon_64:PhysXCommon_64.dll
 0003:000007f8       __imp_?computeMaxIndex@physx@@YAGPEBGI@Z 00000001800387f8     PhysXCommon_64:PhysXCommon_64.dll
 0003:00000800       __imp_?WriteHeader@Gu@physx@@YA_NEEEEI_NAEAVPxOutputStream@2@@Z 0000000180038800     PhysXCommon_64:PhysXCommon_64.dll
 0003:00000808       __imp_?StoreIndices@Gu@physx@@YAXGIPEBGAEAVPxOutputStream@2@_N@Z 0000000180038808     PhysXCommon_64:PhysXCommon_64.dll
 0003:00000810       __imp_?CreateOffsets@BigConvexData@physx@@IEAAXXZ 0000000180038810     PhysXCommon_64:PhysXCommon_64.dll
 0003:00000818       __imp_?computeOBBPoints@Gu@physx@@YAXPEIAVPxVec3@2@AEBV32@1111@Z 0000000180038818     PhysXCommon_64:PhysXCommon_64.dll
 0003:00000820       __imp_??0BigConvexData@physx@@QEAA@XZ 0000000180038820     PhysXCommon_64:PhysXCommon_64.dll
 0003:00000828       __imp_??1BigConvexData@physx@@QEAA@XZ 0000000180038828     PhysXCommon_64:PhysXCommon_64.dll
 0003:00000830       \177PhysXCommon_64_NULL_THUNK_DATA_DLA 0000000180038830     PhysXCommon_64:PhysXCommon_64.dll
 0003:00000838       __imp_PxGetFoundation      0000000180038838     PhysXFoundation_64:PhysXFoundation_64.dll
 0003:00000840       __imp_?getAllocator@shdfnd@physx@@YAAEAVPxAllocatorCallback@2@XZ 0000000180038840     PhysXFoundation_64:PhysXFoundation_64.dll
 0003:00000848       __imp_?getInstance@Foundation@shdfnd@physx@@SAAEAV123@XZ 0000000180038848     PhysXFoundation_64:PhysXFoundation_64.dll
 0003:00000850       __imp_?error@Foundation@shdfnd@physx@@QEAAXW4Enum@PxErrorCode@3@PEBDH1ZZ 0000000180038850     PhysXFoundation_64:PhysXFoundation_64.dll
 0003:00000858       __imp_?incRefCount@Foundation@shdfnd@physx@@SAXXZ 0000000180038858     PhysXFoundation_64:PhysXFoundation_64.dll
 0003:00000860       __imp_?decRefCount@Foundation@shdfnd@physx@@SAXXZ 0000000180038860     PhysXFoundation_64:PhysXFoundation_64.dll
 0003:00000868       __imp_??0FPUGuard@shdfnd@physx@@QEAA@XZ 0000000180038868     PhysXFoundation_64:PhysXFoundation_64.dll
 0003:00000870       __imp_??1FPUGuard@shdfnd@physx@@QEAA@XZ 0000000180038870     PhysXFoundation_64:PhysXFoundation_64.dll
 0003:00000878       __imp_?allocate@TempAllocator@shdfnd@physx@@QEAAPEAX_KPEBDH@Z 0000000180038878     PhysXFoundation_64:PhysXFoundation_64.dll
 0003:00000880       __imp_?deallocate@TempAllocator@shdfnd@physx@@QEAAXPEAX@Z 0000000180038880     PhysXFoundation_64:PhysXFoundation_64.dll
 0003:00000888       __imp_?PxDiagonalize@physx@@YA?AVPxVec3@1@AEBVPxMat33@1@AEAVPxQuat@1@@Z 0000000180038888     PhysXFoundation_64:PhysXFoundation_64.dll
 0003:00000890       \177PhysXFoundation_64_NULL_THUNK_DATA_DLA 0000000180038890     PhysXFoundation_64:PhysXFoundation_64.dll
 0003:00000c68       __hmod__PhysXCommon_64_dll 0000000180038c68     PhysXCommon_64:PhysXCommon_64.dll
 0003:00000c70       __hmod__PhysXFoundation_64_dll 0000000180038c70     PhysXFoundation_64:PhysXFoundation_64.dll
 0003:00000c78       ?DloadKernel32@@3PEAUHINSTANCE__@@EA 0000000180038c78     Delayimp:delayhlp.obj
 0003:00000c80       ?DloadAcquireSRWLockExclusive@@3P6AXPEA_K@ZEA 0000000180038c80     Delayimp:delayhlp.obj
 0003:00000c88       ?DloadReleaseSRWLockExclusive@@3P6AXPEA_K@ZEA 0000000180038c88     Delayimp:delayhlp.obj
 0003:00000c90       ?DloadSrwLock@@3_KA        0000000180038c90     Delayimp:delayhlp.obj
 0003:00000c98       ?DloadSectionLockCount@@3KA 0000000180038c98     Delayimp:delayhlp.obj
 0003:00000c9c       ?DloadSectionOldProtection@@3KA 0000000180038c9c     Delayimp:delayhlp.obj
 0003:00000ca0       ?DloadSectionCommitPermanent@@3KA 0000000180038ca0     Delayimp:delayhlp.obj
 0003:00000cb0       ?__type_info_root_node@@3U__type_info_node@@A 0000000180038cb0     MSVCRT:tncleanup.obj
 0003:00000cc8       __scrt_current_native_startup_state 0000000180038cc8     MSVCRT:utility.obj
 0003:00000cd0       __scrt_native_startup_lock 0000000180038cd0     MSVCRT:utility.obj
 0003:00000d10       ?_OptionsStorage@?1??__local_stdio_printf_options@@9@4_KA 0000000180038d10     MSVCRT:default_local_stdio_options.obj
 0003:00000d18       ?_OptionsStorage@?1??__local_stdio_scanf_options@@9@4_KA 0000000180038d18     MSVCRT:default_local_stdio_options.obj
 0003:00000d20       __scrt_debugger_hook_flag  0000000180038d20     MSVCRT:utility_desktop.obj
 0003:00000d24       __favor                    0000000180038d24     MSVCRT:_cpu_disp_.obj
 0003:00000d28       __dyn_tls_init_callback    0000000180038d28     <common>

 entry point at        0001:0002bb48

 Static symbols

 0002:fffd2000       $chain$1$??_EPxFoundation@physx@@MEAAPEAXI@Z 0000000180000000     CookingUtils.obj
 0000:fffc1000       .debug$S                   0000000180000000     ucrt:api-ms-win-crt-heap-l1-1-0.dll
 0004:fffc7000       $pdata$1$??_EPxFoundation@physx@@MEAAPEAXI@Z 0000000180000000     CookingUtils.obj
 0000:fffc1000       .debug$S                   0000000180000000     PhysXCooking_64.exp
 0004:fffc7000       $pdata$0$??_EPxFoundation@physx@@MEAAPEAXI@Z 0000000180000000     CookingUtils.obj
 0004:fffc7000       $pdata$0$??_EPxFoundation@physx@@MEAAPEAXI@Z 0000000180000000     ConvexHullBuilder.obj
 0002:fffd2000       $chain$0$??_EPxFoundation@physx@@MEAAPEAXI@Z 0000000180000000     CookingUtils.obj
 0002:fffd2000       $chain$1$??_EPxFoundation@physx@@MEAAPEAXI@Z 0000000180000000     ConvexHullBuilder.obj
 0004:fffc7000       $pdata$??_EPxFoundation@physx@@MEAAPEAXI@Z 0000000180000000     CookingUtils.obj
 0004:fffc7000       $pdata$1$??_EPxFoundation@physx@@MEAAPEAXI@Z 0000000180000000     ConvexHullBuilder.obj
 0002:fffd2000       $unwind$??_EPxFoundation@physx@@MEAAPEAXI@Z 0000000180000000     CookingUtils.obj
 0002:fffd2000       $unwind$??_GRefCountable@Cm@physx@@UEAAPEAXI@Z 0000000180000000     ConvexHullBuilder.obj
 0004:fffc7000       $pdata$?growAndPushBack@?$Array@VPxVec3@physx@@V?$ReflectionAllocator@VPxVec3@physx@@@shdfnd@2@@shdfnd@physx@@IEAAAEAVPxVec3@3@AEBV43@@Z 0000000180000000     RTreeCooking.obj
 0002:fffd2000       $unwind$?growAndPushBack@?$Array@VPxVec3@physx@@V?$ReflectionAllocator@VPxVec3@physx@@@shdfnd@2@@shdfnd@physx@@IEAAAEAVPxVec3@3@AEBV43@@Z 0000000180000000     RTreeCooking.obj
 0004:fffc7000       $pdata$1$?allocate@?$ReflectionAllocator@VPxVec3@physx@@@shdfnd@physx@@QEAAPEAX_KPEBDH@Z 0000000180000000     RTreeCooking.obj
 0002:fffd2000       $chain$1$?allocate@?$ReflectionAllocator@VPxVec3@physx@@@shdfnd@physx@@QEAAPEAX_KPEBDH@Z 0000000180000000     RTreeCooking.obj
 0004:fffc7000       $pdata$0$?allocate@?$ReflectionAllocator@VPxVec3@physx@@@shdfnd@physx@@QEAAPEAX_KPEBDH@Z 0000000180000000     RTreeCooking.obj
 0002:fffd2000       $chain$0$?allocate@?$ReflectionAllocator@VPxVec3@physx@@@shdfnd@physx@@QEAAPEAX_KPEBDH@Z 0000000180000000     RTreeCooking.obj
 0004:fffc7000       $pdata$?allocate@?$ReflectionAllocator@VPxVec3@physx@@@shdfnd@physx@@QEAAPEAX_KPEBDH@Z 0000000180000000     RTreeCooking.obj
 0002:fffd2000       $unwind$?allocate@?$ReflectionAllocator@VPxVec3@physx@@@shdfnd@physx@@QEAAPEAX_KPEBDH@Z 0000000180000000     RTreeCooking.obj
 0004:fffc7000       $pdata$??_GPxFoundation@physx@@MEAAPEAXI@Z 0000000180000000     CookingUtils.obj
 0004:fffc7000       $pdata$??_GRefCountable@Cm@physx@@UEAAPEAXI@Z 0000000180000000     ConvexHullBuilder.obj
 0002:fffd2000       $unwind$??_GPxFoundation@physx@@MEAAPEAXI@Z 0000000180000000     CookingUtils.obj
 0002:fffd2000       $unwind$?allocate@?$ReflectionAllocator@UPxDebugLine@physx@@@shdfnd@physx@@QEAAPEAX_KPEBDH@Z 0000000180000000     ConvexHullBuilder.obj
 0004:fffc7000       $pdata$?allocate@?$ReflectionAllocator@UPxDebugLine@physx@@@shdfnd@physx@@QEAAPEAX_KPEBDH@Z 0000000180000000     ConvexHullBuilder.obj
 0004:fffc7000       $pdata$?isKindOf@PxConvexMesh@physx@@MEBA_NPEBD@Z 0000000180000000     ConvexHullLib.obj
 0002:fffd2000       $unwind$?isKindOf@PxConvexMesh@physx@@MEBA_NPEBD@Z 0000000180000000     ConvexHullLib.obj
 0004:fffc7000       $pdata$??_GPxBase@physx@@MEAAPEAXI@Z 0000000180000000     ConvexHullLib.obj
 0002:fffd2000       $unwind$??_GPxBase@physx@@MEAAPEAXI@Z 0000000180000000     ConvexHullLib.obj
 0004:fffc7000       $pdata$??_I@YAXPEAX_K1P6AX0@Z@Z 0000000180000000     ConvexHullLib.obj
 0002:fffd2000       $unwind$??_I@YAXPEAX_K1P6AX0@Z@Z 0000000180000000     ConvexHullLib.obj
 0004:fffc7000       $pdata$1$??_EPxFoundation@physx@@MEAAPEAXI@Z 0000000180000000     ConvexHullUtils.obj
 0002:fffd2000       $chain$1$??_EPxFoundation@physx@@MEAAPEAXI@Z 0000000180000000     ConvexHullUtils.obj
 0004:fffc7000       $pdata$0$??_EPxFoundation@physx@@MEAAPEAXI@Z 0000000180000000     ConvexHullUtils.obj
 0002:fffd2000       $chain$0$??_EPxFoundation@physx@@MEAAPEAXI@Z 0000000180000000     ConvexHullUtils.obj
 0004:fffc7000       $pdata$??_EPxFoundation@physx@@MEAAPEAXI@Z 0000000180000000     ConvexHullUtils.obj
 0002:fffd2000       $unwind$??_EPxFoundation@physx@@MEAAPEAXI@Z 0000000180000000     ConvexHullUtils.obj
 0004:fffc7000       $pdata$??_GPxFoundation@physx@@MEAAPEAXI@Z 0000000180000000     ConvexHullUtils.obj
 0002:fffd2000       $unwind$??_GPxFoundation@physx@@MEAAPEAXI@Z 0000000180000000     ConvexHullUtils.obj
 0004:fffc7000       $pdata$?isKindOf@PxConvexMesh@physx@@MEBA_NPEBD@Z 0000000180000000     ConvexHullUtils.obj
 0002:fffd2000       $unwind$??_H@YAXPEAX_K1P6APEAX0@Z@Z 0000000180000000     Cooking.obj
 0004:fffc7000       $pdata$??_H@YAXPEAX_K1P6APEAX0@Z@Z 0000000180000000     Cooking.obj
 0002:fffd2000       $unwind$??_I@YAXPEAX_K1P6AX0@Z@Z 0000000180000000     Cooking.obj
 0004:fffc7000       $pdata$??_I@YAXPEAX_K1P6AX0@Z@Z 0000000180000000     Cooking.obj
 0002:fffd2000       $unwind$?isKindOf@PxConvexMesh@physx@@MEBA_NPEBD@Z 0000000180000000     ConvexHullUtils.obj
 0004:fffc7000       $pdata$??_GPxBase@physx@@MEAAPEAXI@Z 0000000180000000     ConvexHullUtils.obj
 0002:fffd2000       $unwind$??_GPxBase@physx@@MEAAPEAXI@Z 0000000180000000     ConvexHullUtils.obj
 0002:fffd2000       $chain$0$?allocate@?$ReflectionAllocator@UPxDebugLine@physx@@@shdfnd@physx@@QEAAPEAX_KPEBDH@Z 0000000180000000     ConvexHullBuilder.obj
 0002:fffd2000       $unwind$??_GPxFoundation@physx@@MEAAPEAXI@Z 0000000180000000     ConvexHullLib.obj
 0004:fffc7000       $pdata$0$?allocate@?$ReflectionAllocator@UPxDebugLine@physx@@@shdfnd@physx@@QEAAPEAX_KPEBDH@Z 0000000180000000     ConvexHullBuilder.obj
 0004:fffc7000       $pdata$??_GPxFoundation@physx@@MEAAPEAXI@Z 0000000180000000     ConvexHullLib.obj
 0002:fffd2000       $chain$1$?allocate@?$ReflectionAllocator@UPxDebugLine@physx@@@shdfnd@physx@@QEAAPEAX_KPEBDH@Z 0000000180000000     ConvexHullBuilder.obj
 0002:fffd2000       $unwind$??_EPxFoundation@physx@@MEAAPEAXI@Z 0000000180000000     ConvexHullLib.obj
 0004:fffc7000       $pdata$1$?allocate@?$ReflectionAllocator@UPxDebugLine@physx@@@shdfnd@physx@@QEAAPEAX_KPEBDH@Z 0000000180000000     ConvexHullBuilder.obj
 0004:fffc7000       $pdata$?isKindOf@PxConvexMesh@physx@@MEBA_NPEBD@Z 0000000180000000     RTreeCooking.obj
 0002:fffd2000       $unwind$?isKindOf@PxConvexMesh@physx@@MEBA_NPEBD@Z 0000000180000000     RTreeCooking.obj
 0004:fffc7000       $pdata$??_GPxBase@physx@@MEAAPEAXI@Z 0000000180000000     RTreeCooking.obj
 0002:fffd2000       $unwind$??_GPxBase@physx@@MEAAPEAXI@Z 0000000180000000     RTreeCooking.obj
 0004:fffc7000       $pdata$1$??_EPxFoundation@physx@@MEAAPEAXI@Z 0000000180000000     RTreeCooking.obj
 0002:fffd2000       $chain$1$??_EPxFoundation@physx@@MEAAPEAXI@Z 0000000180000000     RTreeCooking.obj
 0004:fffc7000       $pdata$0$??_EPxFoundation@physx@@MEAAPEAXI@Z 0000000180000000     RTreeCooking.obj
 0002:fffd2000       $chain$0$??_EPxFoundation@physx@@MEAAPEAXI@Z 0000000180000000     RTreeCooking.obj
 0004:fffc7000       $pdata$??_EPxFoundation@physx@@MEAAPEAXI@Z 0000000180000000     RTreeCooking.obj
 0002:fffd2000       $unwind$??_EPxFoundation@physx@@MEAAPEAXI@Z 0000000180000000     RTreeCooking.obj
 0004:fffc7000       $pdata$??_GPxFoundation@physx@@MEAAPEAXI@Z 0000000180000000     RTreeCooking.obj
 0002:fffd2000       $unwind$??_GPxFoundation@physx@@MEAAPEAXI@Z 0000000180000000     RTreeCooking.obj
 0004:fffc7000       $pdata$??_I@YAXPEAX_K1P6AX0@Z@Z 0000000180000000     RTreeCooking.obj
 0002:fffd2000       $unwind$??_I@YAXPEAX_K1P6AX0@Z@Z 0000000180000000     RTreeCooking.obj
 0004:fffc7000       $pdata$??_H@YAXPEAX_K1P6APEAX0@Z@Z 0000000180000000     RTreeCooking.obj
 0002:fffd2000       $unwind$??_H@YAXPEAX_K1P6APEAX0@Z@Z 0000000180000000     RTreeCooking.obj
 0004:fffc7000       $pdata$??_I@YAXPEAX_K1P6AX0@Z@Z 0000000180000000     ConvexHullUtils.obj
 0002:fffd2000       $unwind$??_I@YAXPEAX_K1P6AX0@Z@Z 0000000180000000     ConvexHullUtils.obj
 0004:fffc7000       $pdata$??_H@YAXPEAX_K1P6APEAX0@Z@Z 0000000180000000     ConvexHullUtils.obj
 0002:fffd2000       $unwind$??_H@YAXPEAX_K1P6APEAX0@Z@Z 0000000180000000     ConvexHullUtils.obj
 0002:fffd2000       $unwind$?copy@?$Array@UPxDebugLine@physx@@V?$ReflectionAllocator@UPxDebugLine@physx@@@shdfnd@2@@shdfnd@physx@@KAXPEAUPxDebugLine@3@0PEBU43@@Z 0000000180000000     ConvexHullBuilder.obj
 0004:fffc7000       $pdata$?copy@?$Array@UPxDebugLine@physx@@V?$ReflectionAllocator@UPxDebugLine@physx@@@shdfnd@2@@shdfnd@physx@@KAXPEAUPxDebugLine@3@0PEBU43@@Z 0000000180000000     ConvexHullBuilder.obj
 0002:fffd2000       $chain$0$?copy@?$Array@UPxDebugLine@physx@@V?$ReflectionAllocator@UPxDebugLine@physx@@@shdfnd@2@@shdfnd@physx@@KAXPEAUPxDebugLine@3@0PEBU43@@Z 0000000180000000     ConvexHullBuilder.obj
 0004:fffc7000       $pdata$0$?copy@?$Array@UPxDebugLine@physx@@V?$ReflectionAllocator@UPxDebugLine@physx@@@shdfnd@2@@shdfnd@physx@@KAXPEAUPxDebugLine@3@0PEBU43@@Z 0000000180000000     ConvexHullBuilder.obj
 0002:fffd2000       $chain$1$?copy@?$Array@UPxDebugLine@physx@@V?$ReflectionAllocator@UPxDebugLine@physx@@@shdfnd@2@@shdfnd@physx@@KAXPEAUPxDebugLine@3@0PEBU43@@Z 0000000180000000     ConvexHullBuilder.obj
 0004:fffc7000       $pdata$1$?copy@?$Array@UPxDebugLine@physx@@V?$ReflectionAllocator@UPxDebugLine@physx@@@shdfnd@2@@shdfnd@physx@@KAXPEAUPxDebugLine@3@0PEBU43@@Z 0000000180000000     ConvexHullBuilder.obj
 0002:fffd2000       $unwind$?recreate@?$Array@UPxDebugLine@physx@@V?$ReflectionAllocator@UPxDebugLine@physx@@@shdfnd@2@@shdfnd@physx@@IEAAXI@Z 0000000180000000     ConvexHullBuilder.obj
 0004:fffc7000       $pdata$?recreate@?$Array@UPxDebugLine@physx@@V?$ReflectionAllocator@UPxDebugLine@physx@@@shdfnd@2@@shdfnd@physx@@IEAAXI@Z 0000000180000000     ConvexHullBuilder.obj
 0002:fffd2000       $unwind$?reserveSegments@RenderOutput@Cm@physx@@QEAAPEAUPxDebugLine@3@I@Z 0000000180000000     ConvexHullBuilder.obj
 0004:fffc7000       $pdata$?reserveSegments@RenderOutput@Cm@physx@@QEAAPEAUPxDebugLine@3@I@Z 0000000180000000     ConvexHullBuilder.obj
 0002:fffd2000       $unwind$?outputSegment@RenderOutput@Cm@physx@@QEAAXAEBVPxVec3@3@0@Z 0000000180000000     ConvexHullBuilder.obj
 0004:fffc7000       $pdata$??_EPxFoundation@physx@@MEAAPEAXI@Z 0000000180000000     ConvexHullLib.obj
 0004:fffc7000       $pdata$?outputSegment@RenderOutput@Cm@physx@@QEAAXAEBVPxVec3@3@0@Z 0000000180000000     ConvexHullBuilder.obj
 0002:fffd2000       $chain$0$??_EPxFoundation@physx@@MEAAPEAXI@Z 0000000180000000     ConvexHullLib.obj
 0002:fffd2000       $unwind$??_GPxFoundation@physx@@MEAAPEAXI@Z 0000000180000000     Cooking.obj
 0004:fffc7000       $pdata$0$??_EPxFoundation@physx@@MEAAPEAXI@Z 0000000180000000     ConvexHullLib.obj
 0004:fffc7000       $pdata$??_GPxFoundation@physx@@MEAAPEAXI@Z 0000000180000000     Cooking.obj
 0002:fffd2000       $chain$1$??_EPxFoundation@physx@@MEAAPEAXI@Z 0000000180000000     ConvexHullLib.obj
 0002:fffd2000       $unwind$??_EPxFoundation@physx@@MEAAPEAXI@Z 0000000180000000     Cooking.obj
 0004:fffc7000       $pdata$1$??_EPxFoundation@physx@@MEAAPEAXI@Z 0000000180000000     MeshBuilder.obj
 0002:fffd2000       $chain$1$??_EPxFoundation@physx@@MEAAPEAXI@Z 0000000180000000     MeshBuilder.obj
 0004:fffc7000       $pdata$0$??_EPxFoundation@physx@@MEAAPEAXI@Z 0000000180000000     MeshBuilder.obj
 0002:fffd2000       $chain$0$??_EPxFoundation@physx@@MEAAPEAXI@Z 0000000180000000     MeshBuilder.obj
 0004:fffc7000       $pdata$??_EPxFoundation@physx@@MEAAPEAXI@Z 0000000180000000     MeshBuilder.obj
 0002:fffd2000       $unwind$??_EPxFoundation@physx@@MEAAPEAXI@Z 0000000180000000     MeshBuilder.obj
 0004:fffc7000       $pdata$??_GPxFoundation@physx@@MEAAPEAXI@Z 0000000180000000     MeshBuilder.obj
 0002:fffd2000       $unwind$??_GPxFoundation@physx@@MEAAPEAXI@Z 0000000180000000     MeshBuilder.obj
 0004:fffc7000       $pdata$??_I@YAXPEAX_K1P6AX0@Z@Z 0000000180000000     MeshBuilder.obj
 0002:fffd2000       $unwind$??_I@YAXPEAX_K1P6AX0@Z@Z 0000000180000000     MeshBuilder.obj
 0004:fffc7000       $pdata$??_H@YAXPEAX_K1P6APEAX0@Z@Z 0000000180000000     MeshBuilder.obj
 0002:fffd2000       $unwind$??_H@YAXPEAX_K1P6APEAX0@Z@Z 0000000180000000     MeshBuilder.obj
 0002:fffd2000       $unwind$??_EConvexMesh@Gu@physx@@UEAAPEAXI@Z 0000000180000000     ConvexHullBuilder.obj
 0004:fffc7000       $pdata$??_EConvexMesh@Gu@physx@@UEAAPEAXI@Z 0000000180000000     ConvexHullBuilder.obj
 0002:fffd2000       $chain$2$??_EConvexMesh@Gu@physx@@UEAAPEAXI@Z 0000000180000000     ConvexHullBuilder.obj
 0004:fffc7000       $pdata$2$??_EConvexMesh@Gu@physx@@UEAAPEAXI@Z 0000000180000000     ConvexHullBuilder.obj
 0002:fffd2000       $chain$3$??_EConvexMesh@Gu@physx@@UEAAPEAXI@Z 0000000180000000     ConvexHullBuilder.obj
 0004:fffc7000       $pdata$3$??_EConvexMesh@Gu@physx@@UEAAPEAXI@Z 0000000180000000     ConvexHullBuilder.obj
 0002:fffd2000       $chain$5$??_EConvexMesh@Gu@physx@@UEAAPEAXI@Z 0000000180000000     ConvexHullBuilder.obj
 0004:fffc7000       $pdata$5$??_EConvexMesh@Gu@physx@@UEAAPEAXI@Z 0000000180000000     ConvexHullBuilder.obj
 0002:fffd2000       $chain$6$??_EConvexMesh@Gu@physx@@UEAAPEAXI@Z 0000000180000000     ConvexHullBuilder.obj
 0004:fffc7000       $pdata$6$??_EConvexMesh@Gu@physx@@UEAAPEAXI@Z 0000000180000000     ConvexHullBuilder.obj
 0004:fffc7000       $pdata$6$??_EConvexMesh@Gu@physx@@UEAAPEAXI@Z 0000000180000000     ConvexMeshBuilder.obj
 0002:fffd2000       $chain$6$??_EConvexMesh@Gu@physx@@UEAAPEAXI@Z 0000000180000000     ConvexMeshBuilder.obj
 0004:fffc7000       $pdata$5$??_EConvexMesh@Gu@physx@@UEAAPEAXI@Z 0000000180000000     ConvexMeshBuilder.obj
 0002:fffd2000       $chain$5$??_EConvexMesh@Gu@physx@@UEAAPEAXI@Z 0000000180000000     ConvexMeshBuilder.obj
 0004:fffc7000       $pdata$1$??_EPxFoundation@physx@@MEAAPEAXI@Z 0000000180000000     ConvexHullLib.obj
 0004:fffc7000       $pdata$??_EPxFoundation@physx@@MEAAPEAXI@Z 0000000180000000     Cooking.obj
 0004:fffc7000       $pdata$3$??_EConvexMesh@Gu@physx@@UEAAPEAXI@Z 0000000180000000     ConvexMeshBuilder.obj
 0002:fffd2000       $chain$0$??_EPxFoundation@physx@@MEAAPEAXI@Z 0000000180000000     Cooking.obj
 0004:fffc7000       $pdata$??_I@YAXPEAX_K1P6AX0@Z@Z 0000000180000000     CookingUtils.obj
 0004:fffc7000       $pdata$0$??_EPxFoundation@physx@@MEAAPEAXI@Z 0000000180000000     Cooking.obj
 0002:fffd2000       $unwind$??_I@YAXPEAX_K1P6AX0@Z@Z 0000000180000000     CookingUtils.obj
 0002:fffd2000       $chain$1$??_EPxFoundation@physx@@MEAAPEAXI@Z 0000000180000000     Cooking.obj
 0002:fffd2000       $chain$3$??_EConvexMesh@Gu@physx@@UEAAPEAXI@Z 0000000180000000     ConvexMeshBuilder.obj
 0004:fffc7000       $pdata$1$??_EPxFoundation@physx@@MEAAPEAXI@Z 0000000180000000     Cooking.obj
 0004:fffc7000       $pdata$2$??_EConvexMesh@Gu@physx@@UEAAPEAXI@Z 0000000180000000     ConvexMeshBuilder.obj
 0002:fffd2000       $chain$2$??_EConvexMesh@Gu@physx@@UEAAPEAXI@Z 0000000180000000     ConvexMeshBuilder.obj
 0004:fffc7000       $pdata$??_EConvexMesh@Gu@physx@@UEAAPEAXI@Z 0000000180000000     ConvexMeshBuilder.obj
 0002:fffd2000       $unwind$??_EConvexMesh@Gu@physx@@UEAAPEAXI@Z 0000000180000000     ConvexMeshBuilder.obj
 0004:fffc7000       $pdata$?outputSegment@RenderOutput@Cm@physx@@QEAAXAEBVPxVec3@3@0@Z 0000000180000000     ConvexMeshBuilder.obj
 0000:fffc1000       .debug$S                   0000000180000000     ucrt:api-ms-win-crt-math-l1-1-0.dll
 0002:fffd2000       $unwind$?outputSegment@RenderOutput@Cm@physx@@QEAAXAEBVPxVec3@3@0@Z 0000000180000000     ConvexMeshBuilder.obj
 0004:fffc7000       $pdata$?reserveSegments@RenderOutput@Cm@physx@@QEAAPEAUPxDebugLine@3@I@Z 0000000180000000     ConvexMeshBuilder.obj
 0002:fffd2000       $unwind$?reserveSegments@RenderOutput@Cm@physx@@QEAAPEAUPxDebugLine@3@I@Z 0000000180000000     ConvexMeshBuilder.obj
 0004:fffc7000       $pdata$?recreate@?$Array@UPxDebugLine@physx@@V?$ReflectionAllocator@UPxDebugLine@physx@@@shdfnd@2@@shdfnd@physx@@IEAAXI@Z 0000000180000000     ConvexMeshBuilder.obj
 0002:fffd2000       $unwind$?recreate@?$Array@UPxDebugLine@physx@@V?$ReflectionAllocator@UPxDebugLine@physx@@@shdfnd@2@@shdfnd@physx@@IEAAXI@Z 0000000180000000     ConvexMeshBuilder.obj
 0004:fffc7000       $pdata$1$?copy@?$Array@UPxDebugLine@physx@@V?$ReflectionAllocator@UPxDebugLine@physx@@@shdfnd@2@@shdfnd@physx@@KAXPEAUPxDebugLine@3@0PEBU43@@Z 0000000180000000     ConvexMeshBuilder.obj
 0002:fffd2000       $chain$1$?copy@?$Array@UPxDebugLine@physx@@V?$ReflectionAllocator@UPxDebugLine@physx@@@shdfnd@2@@shdfnd@physx@@KAXPEAUPxDebugLine@3@0PEBU43@@Z 0000000180000000     ConvexMeshBuilder.obj
 0004:fffc7000       $pdata$0$?copy@?$Array@UPxDebugLine@physx@@V?$ReflectionAllocator@UPxDebugLine@physx@@@shdfnd@2@@shdfnd@physx@@KAXPEAUPxDebugLine@3@0PEBU43@@Z 0000000180000000     ConvexMeshBuilder.obj
 0002:fffd2000       $chain$0$?copy@?$Array@UPxDebugLine@physx@@V?$ReflectionAllocator@UPxDebugLine@physx@@@shdfnd@2@@shdfnd@physx@@KAXPEAUPxDebugLine@3@0PEBU43@@Z 0000000180000000     ConvexMeshBuilder.obj
 0004:fffc7000       $pdata$?copy@?$Array@UPxDebugLine@physx@@V?$ReflectionAllocator@UPxDebugLine@physx@@@shdfnd@2@@shdfnd@physx@@KAXPEAUPxDebugLine@3@0PEBU43@@Z 0000000180000000     ConvexMeshBuilder.obj
 0002:fffd2000       $unwind$?copy@?$Array@UPxDebugLine@physx@@V?$ReflectionAllocator@UPxDebugLine@physx@@@shdfnd@2@@shdfnd@physx@@KAXPEAUPxDebugLine@3@0PEBU43@@Z 0000000180000000     ConvexMeshBuilder.obj
 0004:fffc7000       $pdata$1$?allocate@?$ReflectionAllocator@UPxDebugLine@physx@@@shdfnd@physx@@QEAAPEAX_KPEBDH@Z 0000000180000000     ConvexMeshBuilder.obj
 0002:fffd2000       $chain$1$?allocate@?$ReflectionAllocator@UPxDebugLine@physx@@@shdfnd@physx@@QEAAPEAX_KPEBDH@Z 0000000180000000     ConvexMeshBuilder.obj
 0004:fffc7000       $pdata$0$?allocate@?$ReflectionAllocator@UPxDebugLine@physx@@@shdfnd@physx@@QEAAPEAX_KPEBDH@Z 0000000180000000     ConvexMeshBuilder.obj
 0002:fffd2000       $chain$0$?allocate@?$ReflectionAllocator@UPxDebugLine@physx@@@shdfnd@physx@@QEAAPEAX_KPEBDH@Z 0000000180000000     ConvexMeshBuilder.obj
 0002:fffd2000       $unwind$??_I@YAXPEAX_K1P6AX0@Z@Z 0000000180000000     VolumeIntegration.obj
 0004:fffc7000       $pdata$??_I@YAXPEAX_K1P6AX0@Z@Z 0000000180000000     VolumeIntegration.obj
 0002:fffd2000       $unwind$??_GPxBase@physx@@MEAAPEAXI@Z 0000000180000000     VolumeIntegration.obj
 0004:fffc7000       $pdata$??_GPxBase@physx@@MEAAPEAXI@Z 0000000180000000     VolumeIntegration.obj
 0002:fffd2000       $unwind$?isKindOf@PxConvexMesh@physx@@MEBA_NPEBD@Z 0000000180000000     VolumeIntegration.obj
 0004:fffc7000       $pdata$?isKindOf@PxConvexMesh@physx@@MEBA_NPEBD@Z 0000000180000000     VolumeIntegration.obj
 0004:fffc7000       $pdata$?allocate@?$ReflectionAllocator@UPxDebugLine@physx@@@shdfnd@physx@@QEAAPEAX_KPEBDH@Z 0000000180000000     ConvexMeshBuilder.obj
 0000:fffc1000       .debug$S                   0000000180000000     ucrt:api-ms-win-crt-math-l1-1-0.dll
 0002:fffd2000       $unwind$?allocate@?$ReflectionAllocator@UPxDebugLine@physx@@@shdfnd@physx@@QEAAPEAX_KPEBDH@Z 0000000180000000     ConvexMeshBuilder.obj
 0000:fffc1000       .debug$S                   0000000180000000     ucrt:api-ms-win-crt-math-l1-1-0.dll
 0004:fffc7000       $pdata$??_GRefCountable@Cm@physx@@UEAAPEAXI@Z 0000000180000000     ConvexMeshBuilder.obj
 0000:fffc1000       .debug$S                   0000000180000000     ucrt:api-ms-win-crt-math-l1-1-0.dll
 0002:fffd2000       $unwind$??_GPxFoundation@physx@@MEAAPEAXI@Z 0000000180000000     VolumeIntegration.obj
 0004:fffc7000       $pdata$??_GPxFoundation@physx@@MEAAPEAXI@Z 0000000180000000     VolumeIntegration.obj
 0002:fffd2000       $unwind$??_EPxFoundation@physx@@MEAAPEAXI@Z 0000000180000000     VolumeIntegration.obj
 0004:fffc7000       $pdata$??_EPxFoundation@physx@@MEAAPEAXI@Z 0000000180000000     VolumeIntegration.obj
 0002:fffd2000       $chain$0$??_EPxFoundation@physx@@MEAAPEAXI@Z 0000000180000000     VolumeIntegration.obj
 0004:fffc7000       $pdata$0$??_EPxFoundation@physx@@MEAAPEAXI@Z 0000000180000000     VolumeIntegration.obj
 0002:fffd2000       $chain$1$??_EPxFoundation@physx@@MEAAPEAXI@Z 0000000180000000     VolumeIntegration.obj
 0004:fffc7000       $pdata$1$??_EPxFoundation@physx@@MEAAPEAXI@Z 0000000180000000     VolumeIntegration.obj
 0002:fffd2000       $unwind$??_GRefCountable@Cm@physx@@UEAAPEAXI@Z 0000000180000000     ConvexMeshBuilder.obj
 0000:fffc1000       .debug$S                   0000000180000000     ucrt:api-ms-win-crt-math-l1-1-0.dll
 0004:fffc7000       $pdata$1$??_EPxFoundation@physx@@MEAAPEAXI@Z 0000000180000000     ConvexMeshBuilder.obj
 0000:fffc1000       .debug$S                   0000000180000000     ucrt:api-ms-win-crt-runtime-l1-1-0.dll
 0002:fffd2000       $chain$1$??_EPxFoundation@physx@@MEAAPEAXI@Z 0000000180000000     ConvexMeshBuilder.obj
 0000:fffc1000       .debug$S                   0000000180000000     ucrt:api-ms-win-crt-runtime-l1-1-0.dll
 0004:fffc7000       $pdata$0$??_EPxFoundation@physx@@MEAAPEAXI@Z 0000000180000000     ConvexMeshBuilder.obj
 0000:fffc1000       .debug$S                   0000000180000000     ucrt:api-ms-win-crt-runtime-l1-1-0.dll
 0002:fffd2000       $chain$0$??_EPxFoundation@physx@@MEAAPEAXI@Z 0000000180000000     ConvexMeshBuilder.obj
 0000:fffc1000       .debug$S                   0000000180000000     ucrt:api-ms-win-crt-runtime-l1-1-0.dll
 0004:fffc7000       $pdata$??_EPxFoundation@physx@@MEAAPEAXI@Z 0000000180000000     ConvexMeshBuilder.obj
 0000:fffc1000       .debug$S                   0000000180000000     ucrt:api-ms-win-crt-runtime-l1-1-0.dll
 0002:fffd2000       $unwind$??_EPxFoundation@physx@@MEAAPEAXI@Z 0000000180000000     ConvexMeshBuilder.obj
 0000:fffc1000       .debug$S                   0000000180000000     ucrt:api-ms-win-crt-runtime-l1-1-0.dll
 0004:fffc7000       $pdata$??_GPxFoundation@physx@@MEAAPEAXI@Z 0000000180000000     ConvexMeshBuilder.obj
 0000:fffc1000       .debug$S                   0000000180000000     ucrt:api-ms-win-crt-runtime-l1-1-0.dll
 0002:fffd2000       $unwind$??_I@YAXPEAX_K1P6AX0@Z@Z 0000000180000000     HeightFieldCooking.obj
 0000:fffc1000       .debug$S                   0000000180000000     ucrt:api-ms-win-crt-runtime-l1-1-0.dll
 0004:fffc7000       $pdata$??_I@YAXPEAX_K1P6AX0@Z@Z 0000000180000000     HeightFieldCooking.obj
 0000:fffc1000       .debug$S                   0000000180000000     ucrt:api-ms-win-crt-runtime-l1-1-0.dll
 0002:fffd2000       $unwind$??_GPxBase@physx@@MEAAPEAXI@Z 0000000180000000     HeightFieldCooking.obj
 0000:fffc1000       .debug$S                   0000000180000000     ucrt:api-ms-win-crt-runtime-l1-1-0.dll
 0004:fffc7000       $pdata$??_GPxBase@physx@@MEAAPEAXI@Z 0000000180000000     HeightFieldCooking.obj
 0000:fffc1000       .debug$S                   0000000180000000     ucrt:api-ms-win-crt-runtime-l1-1-0.dll
 0002:fffd2000       $unwind$?isKindOf@PxHeightField@physx@@MEBA_NPEBD@Z 0000000180000000     HeightFieldCooking.obj
 0000:fffc1000       .debug$S                   0000000180000000     ucrt:api-ms-win-crt-runtime-l1-1-0.dll
 0004:fffc7000       $pdata$?isKindOf@PxHeightField@physx@@MEBA_NPEBD@Z 0000000180000000     HeightFieldCooking.obj
 0002:fffd2000       $unwind$??_GPxFoundation@physx@@MEAAPEAXI@Z 0000000180000000     HeightFieldCooking.obj
 0004:fffc7000       $pdata$??_GPxFoundation@physx@@MEAAPEAXI@Z 0000000180000000     HeightFieldCooking.obj
 0000:fffc1000       .debug$S                   0000000180000000     ucrt:api-ms-win-crt-string-l1-1-0.dll
 0002:fffd2000       $unwind$??_EPxFoundation@physx@@MEAAPEAXI@Z 0000000180000000     HeightFieldCooking.obj
 0000:fffc1000       .debug$S                   0000000180000000     vcruntime:VCRUNTIME140.dll
 0000:fffc1000       .debug$S                   0000000180000000     vcruntime:VCRUNTIME140.dll
 0000:fffc1000       .debug$S                   0000000180000000     vcruntime:VCRUNTIME140.dll
 0000:fffc1000       .debug$S                   0000000180000000     vcruntime:VCRUNTIME140.dll
 0000:fffc1000       .debug$S                   0000000180000000     vcruntime:VCRUNTIME140.dll
 0002:fffd2000       $unwind$??_GPxFoundation@physx@@MEAAPEAXI@Z 0000000180000000     ConvexMeshBuilder.obj
 0004:fffc7000       $pdata$1$??_EPxConvexMesh@physx@@MEAAPEAXI@Z 0000000180000000     ConvexMeshBuilder.obj
 0002:fffd2000       $chain$1$??_EPxConvexMesh@physx@@MEAAPEAXI@Z 0000000180000000     ConvexMeshBuilder.obj
 0004:fffc7000       $pdata$0$??_EPxConvexMesh@physx@@MEAAPEAXI@Z 0000000180000000     ConvexMeshBuilder.obj
 0002:fffd2000       $chain$0$??_EPxConvexMesh@physx@@MEAAPEAXI@Z 0000000180000000     ConvexMeshBuilder.obj
 0004:fffc7000       $pdata$??_EPxConvexMesh@physx@@MEAAPEAXI@Z 0000000180000000     ConvexMeshBuilder.obj
 0002:fffd2000       $unwind$??_EPxConvexMesh@physx@@MEAAPEAXI@Z 0000000180000000     ConvexMeshBuilder.obj
 0002:fffd2000       $unwind$??_H@YAXPEAX_K1P6APEAX0@Z@Z 0000000180000000     QuickHullConvexHullLib.obj
 0004:fffc7000       $pdata$??_H@YAXPEAX_K1P6APEAX0@Z@Z 0000000180000000     QuickHullConvexHullLib.obj
 0004:fffc7000       $pdata$??_EPxFoundation@physx@@MEAAPEAXI@Z 0000000180000000     HeightFieldCooking.obj
 0000:fffc1000       .debug$S                   0000000180000000     vcruntime:VCRUNTIME140.dll
 0002:fffd2000       $chain$0$??_EPxFoundation@physx@@MEAAPEAXI@Z 0000000180000000     HeightFieldCooking.obj
 0000:fffc1000       .debug$S                   0000000180000000     vcruntime:VCRUNTIME140.dll
 0004:fffc7000       $pdata$0$??_EPxFoundation@physx@@MEAAPEAXI@Z 0000000180000000     HeightFieldCooking.obj
 0002:fffd2000       $chain$1$??_EPxFoundation@physx@@MEAAPEAXI@Z 0000000180000000     HeightFieldCooking.obj
 0002:fffd2000       $unwind$??_I@YAXPEAX_K1P6AX0@Z@Z 0000000180000000     QuickHullConvexHullLib.obj
 0004:fffc7000       $pdata$??_I@YAXPEAX_K1P6AX0@Z@Z 0000000180000000     QuickHullConvexHullLib.obj
 0002:fffd2000       $unwind$??_GPxBase@physx@@MEAAPEAXI@Z 0000000180000000     QuickHullConvexHullLib.obj
 0004:fffc7000       $pdata$??_GPxBase@physx@@MEAAPEAXI@Z 0000000180000000     QuickHullConvexHullLib.obj
 0002:fffd2000       $unwind$?isKindOf@PxConvexMesh@physx@@MEBA_NPEBD@Z 0000000180000000     QuickHullConvexHullLib.obj
 0004:fffc7000       $pdata$?isKindOf@PxConvexMesh@physx@@MEBA_NPEBD@Z 0000000180000000     QuickHullConvexHullLib.obj
 0002:fffd2000       $unwind$?getInverse@PxMat33@physx@@QEBA?BV12@XZ 0000000180000000     QuickHullConvexHullLib.obj
 0004:fffc7000       $pdata$?getInverse@PxMat33@physx@@QEBA?BV12@XZ 0000000180000000     QuickHullConvexHullLib.obj
 0002:fffd2000       $chain$5$?getInverse@PxMat33@physx@@QEBA?BV12@XZ 0000000180000000     QuickHullConvexHullLib.obj
 0004:fffc7000       $pdata$5$?getInverse@PxMat33@physx@@QEBA?BV12@XZ 0000000180000000     QuickHullConvexHullLib.obj
 0002:fffd2000       $chain$6$?getInverse@PxMat33@physx@@QEBA?BV12@XZ 0000000180000000     QuickHullConvexHullLib.obj
 0004:fffc7000       $pdata$6$?getInverse@PxMat33@physx@@QEBA?BV12@XZ 0000000180000000     QuickHullConvexHullLib.obj
 0002:fffd2000       $unwind$??_GConvexHullLib@physx@@UEAAPEAXI@Z 0000000180000000     QuickHullConvexHullLib.obj
 0004:fffc7000       $pdata$??_GConvexHullLib@physx@@UEAAPEAXI@Z 0000000180000000     QuickHullConvexHullLib.obj
 0002:fffd2000       $unwind$??_GPxFoundation@physx@@MEAAPEAXI@Z 0000000180000000     QuickHullConvexHullLib.obj
 0004:fffc7000       $pdata$??_GPxFoundation@physx@@MEAAPEAXI@Z 0000000180000000     QuickHullConvexHullLib.obj
 0002:fffd2000       $unwind$??_EPxFoundation@physx@@MEAAPEAXI@Z 0000000180000000     QuickHullConvexHullLib.obj
 0004:fffc7000       $pdata$??_EPxFoundation@physx@@MEAAPEAXI@Z 0000000180000000     QuickHullConvexHullLib.obj
 0002:fffd2000       $chain$0$??_EPxFoundation@physx@@MEAAPEAXI@Z 0000000180000000     QuickHullConvexHullLib.obj
 0004:fffc7000       $pdata$0$??_EPxFoundation@physx@@MEAAPEAXI@Z 0000000180000000     QuickHullConvexHullLib.obj
 0002:fffd2000       $chain$1$??_EPxFoundation@physx@@MEAAPEAXI@Z 0000000180000000     QuickHullConvexHullLib.obj
 0004:fffc7000       $pdata$1$??_EPxFoundation@physx@@MEAAPEAXI@Z 0000000180000000     QuickHullConvexHullLib.obj
 0004:fffc7000       $pdata$1$??_EPxFoundation@physx@@MEAAPEAXI@Z 0000000180000000     HeightFieldCooking.obj
 0002:fffd2000       $unwind$?getHeight@HeightField@Gu@physx@@UEBAMMM@Z 0000000180000000     HeightFieldCooking.obj
 0004:fffc7000       $pdata$?getHeight@HeightField@Gu@physx@@UEBAMMM@Z 0000000180000000     HeightFieldCooking.obj
 0002:fffd2000       $unwind$?getTriangleNormal@HeightField@Gu@physx@@UEBA?AVPxVec3@3@I@Z 0000000180000000     HeightFieldCooking.obj
 0004:fffc7000       $pdata$?getTriangleNormal@HeightField@Gu@physx@@UEBA?AVPxVec3@3@I@Z 0000000180000000     HeightFieldCooking.obj
 0002:fffd2000       $unwind$?getHeightInternal2@HeightField@Gu@physx@@QEBAMIMM@Z 0000000180000000     HeightFieldCooking.obj
 0004:fffc7000       $pdata$?getHeightInternal2@HeightField@Gu@physx@@QEBAMIMM@Z 0000000180000000     HeightFieldCooking.obj
 0002:fffd2000       $chain$0$?getHeightInternal2@HeightField@Gu@physx@@QEBAMIMM@Z 0000000180000000     HeightFieldCooking.obj
 0004:fffc7000       $pdata$0$?getHeightInternal2@HeightField@Gu@physx@@QEBAMIMM@Z 0000000180000000     HeightFieldCooking.obj
 0002:fffd2000       $chain$2$?getHeightInternal2@HeightField@Gu@physx@@QEBAMIMM@Z 0000000180000000     HeightFieldCooking.obj
 0004:fffc7000       $pdata$2$?getHeightInternal2@HeightField@Gu@physx@@QEBAMIMM@Z 0000000180000000     HeightFieldCooking.obj
 0002:fffd2000       $unwind$?getTriangleNormalInternal@HeightField@Gu@physx@@QEBA?AVPxVec3@3@I@Z 0000000180000000     HeightFieldCooking.obj
 0004:fffc7000       $pdata$?getTriangleNormalInternal@HeightField@Gu@physx@@QEBA?AVPxVec3@3@I@Z 0000000180000000     HeightFieldCooking.obj
 0004:fffc7000       $pdata$?isKindOf@PxConvexMesh@physx@@MEBA_NPEBD@Z 0000000180000000     ConvexMeshBuilder.obj
 0002:fffd2000       $unwind$?isKindOf@PxConvexMesh@physx@@MEBA_NPEBD@Z 0000000180000000     ConvexMeshBuilder.obj
 0004:fffc7000       $pdata$??_GPxBase@physx@@MEAAPEAXI@Z 0000000180000000     ConvexMeshBuilder.obj
 0002:fffd2000       $unwind$??_GPxBase@physx@@MEAAPEAXI@Z 0000000180000000     ConvexMeshBuilder.obj
 0004:fffc7000       $pdata$??_I@YAXPEAX_K1P6AX0@Z@Z 0000000180000000     ConvexMeshBuilder.obj
 0002:fffd2000       $unwind$??_I@YAXPEAX_K1P6AX0@Z@Z 0000000180000000     ConvexMeshBuilder.obj
 0000:fffc1000       .debug$S                   0000000180000000     PhysXCommon_64:PhysXCommon_64.dll
 0000:fffc1000       .debug$S                   0000000180000000     PhysXCommon_64:PhysXCommon_64.dll
 0000:fffc1000       .debug$S                   0000000180000000     PhysXCommon_64:PhysXCommon_64.dll
 0000:fffc1000       .debug$S                   0000000180000000     PhysXCommon_64:PhysXCommon_64.dll
 0000:fffc1000       .debug$S                   0000000180000000     PhysXCommon_64:PhysXCommon_64.dll
 0002:fffd2000       $unwind$??_I@YAXPEAX_K1P6AX0@Z@Z 0000000180000000     BVHStructureBuilder.obj
 0004:fffc7000       $pdata$??_I@YAXPEAX_K1P6AX0@Z@Z 0000000180000000     BVHStructureBuilder.obj
 0002:fffd2000       $unwind$??_GPxBase@physx@@MEAAPEAXI@Z 0000000180000000     BVHStructureBuilder.obj
 0004:fffc7000       $pdata$??_GPxBase@physx@@MEAAPEAXI@Z 0000000180000000     BVHStructureBuilder.obj
 0002:fffd2000       $unwind$?isKindOf@PxConvexMesh@physx@@MEBA_NPEBD@Z 0000000180000000     BVHStructureBuilder.obj
 0004:fffc7000       $pdata$?isKindOf@PxConvexMesh@physx@@MEBA_NPEBD@Z 0000000180000000     BVHStructureBuilder.obj
 0002:fffd2000       $unwind$??_GPxFoundation@physx@@MEAAPEAXI@Z 0000000180000000     BVHStructureBuilder.obj
 0004:fffc7000       $pdata$??_GPxFoundation@physx@@MEAAPEAXI@Z 0000000180000000     BVHStructureBuilder.obj
 0002:fffd2000       $unwind$??_EPxFoundation@physx@@MEAAPEAXI@Z 0000000180000000     BVHStructureBuilder.obj
 0004:fffc7000       $pdata$??_EPxFoundation@physx@@MEAAPEAXI@Z 0000000180000000     BVHStructureBuilder.obj
 0002:fffd2000       $chain$0$??_EPxFoundation@physx@@MEAAPEAXI@Z 0000000180000000     BVHStructureBuilder.obj
 0004:fffc7000       $pdata$0$??_EPxFoundation@physx@@MEAAPEAXI@Z 0000000180000000     BVHStructureBuilder.obj
 0002:fffd2000       $chain$1$??_EPxFoundation@physx@@MEAAPEAXI@Z 0000000180000000     BVHStructureBuilder.obj
 0004:fffc7000       $pdata$1$??_EPxFoundation@physx@@MEAAPEAXI@Z 0000000180000000     BVHStructureBuilder.obj
 0002:fffd2000       $unwind$?isKindOf@PxHeightField@physx@@MEBA_NPEBD@Z 0000000180000000     BVHStructureBuilder.obj
 0004:fffc7000       $pdata$?isKindOf@PxHeightField@physx@@MEBA_NPEBD@Z 0000000180000000     BVHStructureBuilder.obj
 0000:fffc1000       .debug$S                   0000000180000000     PhysXCommon_64:PhysXCommon_64.dll
 0004:fffc7000       $pdata$1$??_EPxFoundation@physx@@MEAAPEAXI@Z 0000000180000000     EdgeList.obj
 0002:fffd2000       $unwind$?allocate@?$ReflectionAllocator@VPxPlane@physx@@@shdfnd@physx@@QEAAPEAX_KPEBDH@Z 0000000180000000     QuickHullConvexHullLib.obj
 0004:fffc7000       $pdata$?allocate@?$ReflectionAllocator@VPxPlane@physx@@@shdfnd@physx@@QEAAPEAX_KPEBDH@Z 0000000180000000     QuickHullConvexHullLib.obj
 0002:fffd2000       $chain$0$?allocate@?$ReflectionAllocator@VPxPlane@physx@@@shdfnd@physx@@QEAAPEAX_KPEBDH@Z 0000000180000000     QuickHullConvexHullLib.obj
 0004:fffc7000       $pdata$0$?allocate@?$ReflectionAllocator@VPxPlane@physx@@@shdfnd@physx@@QEAAPEAX_KPEBDH@Z 0000000180000000     QuickHullConvexHullLib.obj
 0002:fffd2000       $chain$1$?allocate@?$ReflectionAllocator@VPxPlane@physx@@@shdfnd@physx@@QEAAPEAX_KPEBDH@Z 0000000180000000     QuickHullConvexHullLib.obj
 0004:fffc7000       $pdata$1$?allocate@?$ReflectionAllocator@VPxPlane@physx@@@shdfnd@physx@@QEAAPEAX_KPEBDH@Z 0000000180000000     QuickHullConvexHullLib.obj
 0002:fffd2000       $unwind$?copy@?$Array@VPxPlane@physx@@V?$ReflectionAllocator@VPxPlane@physx@@@shdfnd@2@@shdfnd@physx@@KAXPEAVPxPlane@3@0PEBV43@@Z 0000000180000000     QuickHullConvexHullLib.obj
 0004:fffc7000       $pdata$?copy@?$Array@VPxPlane@physx@@V?$ReflectionAllocator@VPxPlane@physx@@@shdfnd@2@@shdfnd@physx@@KAXPEAVPxPlane@3@0PEBV43@@Z 0000000180000000     QuickHullConvexHullLib.obj
 0002:fffd2000       $chain$0$?copy@?$Array@VPxPlane@physx@@V?$ReflectionAllocator@VPxPlane@physx@@@shdfnd@2@@shdfnd@physx@@KAXPEAVPxPlane@3@0PEBV43@@Z 0000000180000000     QuickHullConvexHullLib.obj
 0004:fffc7000       $pdata$0$?copy@?$Array@VPxPlane@physx@@V?$ReflectionAllocator@VPxPlane@physx@@@shdfnd@2@@shdfnd@physx@@KAXPEAVPxPlane@3@0PEBV43@@Z 0000000180000000     QuickHullConvexHullLib.obj
 0002:fffd2000       $chain$1$?copy@?$Array@VPxPlane@physx@@V?$ReflectionAllocator@VPxPlane@physx@@@shdfnd@2@@shdfnd@physx@@KAXPEAVPxPlane@3@0PEBV43@@Z 0000000180000000     QuickHullConvexHullLib.obj
 0004:fffc7000       $pdata$1$?copy@?$Array@VPxPlane@physx@@V?$ReflectionAllocator@VPxPlane@physx@@@shdfnd@2@@shdfnd@physx@@KAXPEAVPxPlane@3@0PEBV43@@Z 0000000180000000     QuickHullConvexHullLib.obj
 0002:fffd2000       $unwind$?growAndPushBack@?$Array@VPxPlane@physx@@V?$ReflectionAllocator@VPxPlane@physx@@@shdfnd@2@@shdfnd@physx@@IEAAAEAVPxPlane@3@AEBV43@@Z 0000000180000000     QuickHullConvexHullLib.obj
 0004:fffc7000       $pdata$?growAndPushBack@?$Array@VPxPlane@physx@@V?$ReflectionAllocator@VPxPlane@physx@@@shdfnd@2@@shdfnd@physx@@IEAAAEAVPxPlane@3@AEBV43@@Z 0000000180000000     QuickHullConvexHullLib.obj
 0002:fffd2000       $unwind$?recreate@?$Array@VPxPlane@physx@@V?$ReflectionAllocator@VPxPlane@physx@@@shdfnd@2@@shdfnd@physx@@IEAAXI@Z 0000000180000000     QuickHullConvexHullLib.obj
 0004:fffc7000       $pdata$?recreate@?$Array@VPxPlane@physx@@V?$ReflectionAllocator@VPxPlane@physx@@@shdfnd@2@@shdfnd@physx@@IEAAXI@Z 0000000180000000     QuickHullConvexHullLib.obj
 0000:fffc1000       .debug$S                   0000000180000000     PhysXCommon_64:PhysXCommon_64.dll
 0002:fffd2000       $chain$1$??_EPxFoundation@physx@@MEAAPEAXI@Z 0000000180000000     EdgeList.obj
 0000:fffc1000       .debug$S                   0000000180000000     PhysXCommon_64:PhysXCommon_64.dll
 0004:fffc7000       $pdata$0$??_EPxFoundation@physx@@MEAAPEAXI@Z 0000000180000000     EdgeList.obj
 0000:fffc1000       .debug$S                   0000000180000000     PhysXCommon_64:PhysXCommon_64.dll
 0002:fffd2000       $chain$0$??_EPxFoundation@physx@@MEAAPEAXI@Z 0000000180000000     EdgeList.obj
 0000:fffc1000       .debug$S                   0000000180000000     PhysXCommon_64:PhysXCommon_64.dll
 0004:fffc7000       $pdata$??_EPxFoundation@physx@@MEAAPEAXI@Z 0000000180000000     EdgeList.obj
 0000:fffc1000       .debug$S                   0000000180000000     PhysXCommon_64:PhysXCommon_64.dll
 0002:fffd2000       $unwind$??_H@YAXPEAX_K1P6APEAX0@Z@Z 0000000180000000     ConvexHullBuilder.obj
 0002:fffd2000       $unwind$??_EPxFoundation@physx@@MEAAPEAXI@Z 0000000180000000     EdgeList.obj
 0004:fffc7000       $pdata$??_H@YAXPEAX_K1P6APEAX0@Z@Z 0000000180000000     ConvexHullBuilder.obj
 0000:fffc1000       .debug$S                   0000000180000000     PhysXCommon_64:PhysXCommon_64.dll
 0002:fffd2000       $unwind$??_I@YAXPEAX_K1P6AX0@Z@Z 0000000180000000     ConvexHullBuilder.obj
 0004:fffc7000       $pdata$??_GPxFoundation@physx@@MEAAPEAXI@Z 0000000180000000     EdgeList.obj
 0004:fffc7000       $pdata$??_I@YAXPEAX_K1P6AX0@Z@Z 0000000180000000     ConvexHullBuilder.obj
 0004:fffc7000       $pdata$?recreate@?$Array@IV?$ReflectionAllocator@I@shdfnd@physx@@@shdfnd@physx@@IEAAXI@Z 0000000180000000     ConvexPolygonsBuilder.obj
 0002:fffd2000       $unwind$??_GPxBase@physx@@MEAAPEAXI@Z 0000000180000000     ConvexHullBuilder.obj
 0002:fffd2000       $unwind$?recreate@?$Array@IV?$ReflectionAllocator@I@shdfnd@physx@@@shdfnd@physx@@IEAAXI@Z 0000000180000000     ConvexPolygonsBuilder.obj
 0004:fffc7000       $pdata$?growAndPushBack@?$Array@IV?$ReflectionAllocator@I@shdfnd@physx@@@shdfnd@physx@@IEAAAEAIAEBI@Z 0000000180000000     ConvexPolygonsBuilder.obj
 0002:fffd2000       $unwind$?growAndPushBack@?$Array@IV?$ReflectionAllocator@I@shdfnd@physx@@@shdfnd@physx@@IEAAAEAIAEBI@Z 0000000180000000     ConvexPolygonsBuilder.obj
 0004:fffc7000       $pdata$1$?allocate@?$ReflectionAllocator@I@shdfnd@physx@@QEAAPEAX_KPEBDH@Z 0000000180000000     ConvexPolygonsBuilder.obj
 0002:fffd2000       $chain$1$?allocate@?$ReflectionAllocator@I@shdfnd@physx@@QEAAPEAX_KPEBDH@Z 0000000180000000     ConvexPolygonsBuilder.obj
 0004:fffc7000       $pdata$0$?allocate@?$ReflectionAllocator@I@shdfnd@physx@@QEAAPEAX_KPEBDH@Z 0000000180000000     ConvexPolygonsBuilder.obj
 0002:fffd2000       $chain$0$?allocate@?$ReflectionAllocator@I@shdfnd@physx@@QEAAPEAX_KPEBDH@Z 0000000180000000     ConvexPolygonsBuilder.obj
 0004:fffc7000       $pdata$?allocate@?$ReflectionAllocator@I@shdfnd@physx@@QEAAPEAX_KPEBDH@Z 0000000180000000     ConvexPolygonsBuilder.obj
 0002:fffd2000       $unwind$??_I@YAXPEAX_K1P6AX0@Z@Z 0000000180000000     Quantizer.obj
 0002:fffd2000       $unwind$?allocate@?$ReflectionAllocator@I@shdfnd@physx@@QEAAPEAX_KPEBDH@Z 0000000180000000     ConvexPolygonsBuilder.obj
 0004:fffc7000       $pdata$??_I@YAXPEAX_K1P6AX0@Z@Z 0000000180000000     Quantizer.obj
 0000:fffc1000       .debug$S                   0000000180000000     PhysXCommon_64:PhysXCommon_64.dll
 0004:fffc7000       $pdata$??_GPxBase@physx@@MEAAPEAXI@Z 0000000180000000     ConvexHullBuilder.obj
 0002:fffd2000       $unwind$??_GPxFoundation@physx@@MEAAPEAXI@Z 0000000180000000     EdgeList.obj
 0000:fffc1000       .debug$S                   0000000180000000     PhysXCommon_64:PhysXCommon_64.dll
 0004:fffc7000       $pdata$??_I@YAXPEAX_K1P6AX0@Z@Z 0000000180000000     EdgeList.obj
 0002:fffd2000       $unwind$??_GPxFoundation@physx@@MEAAPEAXI@Z 0000000180000000     Quantizer.obj
 0000:fffc1000       .debug$S                   0000000180000000     PhysXCommon_64:PhysXCommon_64.dll
 0004:fffc7000       $pdata$??_GPxFoundation@physx@@MEAAPEAXI@Z 0000000180000000     Quantizer.obj
 0002:fffd2000       $unwind$??_I@YAXPEAX_K1P6AX0@Z@Z 0000000180000000     EdgeList.obj
 0002:fffd2000       $unwind$??_EPxFoundation@physx@@MEAAPEAXI@Z 0000000180000000     Quantizer.obj
 0000:fffc1000       .debug$S                   0000000180000000     PhysXCommon_64:PhysXCommon_64.dll
 0004:fffc7000       $pdata$??_EPxFoundation@physx@@MEAAPEAXI@Z 0000000180000000     Quantizer.obj
 0002:fffd2000       $chain$0$??_EPxFoundation@physx@@MEAAPEAXI@Z 0000000180000000     Quantizer.obj
 0004:fffc7000       $pdata$0$??_EPxFoundation@physx@@MEAAPEAXI@Z 0000000180000000     Quantizer.obj
 0002:fffd2000       $chain$1$??_EPxFoundation@physx@@MEAAPEAXI@Z 0000000180000000     Quantizer.obj
 0004:fffc7000       $pdata$1$??_EPxFoundation@physx@@MEAAPEAXI@Z 0000000180000000     Quantizer.obj
 0002:fffd2000       $unwind$?isKindOf@PxConvexMesh@physx@@MEBA_NPEBD@Z 0000000180000000     ConvexHullBuilder.obj
 0004:fffc7000       $pdata$??_H@YAXPEAX_K1P6APEAX0@Z@Z 0000000180000000     EdgeList.obj
 0000:fffc1000       .debug$S                   0000000180000000     PhysXCommon_64:PhysXCommon_64.dll
 0004:fffc7000       $pdata$?isKindOf@PxConvexMesh@physx@@MEBA_NPEBD@Z 0000000180000000     ConvexHullBuilder.obj
 0002:fffd2000       $unwind$??_H@YAXPEAX_K1P6APEAX0@Z@Z 0000000180000000     EdgeList.obj
 0002:fffd2000       $unwind$??_EPxConvexMesh@physx@@MEAAPEAXI@Z 0000000180000000     ConvexHullBuilder.obj
 0000:fffc1000       .debug$S                   0000000180000000     PhysXCommon_64:PhysXCommon_64.dll
 0000:fffc1000       .debug$S                   0000000180000000     PhysXCommon_64:PhysXCommon_64.dll
 0004:fffc7000       $pdata$??_EPxConvexMesh@physx@@MEAAPEAXI@Z 0000000180000000     ConvexHullBuilder.obj
 0004:fffc7000       $pdata$1$??_EPxFoundation@physx@@MEAAPEAXI@Z 0000000180000000     MeshCleaner.obj
 0002:fffd2000       $chain$0$??_EPxConvexMesh@physx@@MEAAPEAXI@Z 0000000180000000     ConvexHullBuilder.obj
 0000:fffc1000       .debug$S                   0000000180000000     PhysXCommon_64:PhysXCommon_64.dll
 0004:fffc7000       $pdata$0$??_EPxConvexMesh@physx@@MEAAPEAXI@Z 0000000180000000     ConvexHullBuilder.obj
 0000:fffc1000       .debug$S                   0000000180000000     PhysXCommon_64:PhysXCommon_64.dll
 0002:fffd2000       $chain$1$??_EPxConvexMesh@physx@@MEAAPEAXI@Z 0000000180000000     ConvexHullBuilder.obj
 0004:fffc7000       $pdata$?recreate@?$Array@VPxVec3@physx@@V?$ReflectionAllocator@VPxVec3@physx@@@shdfnd@2@@shdfnd@physx@@IEAAXI@Z 0000000180000000     ConvexHullUtils.obj
 0002:fffd2000       $unwind$?recreate@?$Array@VPxVec3@physx@@V?$ReflectionAllocator@VPxVec3@physx@@@shdfnd@2@@shdfnd@physx@@IEAAXI@Z 0000000180000000     ConvexHullUtils.obj
 0004:fffc7000       $pdata$?growAndPushBack@?$Array@VPxVec3@physx@@V?$ReflectionAllocator@VPxVec3@physx@@@shdfnd@2@@shdfnd@physx@@IEAAAEAVPxVec3@3@AEBV43@@Z 0000000180000000     ConvexHullUtils.obj
 0002:fffd2000       $unwind$?growAndPushBack@?$Array@VPxVec3@physx@@V?$ReflectionAllocator@VPxVec3@physx@@@shdfnd@2@@shdfnd@physx@@IEAAAEAVPxVec3@3@AEBV43@@Z 0000000180000000     ConvexHullUtils.obj
 0000:fffc1000       .debug$S                   0000000180000000     PhysXCommon_64:PhysXCommon_64.dll
 0004:fffc7000       $pdata$1$??_EPxConvexMesh@physx@@MEAAPEAXI@Z 0000000180000000     ConvexHullBuilder.obj
 0004:fffc7000       $pdata$1$?allocate@?$ReflectionAllocator@VPxVec3@physx@@@shdfnd@physx@@QEAAPEAX_KPEBDH@Z 0000000180000000     ConvexHullUtils.obj
 0002:fffd2000       $chain$1$?allocate@?$ReflectionAllocator@VPxVec3@physx@@@shdfnd@physx@@QEAAPEAX_KPEBDH@Z 0000000180000000     ConvexHullUtils.obj
 0004:fffc7000       $pdata$0$?allocate@?$ReflectionAllocator@VPxVec3@physx@@@shdfnd@physx@@QEAAPEAX_KPEBDH@Z 0000000180000000     ConvexHullUtils.obj
 0002:fffd2000       $chain$0$?allocate@?$ReflectionAllocator@VPxVec3@physx@@@shdfnd@physx@@QEAAPEAX_KPEBDH@Z 0000000180000000     ConvexHullUtils.obj
 0004:fffc7000       $pdata$?allocate@?$ReflectionAllocator@VPxVec3@physx@@@shdfnd@physx@@QEAAPEAX_KPEBDH@Z 0000000180000000     ConvexHullUtils.obj
 0002:fffd2000       $unwind$?allocate@?$ReflectionAllocator@VPxVec3@physx@@@shdfnd@physx@@QEAAPEAX_KPEBDH@Z 0000000180000000     ConvexHullUtils.obj
 0000:fffc1000       .debug$S                   0000000180000000     PhysXCommon_64:PhysXCommon_64.dll
 0002:fffd2000       $unwind$??_GPxFoundation@physx@@MEAAPEAXI@Z 0000000180000000     ConvexHullBuilder.obj
 0000:fffc1000       .debug$S                   0000000180000000     PhysXCommon_64:PhysXCommon_64.dll
 0004:fffc7000       $pdata$??_GPxFoundation@physx@@MEAAPEAXI@Z 0000000180000000     ConvexHullBuilder.obj
 0000:fffc1000       .debug$S                   0000000180000000     PhysXCommon_64:PhysXCommon_64.dll
 0002:fffd2000       $unwind$??_EPxFoundation@physx@@MEAAPEAXI@Z 0000000180000000     ConvexHullBuilder.obj
 0002:fffd2000       $unwind$??_I@YAXPEAX_K1P6AX0@Z@Z 0000000180000000     MeshCleaner.obj
 0000:fffc1000       .debug$S                   0000000180000000     PhysXCommon_64:PhysXCommon_64.dll
 0004:fffc7000       $pdata$1$??_EPxFoundation@physx@@MEAAPEAXI@Z 0000000180000000     TriangleMeshBuilder.obj
 0002:fffd2000       $chain$1$??_EPxFoundation@physx@@MEAAPEAXI@Z 0000000180000000     TriangleMeshBuilder.obj
 0004:fffc7000       $pdata$0$??_EPxFoundation@physx@@MEAAPEAXI@Z 0000000180000000     TriangleMeshBuilder.obj
 0002:fffd2000       $chain$0$??_EPxFoundation@physx@@MEAAPEAXI@Z 0000000180000000     TriangleMeshBuilder.obj
 0004:fffc7000       $pdata$??_EPxFoundation@physx@@MEAAPEAXI@Z 0000000180000000     TriangleMeshBuilder.obj
 0000:fffc1000       .debug$S                   0000000180000000     PhysXCommon_64:PhysXCommon_64.dll
 0002:fffd2000       $unwind$??_EPxFoundation@physx@@MEAAPEAXI@Z 0000000180000000     TriangleMeshBuilder.obj
 0000:fffc1000       .debug$S                   0000000180000000     PhysXCommon_64:PhysXCommon_64.dll
 0004:fffc7000       $pdata$??_GPxFoundation@physx@@MEAAPEAXI@Z 0000000180000000     TriangleMeshBuilder.obj
 0000:fffc1000       .debug$S                   0000000180000000     PhysXCommon_64:PhysXCommon_64.dll
 0002:fffd2000       $unwind$??_GPxFoundation@physx@@MEAAPEAXI@Z 0000000180000000     TriangleMeshBuilder.obj
 0000:fffc1000       .debug$S                   0000000180000000     PhysXCommon_64:PhysXCommon_64.dll
 0004:fffc7000       $pdata$?isKindOf@PxConvexMesh@physx@@MEBA_NPEBD@Z 0000000180000000     TriangleMeshBuilder.obj
 0000:fffc1000       .debug$S                   0000000180000000     PhysXCommon_64:PhysXCommon_64.dll
 0002:fffd2000       $unwind$?isKindOf@PxConvexMesh@physx@@MEBA_NPEBD@Z 0000000180000000     TriangleMeshBuilder.obj
 0000:fffc1000       .debug$S                   0000000180000000     PhysXCommon_64:PhysXCommon_64.dll
 0004:fffc7000       $pdata$??_GPxBase@physx@@MEAAPEAXI@Z 0000000180000000     TriangleMeshBuilder.obj
 0000:fffc1000       .debug$S                   0000000180000000     PhysXCommon_64:PhysXCommon_64.dll
 0002:fffd2000       $unwind$??_GPxBase@physx@@MEAAPEAXI@Z 0000000180000000     TriangleMeshBuilder.obj
 0002:fffd2000       $chain$0$??_EPxFoundation@physx@@MEAAPEAXI@Z 0000000180000000     ConvexHullBuilder.obj
 0004:fffc7000       $pdata$??_I@YAXPEAX_K1P6AX0@Z@Z 0000000180000000     TriangleMeshBuilder.obj
 0002:fffd2000       $unwind$??_I@YAXPEAX_K1P6AX0@Z@Z 0000000180000000     TriangleMeshBuilder.obj
 0004:fffc7000       $pdata$??_H@YAXPEAX_K1P6APEAX0@Z@Z 0000000180000000     TriangleMeshBuilder.obj
 0000:fffc1000       .debug$S                   0000000180000000     kernel32:KERNEL32.dll
 0002:fffd2000       $unwind$??_H@YAXPEAX_K1P6APEAX0@Z@Z 0000000180000000     TriangleMeshBuilder.obj
 0000:fffc1000       .debug$S                   0000000180000000     kernel32:KERNEL32.dll
 0000:fffc1000       .debug$S                   0000000180000000     PhysXCommon_64:PhysXCommon_64.dll
 0000:fffc1000       .debug$S                   0000000180000000     kernel32:KERNEL32.dll
 0002:fffd2000       $unwind$??_I@YAXPEAX_K1P6AX0@Z@Z 0000000180000000     BigConvexDataBuilder.obj
 0000:fffc1000       .debug$S                   0000000180000000     kernel32:KERNEL32.dll
 0000:fffc1000       .debug$S                   0000000180000000     PhysXCommon_64:PhysXCommon_64.dll
 0000:fffc1000       .debug$S                   0000000180000000     kernel32:KERNEL32.dll
 0004:fffc7000       $pdata$??_I@YAXPEAX_K1P6AX0@Z@Z 0000000180000000     BigConvexDataBuilder.obj
 0000:fffc1000       .debug$S                   0000000180000000     kernel32:KERNEL32.dll
 0000:fffc1000       .debug$S                   0000000180000000     PhysXCommon_64:PhysXCommon_64.dll
 0000:fffc1000       .debug$S                   0000000180000000     kernel32:KERNEL32.dll
 0002:fffd2000       $unwind$??_GPxBase@physx@@MEAAPEAXI@Z 0000000180000000     BigConvexDataBuilder.obj
 0000:fffc1000       .debug$S                   0000000180000000     kernel32:KERNEL32.dll
 0000:fffc1000       .debug$S                   0000000180000000     PhysXCommon_64:PhysXCommon_64.dll
 0000:fffc1000       .debug$S                   0000000180000000     kernel32:KERNEL32.dll
 0004:fffc7000       $pdata$??_GPxBase@physx@@MEAAPEAXI@Z 0000000180000000     BigConvexDataBuilder.obj
 0000:fffc1000       .debug$S                   0000000180000000     kernel32:KERNEL32.dll
 0000:fffc1000       .debug$S                   0000000180000000     PhysXCommon_64:PhysXCommon_64.dll
 0000:fffc1000       .debug$S                   0000000180000000     kernel32:KERNEL32.dll
 0002:fffd2000       $unwind$?isKindOf@PxConvexMesh@physx@@MEBA_NPEBD@Z 0000000180000000     BigConvexDataBuilder.obj
 0000:fffc1000       .debug$S                   0000000180000000     kernel32:KERNEL32.dll
 0004:fffc7000       $pdata$?isKindOf@PxConvexMesh@physx@@MEBA_NPEBD@Z 0000000180000000     ConvexPolygonsBuilder.obj
 0000:fffc1000       .debug$S                   0000000180000000     kernel32:KERNEL32.dll
 0002:fffd2000       $unwind$?isKindOf@PxConvexMesh@physx@@MEBA_NPEBD@Z 0000000180000000     ConvexPolygonsBuilder.obj
 0000:fffc1000       .debug$S                   0000000180000000     kernel32:KERNEL32.dll
 0004:fffc7000       $pdata$??_GPxBase@physx@@MEAAPEAXI@Z 0000000180000000     ConvexPolygonsBuilder.obj
 0000:fffc1000       .debug$S                   0000000180000000     kernel32:KERNEL32.dll
 0002:fffd2000       $unwind$??_GPxBase@physx@@MEAAPEAXI@Z 0000000180000000     ConvexPolygonsBuilder.obj
 0000:fffc1000       .debug$S                   0000000180000000     kernel32:KERNEL32.dll
 0004:fffc7000       $pdata$1$??_EPxFoundation@physx@@MEAAPEAXI@Z 0000000180000000     ConvexPolygonsBuilder.obj
 0000:fffc1000       .debug$S                   0000000180000000     kernel32:KERNEL32.dll
 0002:fffd2000       $chain$1$??_EPxFoundation@physx@@MEAAPEAXI@Z 0000000180000000     ConvexPolygonsBuilder.obj
 0000:fffc1000       .debug$S                   0000000180000000     kernel32:KERNEL32.dll
 0004:fffc7000       $pdata$??_I@YAXPEAX_K1P6AX0@Z@Z 0000000180000000     MeshCleaner.obj
 0000:fffc1000       .debug$S                   0000000180000000     kernel32:KERNEL32.dll
 0004:fffc7000       $pdata$0$??_EPxFoundation@physx@@MEAAPEAXI@Z 0000000180000000     ConvexPolygonsBuilder.obj
 0000:fffc1000       .debug$S                   0000000180000000     kernel32:KERNEL32.dll
 0002:fffd2000       $chain$0$??_EPxFoundation@physx@@MEAAPEAXI@Z 0000000180000000     ConvexPolygonsBuilder.obj
 0000:fffc1000       .debug$S                   0000000180000000     kernel32:KERNEL32.dll
 0004:fffc7000       $pdata$??_EPxFoundation@physx@@MEAAPEAXI@Z 0000000180000000     ConvexPolygonsBuilder.obj
 0000:fffc1000       .debug$S                   0000000180000000     kernel32:KERNEL32.dll
 0002:fffd2000       $unwind$??_EPxFoundation@physx@@MEAAPEAXI@Z 0000000180000000     ConvexPolygonsBuilder.obj
 0000:fffc1000       .debug$S                   0000000180000000     kernel32:KERNEL32.dll
 0004:fffc7000       $pdata$??_GPxFoundation@physx@@MEAAPEAXI@Z 0000000180000000     ConvexPolygonsBuilder.obj
 0000:fffc1000       .debug$S                   0000000180000000     kernel32:KERNEL32.dll
 0002:fffd2000       $unwind$??_GPxFoundation@physx@@MEAAPEAXI@Z 0000000180000000     ConvexPolygonsBuilder.obj
 0000:fffc1000       .debug$S                   0000000180000000     PhysXFoundation_64:PhysXFoundation_64.dll
 0004:fffc7000       $pdata$??_I@YAXPEAX_K1P6AX0@Z@Z 0000000180000000     ConvexPolygonsBuilder.obj
 0000:fffc1000       .debug$S                   0000000180000000     PhysXFoundation_64:PhysXFoundation_64.dll
 0002:fffd2000       $unwind$??_I@YAXPEAX_K1P6AX0@Z@Z 0000000180000000     ConvexPolygonsBuilder.obj
 0000:fffc1000       .debug$S                   0000000180000000     PhysXFoundation_64:PhysXFoundation_64.dll
 0000:fffc1000       .debug$S                   0000000180000000     PhysXCommon_64:PhysXCommon_64.dll
 0000:fffc1000       .debug$S                   0000000180000000     PhysXFoundation_64:PhysXFoundation_64.dll
 0000:fffc1000       .debug$S                   0000000180000000     PhysXCommon_64:PhysXCommon_64.dll
 0000:fffc1000       .debug$S                   0000000180000000     PhysXFoundation_64:PhysXFoundation_64.dll
 0004:fffc7000       $pdata$?isKindOf@PxConvexMesh@physx@@MEBA_NPEBD@Z 0000000180000000     BigConvexDataBuilder.obj
 0000:fffc1000       .debug$S                   0000000180000000     PhysXFoundation_64:PhysXFoundation_64.dll
 0000:fffc1000       .debug$S                   0000000180000000     PhysXCommon_64:PhysXCommon_64.dll
 0000:fffc1000       .debug$S                   0000000180000000     PhysXFoundation_64:PhysXFoundation_64.dll
 0004:fffc7000       $pdata$??_EPxFoundation@physx@@MEAAPEAXI@Z 0000000180000000     ConvexHullBuilder.obj
 0000:fffc1000       .debug$S                   0000000180000000     PhysXFoundation_64:PhysXFoundation_64.dll
 0002:fffd2000       $unwind$??_GPxFoundation@physx@@MEAAPEAXI@Z 0000000180000000     MeshCleaner.obj
 0000:fffc1000       .debug$S                   0000000180000000     PhysXFoundation_64:PhysXFoundation_64.dll
 0004:fffc7000       $pdata$??_GPxFoundation@physx@@MEAAPEAXI@Z 0000000180000000     MeshCleaner.obj
 0000:fffc1000       .debug$S                   0000000180000000     PhysXFoundation_64:PhysXFoundation_64.dll
 0002:fffd2000       $unwind$??_EPxFoundation@physx@@MEAAPEAXI@Z 0000000180000000     MeshCleaner.obj
 0004:fffc7000       $pdata$??_EPxFoundation@physx@@MEAAPEAXI@Z 0000000180000000     MeshCleaner.obj
 0002:fffd2000       $chain$0$??_EPxFoundation@physx@@MEAAPEAXI@Z 0000000180000000     MeshCleaner.obj
 0000:fffc1000       .debug$S                   0000000180000000     PhysXFoundation_64:PhysXFoundation_64.dll
 0004:fffc7000       $pdata$0$??_EPxFoundation@physx@@MEAAPEAXI@Z 0000000180000000     MeshCleaner.obj
 0000:fffc1000       .debug$S                   0000000180000000     PhysXCommon_64:PhysXCommon_64.dll
 0002:fffd2000       $chain$1$??_EPxFoundation@physx@@MEAAPEAXI@Z 0000000180000000     MeshCleaner.obj
 0000:fffc1000       .debug$S                   0000000180000000     PhysXCommon_64:PhysXCommon_64.dll
 0004:fffc7000       $pdata$1$??_EPxFoundation@physx@@MEAAPEAXI@Z 0000000180000000     BigConvexDataBuilder.obj
 0000:fffc1000       .debug$S                   0000000180000000     PhysXCommon_64:PhysXCommon_64.dll
 0002:fffd2000       $chain$1$??_EPxFoundation@physx@@MEAAPEAXI@Z 0000000180000000     BigConvexDataBuilder.obj
 0000:fffc1000       .debug$S                   0000000180000000     PhysXCommon_64:PhysXCommon_64.dll
 0004:fffc7000       $pdata$0$??_EPxFoundation@physx@@MEAAPEAXI@Z 0000000180000000     BigConvexDataBuilder.obj
 0000:fffc1000       .debug$S                   0000000180000000     PhysXCommon_64:PhysXCommon_64.dll
 0002:fffd2000       $chain$0$??_EPxFoundation@physx@@MEAAPEAXI@Z 0000000180000000     BigConvexDataBuilder.obj
 0004:fffc7000       $pdata$??_EPxFoundation@physx@@MEAAPEAXI@Z 0000000180000000     BigConvexDataBuilder.obj
 0002:fffd2000       $unwind$??_EPxFoundation@physx@@MEAAPEAXI@Z 0000000180000000     BigConvexDataBuilder.obj
 0000:fffc1000       .debug$S                   0000000180000000     PhysXCommon_64:PhysXCommon_64.dll
 0004:fffc7000       $pdata$??_GPxFoundation@physx@@MEAAPEAXI@Z 0000000180000000     BigConvexDataBuilder.obj
 0000:fffc1000       .debug$S                   0000000180000000     PhysXCommon_64:PhysXCommon_64.dll
 0002:fffd2000       $unwind$??_GPxFoundation@physx@@MEAAPEAXI@Z 0000000180000000     BigConvexDataBuilder.obj
 0001:00000000       ??__EmaxFError@_VecMathTests@aos@shdfnd@physx@@YAXXZ 0000000180001000 f   Cooking.obj
 0001:00000020       ??__EmaxV3Error@_VecMathTests@aos@shdfnd@physx@@YAXXZ 0000000180001020 f   Cooking.obj
 0001:00000030       ??__EmaxV4Error@_VecMathTests@aos@shdfnd@physx@@YAXXZ 0000000180001030 f   Cooking.obj
 0001:00000050       ??__EminFError@_VecMathTests@aos@shdfnd@physx@@YAXXZ 0000000180001050 f   Cooking.obj
 0001:00000070       ??__EminV3Error@_VecMathTests@aos@shdfnd@physx@@YAXXZ 0000000180001070 f   Cooking.obj
 0001:00000080       ??__EminV4Error@_VecMathTests@aos@shdfnd@physx@@YAXXZ 0000000180001080 f   Cooking.obj
 0001:000000a0       ??__EmaxFError@_VecMathTests@aos@shdfnd@physx@@YAXXZ 00000001800010a0 f   BVHStructureBuilder.obj
 0001:000000c0       ??__EmaxV3Error@_VecMathTests@aos@shdfnd@physx@@YAXXZ 00000001800010c0 f   BVHStructureBuilder.obj
 0001:000000d0       ??__EmaxV4Error@_VecMathTests@aos@shdfnd@physx@@YAXXZ 00000001800010d0 f   BVHStructureBuilder.obj
 0001:000000f0       ??__EminFError@_VecMathTests@aos@shdfnd@physx@@YAXXZ 00000001800010f0 f   BVHStructureBuilder.obj
 0001:00000110       ??__EminV3Error@_VecMathTests@aos@shdfnd@physx@@YAXXZ 0000000180001110 f   BVHStructureBuilder.obj
 0001:00000120       ??__EminV4Error@_VecMathTests@aos@shdfnd@physx@@YAXXZ 0000000180001120 f   BVHStructureBuilder.obj
 0001:00000140       ??__EmaxFError@_VecMathTests@aos@shdfnd@physx@@YAXXZ 0000000180001140 f   RTreeCooking.obj
 0001:00000160       ??__EmaxV3Error@_VecMathTests@aos@shdfnd@physx@@YAXXZ 0000000180001160 f   RTreeCooking.obj
 0001:00000170       ??__EmaxV4Error@_VecMathTests@aos@shdfnd@physx@@YAXXZ 0000000180001170 f   RTreeCooking.obj
 0001:00000190       ??__EminFError@_VecMathTests@aos@shdfnd@physx@@YAXXZ 0000000180001190 f   RTreeCooking.obj
 0001:000001b0       ??__EminV3Error@_VecMathTests@aos@shdfnd@physx@@YAXXZ 00000001800011b0 f   RTreeCooking.obj
 0001:000001c0       ??__EminV4Error@_VecMathTests@aos@shdfnd@physx@@YAXXZ 00000001800011c0 f   RTreeCooking.obj
 0001:000001e0       ??__EmaxFError@_VecMathTests@aos@shdfnd@physx@@YAXXZ 00000001800011e0 f   MeshBuilder.obj
 0001:00000200       ??__EmaxV3Error@_VecMathTests@aos@shdfnd@physx@@YAXXZ 0000000180001200 f   MeshBuilder.obj
 0001:00000210       ??__EmaxV4Error@_VecMathTests@aos@shdfnd@physx@@YAXXZ 0000000180001210 f   MeshBuilder.obj
 0001:00000230       ??__EminFError@_VecMathTests@aos@shdfnd@physx@@YAXXZ 0000000180001230 f   MeshBuilder.obj
 0001:00000250       ??__EminV3Error@_VecMathTests@aos@shdfnd@physx@@YAXXZ 0000000180001250 f   MeshBuilder.obj
 0001:00000260       ??__EminV4Error@_VecMathTests@aos@shdfnd@physx@@YAXXZ 0000000180001260 f   MeshBuilder.obj
 0001:00000280       ??__EmaxFError@_VecMathTests@aos@shdfnd@physx@@YAXXZ 0000000180001280 f   TriangleMeshBuilder.obj
 0001:000002a0       ??__EmaxV3Error@_VecMathTests@aos@shdfnd@physx@@YAXXZ 00000001800012a0 f   TriangleMeshBuilder.obj
 0001:000002b0       ??__EmaxV4Error@_VecMathTests@aos@shdfnd@physx@@YAXXZ 00000001800012b0 f   TriangleMeshBuilder.obj
 0001:000002d0       ??__EminFError@_VecMathTests@aos@shdfnd@physx@@YAXXZ 00000001800012d0 f   TriangleMeshBuilder.obj
 0001:000002f0       ??__EminV3Error@_VecMathTests@aos@shdfnd@physx@@YAXXZ 00000001800012f0 f   TriangleMeshBuilder.obj
 0001:00000300       ??__EminV4Error@_VecMathTests@aos@shdfnd@physx@@YAXXZ 0000000180001300 f   TriangleMeshBuilder.obj
 0001:00000320       ??__EmaxFError@_VecMathTests@aos@shdfnd@physx@@YAXXZ 0000000180001320 f   BigConvexDataBuilder.obj
 0001:00000340       ??__EmaxV3Error@_VecMathTests@aos@shdfnd@physx@@YAXXZ 0000000180001340 f   BigConvexDataBuilder.obj
 0001:00000350       ??__EmaxV4Error@_VecMathTests@aos@shdfnd@physx@@YAXXZ 0000000180001350 f   BigConvexDataBuilder.obj
 0001:00000370       ??__EminFError@_VecMathTests@aos@shdfnd@physx@@YAXXZ 0000000180001370 f   BigConvexDataBuilder.obj
 0001:00000390       ??__EminV3Error@_VecMathTests@aos@shdfnd@physx@@YAXXZ 0000000180001390 f   BigConvexDataBuilder.obj
 0001:000003a0       ??__EminV4Error@_VecMathTests@aos@shdfnd@physx@@YAXXZ 00000001800013a0 f   BigConvexDataBuilder.obj
 0001:000003c0       ??__EmaxFError@_VecMathTests@aos@shdfnd@physx@@YAXXZ 00000001800013c0 f   ConvexHullBuilder.obj
 0001:000003e0       ??__EmaxV3Error@_VecMathTests@aos@shdfnd@physx@@YAXXZ 00000001800013e0 f   ConvexHullBuilder.obj
 0001:000003f0       ??__EmaxV4Error@_VecMathTests@aos@shdfnd@physx@@YAXXZ 00000001800013f0 f   ConvexHullBuilder.obj
 0001:00000410       ??__EminFError@_VecMathTests@aos@shdfnd@physx@@YAXXZ 0000000180001410 f   ConvexHullBuilder.obj
 0001:00000430       ??__EminV3Error@_VecMathTests@aos@shdfnd@physx@@YAXXZ 0000000180001430 f   ConvexHullBuilder.obj
 0001:00000440       ??__EminV4Error@_VecMathTests@aos@shdfnd@physx@@YAXXZ 0000000180001440 f   ConvexHullBuilder.obj
 0001:00000460       ??__EmaxFError@_VecMathTests@aos@shdfnd@physx@@YAXXZ 0000000180001460 f   ConvexHullUtils.obj
 0001:00000480       ??__EmaxV3Error@_VecMathTests@aos@shdfnd@physx@@YAXXZ 0000000180001480 f   ConvexHullUtils.obj
 0001:00000490       ??__EmaxV4Error@_VecMathTests@aos@shdfnd@physx@@YAXXZ 0000000180001490 f   ConvexHullUtils.obj
 0001:000004b0       ??__EminFError@_VecMathTests@aos@shdfnd@physx@@YAXXZ 00000001800014b0 f   ConvexHullUtils.obj
 0001:000004d0       ??__EminV3Error@_VecMathTests@aos@shdfnd@physx@@YAXXZ 00000001800014d0 f   ConvexHullUtils.obj
 0001:000004e0       ??__EminV4Error@_VecMathTests@aos@shdfnd@physx@@YAXXZ 00000001800014e0 f   ConvexHullUtils.obj
 0001:00000500       ??__EmaxFError@_VecMathTests@aos@shdfnd@physx@@YAXXZ 0000000180001500 f   ConvexMeshBuilder.obj
 0001:00000520       ??__EmaxV3Error@_VecMathTests@aos@shdfnd@physx@@YAXXZ 0000000180001520 f   ConvexMeshBuilder.obj
 0001:00000530       ??__EmaxV4Error@_VecMathTests@aos@shdfnd@physx@@YAXXZ 0000000180001530 f   ConvexMeshBuilder.obj
 0001:00000550       ??__EminFError@_VecMathTests@aos@shdfnd@physx@@YAXXZ 0000000180001550 f   ConvexMeshBuilder.obj
 0001:00000570       ??__EminV3Error@_VecMathTests@aos@shdfnd@physx@@YAXXZ 0000000180001570 f   ConvexMeshBuilder.obj
 0001:00000580       ??__EminV4Error@_VecMathTests@aos@shdfnd@physx@@YAXXZ 0000000180001580 f   ConvexMeshBuilder.obj
 0001:000005a0       ??__EmaxFError@_VecMathTests@aos@shdfnd@physx@@YAXXZ 00000001800015a0 f   VolumeIntegration.obj
 0001:000005c0       ??__EmaxV3Error@_VecMathTests@aos@shdfnd@physx@@YAXXZ 00000001800015c0 f   VolumeIntegration.obj
 0001:000005d0       ??__EmaxV4Error@_VecMathTests@aos@shdfnd@physx@@YAXXZ 00000001800015d0 f   VolumeIntegration.obj
 0001:000005f0       ??__EminFError@_VecMathTests@aos@shdfnd@physx@@YAXXZ 00000001800015f0 f   VolumeIntegration.obj
 0001:00000610       ??__EminV3Error@_VecMathTests@aos@shdfnd@physx@@YAXXZ 0000000180001610 f   VolumeIntegration.obj
 0001:00000620       ??__EminV4Error@_VecMathTests@aos@shdfnd@physx@@YAXXZ 0000000180001620 f   VolumeIntegration.obj
 0001:00001460       ?AddTriangle@@YAXIIIIPEAVAdjTriangle@physx@@AEAIPEAVAdjEdge@@@Z 0000000180002460 f   Adjacencies.obj
 0001:00001560       ?CreateDatabase@@YA_NPEAVAdjTriangle@physx@@IPEBVAdjEdge@@AEBUADJACENCIESCREATE@2@@Z 0000000180002560 f   Adjacencies.obj
 0001:00001800       ?UpdateLink@@YA_NIIIIPEAVAdjTriangle@physx@@AEBUADJACENCIESCREATE@2@@Z 0000000180002800 f   Adjacencies.obj
 0001:00006690       ?OppositeVertex@@YAIIIIII@Z 0000000180007690 f   EdgeList.obj
 0001:0000abc0       ?buildFromBounds@physx@@YAXAEAURTree@Gu@1@PEBUPxBounds3V@1@IAEAV?$Array@IV?$ReflectionAllocator@I@shdfnd@physx@@@shdfnd@1@PEAURemapCallback@RTreeCooker@1@AEAT__m128@@4MW4Enum@PxMeshCookingHint@1@@Z 000000018000bbc0 f   RTreeCooking.obj
 0001:00011c90       ?buildAdjacencies@physx@@YAXPEAUuint4@1@PEAVPxVec3@1@PEBV31@PEBUuint3@1@I@Z 0000000180012c90 f   TriangleMeshBuilder.obj
 0001:00012130       ?findAdjacent@physx@@YAIPEBVPxVec3@1@0PEBUuint3@1@IIIAEBVPxPlane@1@PEAUEdgeTriLookup@1@I@Z 0000000180013130 f   TriangleMeshBuilder.obj
 0001:00016070       ?checkPointsAABBValidity@local@@YA_NIPEBVPxVec3@physx@@IMMAEAV23@1AEAIPEAV23@_N@Z 0000000180017070 f   ConvexHullLib.obj
 0001:0001c670       ?ComputeInternalExtent@@YAXAEAUConvexHullData@Gu@physx@@PEBUHullPolygonData@23@@Z 000000018001d670 f   ConvexMeshBuilder.obj
 0001:0001e230       ?CheckFloodFill@Local@?7??extractHullPolygons@@YA_NAEAIAEAV?$Array@IV?$ReflectionAllocator@I@shdfnd@physx@@@shdfnd@physx@@AEBVConvexPolygonsBuilder@5@PEAV345@1@Z@SA_N1PEAVAdjTriangle@5@PEA_NPEBI@Z 000000018001f230 f   ConvexPolygonsBuilder.obj
 0001:0001e3a0       ?CheckFloodFillFace@Local@?7??extractHullPolygons@@YA_NAEAIAEAV?$Array@IV?$ReflectionAllocator@I@shdfnd@physx@@@shdfnd@physx@@AEBVConvexPolygonsBuilder@5@PEAV345@1@Z@SA_NIPEBVAdjTriangle@5@PEBI@Z 000000018001f3a0 f   ConvexPolygonsBuilder.obj
 0001:0001e5e0       ?CleanFaces@@YA_NAEAIPEAU?$TriangleT@I@Gu@physx@@0PEAVPxVec3@3@@Z 000000018001f5e0 f   ConvexPolygonsBuilder.obj
 0001:0001e700       ?FloodFill@Local@?7??extractHullPolygons@@YA_NAEAIAEAV?$Array@IV?$ReflectionAllocator@I@shdfnd@physx@@@shdfnd@physx@@AEBVConvexPolygonsBuilder@5@PEAV345@1@Z@SAX1PEBVAdjTriangle@5@IPEA_N@Z 000000018001f700 f   ConvexPolygonsBuilder.obj
 0001:0001e800       ?GetNeighborFace@Local@?7??extractHullPolygons@@YA_NAEAIAEAV?$Array@IV?$ReflectionAllocator@I@shdfnd@physx@@@shdfnd@physx@@AEBVConvexPolygonsBuilder@5@PEAV345@1@Z@SA_NIIPEBVAdjTriangle@5@PEBI00@Z 000000018001f800 f   ConvexPolygonsBuilder.obj
 0001:0001e970       ?TestDuplicateTriangles@@YA_NAEAIPEAU?$TriangleT@I@Gu@physx@@_N@Z 000000018001f970 f   ConvexPolygonsBuilder.obj
 0001:0001eaa0       ?TestUnifiedNormals@@YA_NIPEBVPxVec3@physx@@IPEAU?$TriangleT@I@Gu@2@_N@Z 000000018001faa0 f   ConvexPolygonsBuilder.obj
 0001:0001f120       ?checkRedundantVertices@@YAXAEAIAEAV?$Array@IV?$ReflectionAllocator@I@shdfnd@physx@@@shdfnd@physx@@AEBVConvexPolygonsBuilder@3@11@Z 0000000180020120 f   ConvexPolygonsBuilder.obj
 0001:0001f910       ?computeNewellPlane@@YA_NAEAVPxPlane@physx@@IPEBEPEBVPxVec3@2@@Z 0000000180020910 f   ConvexPolygonsBuilder.obj
 0001:0001fb40       ?extractHullPolygons@@YA_NAEAIAEAV?$Array@IV?$ReflectionAllocator@I@shdfnd@physx@@@shdfnd@physx@@AEBVConvexPolygonsBuilder@3@PEAV123@1@Z 0000000180020b40 f   ConvexPolygonsBuilder.obj
 0001:000203b0       ?findLineStrip@@YA_NAEAV?$Array@IV?$ReflectionAllocator@I@shdfnd@physx@@@shdfnd@physx@@AEBV?$Array@VPair@@V?$ReflectionAllocator@VPair@@@shdfnd@physx@@@23@@Z 00000001800213b0 f   ConvexPolygonsBuilder.obj
 0001:00028020       ?threePlaneIntersection@local@@YA?AVPxVec3@physx@@AEBVPxPlane@3@00@Z 0000000180029020 f   QuickHullConvexHullLib.obj
 0001:000282a0       ?computeCOMInertiaTensor@VolumeIntegrator@?A0x7075e46c@physx@@AEAAXPEAN@Z 00000001800292a0 f   VolumeIntegration.obj
 0001:00028570       ?computeFaceIntegrals@VolumeIntegrator@?A0x7075e46c@physx@@AEAAXAEBUFace@123@@Z 0000000180029570 f   VolumeIntegration.obj
 0001:00028950       ?computeFaceNormal@VolumeIntegrator@?A0x7075e46c@physx@@AEAAXAEAUFace@123@PEAI@Z 0000000180029950 f   VolumeIntegration.obj
 0001:00028ac0       ?computeProjectionIntegrals@VolumeIntegrator@?A0x7075e46c@physx@@AEAAXAEBUFace@123@@Z 0000000180029ac0 f   VolumeIntegration.obj
 0001:00029030       ?computeVolumeIntegrals@VolumeIntegrator@?A0x7075e46c@physx@@QEAA_NAEAUPxIntegrals@3@@Z 000000018002a030 f   VolumeIntegration.obj
 0001:000294d0       ?computeVolumeIntegrals@VolumeIntegratorEberly@?A0x7075e46c@physx@@QEAA_NAEAUPxIntegrals@3@AEBVPxVec3@3@@Z 000000018002a4d0 f   VolumeIntegration.obj
 0001:00029f80       ?computeVolumeIntegralsSIMD@VolumeIntegratorEberly@?A0x7075e46c@physx@@QEAA_NAEAUPxIntegrals@3@AEBVPxVec3@3@@Z 000000018002af80 f   VolumeIntegration.obj
 0001:0002a6e0       $LN12                      000000018002b6e0     WindowsCookingDelayLoadHook.obj
 0001:0002b178       ?FLoadedAtPreferredAddress@@YA_NPEAU_IMAGE_NT_HEADERS64@@PEAUHINSTANCE__@@@Z 000000018002c178 f   Delayimp:delayhlp.obj
 0001:0002b18c       ?OverlayIAT@@YAXPEAU_IMAGE_THUNK_DATA64@@PEBU1@@Z 000000018002c18c f   Delayimp:delayhlp.obj
 0001:0002b1c4       ?PiddFromDllName@@YAPEBUImgDelayDescr@@PEBD@Z 000000018002c1c4 f   Delayimp:delayhlp.obj
 0001:0002b264       ?PinhFromImageBase@@YAPEAU_IMAGE_NT_HEADERS64@@PEAUHINSTANCE__@@@Z 000000018002c264 f   Delayimp:delayhlp.obj
 0001:0002b26c       ?TimeStampOfImage@@YAKPEAU_IMAGE_NT_HEADERS64@@@Z 000000018002c26c f   Delayimp:delayhlp.obj
 0001:0002b270       ?__memcmp@@YAHPEBX0_K@Z    000000018002c270 f   Delayimp:delayhlp.obj
 0001:0002b294       ?__memcpy@@YAPEAXPEAXPEBX_K@Z 000000018002c294 f   Delayimp:delayhlp.obj
 0001:0002b2b4       ?__strlen@@YA_KPEBD@Z      000000018002c2b4 f   Delayimp:delayhlp.obj
 0001:0002b780       $$000000                   000000018002c780     MSVCRT:_chkstk_.obj
 0001:0002b7f4       ?dllmain_crt_dispatch@@YAHQEAUHINSTANCE__@@KQEAX@Z 000000018002c7f4 f   MSVCRT:dll_dllmain.obj
 0001:0002b844       ?dllmain_crt_process_attach@@YAHQEAUHINSTANCE__@@QEAX@Z 000000018002c844 f   MSVCRT:dll_dllmain.obj
 0001:0002b970       ?dllmain_crt_process_detach@@YAH_N@Z 000000018002c970 f   MSVCRT:dll_dllmain.obj
 0001:0002b9f4       ?dllmain_dispatch@@YAHQEAUHINSTANCE__@@KQEAX@Z 000000018002c9f4 f   MSVCRT:dll_dllmain.obj
 0001:0002baec       ?dllmain_raw@@YAHQEAUHINSTANCE__@@KQEAX@Z 000000018002caec f   MSVCRT:dll_dllmain.obj
 0001:0002bbfc       ?find_pe_section@@YAPEAU_IMAGE_SECTION_HEADER@@QEAE_K@Z 000000018002cbfc f   MSVCRT:utility.obj
 0001:0002bc48       ?is_potentially_valid_image_base@@YA_NQEAX@Z 000000018002cc48 f   MSVCRT:utility.obj
 0001:0002c790       $$000000                   000000018002d790     MSVCRT:_guard_dispatch_.obj
 0001:0002c7a2       ?fin$0@?0??dllmain_crt_process_attach@@YAHQEAUHINSTANCE__@@QEAX@Z@4HA 000000018002d7a2 f   MSVCRT:dll_dllmain.obj
 0001:0002c7b9       ?fin$0@?0??dllmain_crt_process_detach@@YAH_N@Z@4HA 000000018002d7b9 f   MSVCRT:dll_dllmain.obj
 0001:0002c7d5       ?filt$0@?0??dllmain_dispatch@@YAHQEAUHINSTANCE__@@KQEAX@Z@4HA 000000018002d7d5 f   MSVCRT:dll_dllmain.obj
 0001:0002c80b       __scrt_is_nonwritable_in_current_image$filt$0 000000018002d80b f   MSVCRT:utility.obj
 0002:000001d8       ?minFError$initializer$@_VecMathTests@aos@shdfnd@physx@@3P6AXXZEA 000000018002e1d8     Cooking.obj
 0002:000001e0       ?maxFError$initializer$@_VecMathTests@aos@shdfnd@physx@@3P6AXXZEA 000000018002e1e0     Cooking.obj
 0002:000001e8       ?minV3Error$initializer$@_VecMathTests@aos@shdfnd@physx@@3P6AXXZEA 000000018002e1e8     Cooking.obj
 0002:000001f0       ?maxV3Error$initializer$@_VecMathTests@aos@shdfnd@physx@@3P6AXXZEA 000000018002e1f0     Cooking.obj
 0002:000001f8       ?minV4Error$initializer$@_VecMathTests@aos@shdfnd@physx@@3P6AXXZEA 000000018002e1f8     Cooking.obj
 0002:00000200       ?maxV4Error$initializer$@_VecMathTests@aos@shdfnd@physx@@3P6AXXZEA 000000018002e200     Cooking.obj
 0002:00000208       ?minFError$initializer$@_VecMathTests@aos@shdfnd@physx@@3P6AXXZEA 000000018002e208     BVHStructureBuilder.obj
 0002:00000210       ?maxFError$initializer$@_VecMathTests@aos@shdfnd@physx@@3P6AXXZEA 000000018002e210     BVHStructureBuilder.obj
 0002:00000218       ?minV3Error$initializer$@_VecMathTests@aos@shdfnd@physx@@3P6AXXZEA 000000018002e218     BVHStructureBuilder.obj
 0002:00000220       ?maxV3Error$initializer$@_VecMathTests@aos@shdfnd@physx@@3P6AXXZEA 000000018002e220     BVHStructureBuilder.obj
 0002:00000228       ?minV4Error$initializer$@_VecMathTests@aos@shdfnd@physx@@3P6AXXZEA 000000018002e228     BVHStructureBuilder.obj
 0002:00000230       ?maxV4Error$initializer$@_VecMathTests@aos@shdfnd@physx@@3P6AXXZEA 000000018002e230     BVHStructureBuilder.obj
 0002:00000238       ?minFError$initializer$@_VecMathTests@aos@shdfnd@physx@@3P6AXXZEA 000000018002e238     RTreeCooking.obj
 0002:00000240       ?maxFError$initializer$@_VecMathTests@aos@shdfnd@physx@@3P6AXXZEA 000000018002e240     RTreeCooking.obj
 0002:00000248       ?minV3Error$initializer$@_VecMathTests@aos@shdfnd@physx@@3P6AXXZEA 000000018002e248     RTreeCooking.obj
 0002:00000250       ?maxV3Error$initializer$@_VecMathTests@aos@shdfnd@physx@@3P6AXXZEA 000000018002e250     RTreeCooking.obj
 0002:00000258       ?minV4Error$initializer$@_VecMathTests@aos@shdfnd@physx@@3P6AXXZEA 000000018002e258     RTreeCooking.obj
 0002:00000260       ?maxV4Error$initializer$@_VecMathTests@aos@shdfnd@physx@@3P6AXXZEA 000000018002e260     RTreeCooking.obj
 0002:00000268       ?minFError$initializer$@_VecMathTests@aos@shdfnd@physx@@3P6AXXZEA 000000018002e268     MeshBuilder.obj
 0002:00000270       ?maxFError$initializer$@_VecMathTests@aos@shdfnd@physx@@3P6AXXZEA 000000018002e270     MeshBuilder.obj
 0002:00000278       ?minV3Error$initializer$@_VecMathTests@aos@shdfnd@physx@@3P6AXXZEA 000000018002e278     MeshBuilder.obj
 0002:00000280       ?maxV3Error$initializer$@_VecMathTests@aos@shdfnd@physx@@3P6AXXZEA 000000018002e280     MeshBuilder.obj
 0002:00000288       ?minV4Error$initializer$@_VecMathTests@aos@shdfnd@physx@@3P6AXXZEA 000000018002e288     MeshBuilder.obj
 0002:00000290       ?maxV4Error$initializer$@_VecMathTests@aos@shdfnd@physx@@3P6AXXZEA 000000018002e290     MeshBuilder.obj
 0002:00000298       ?minFError$initializer$@_VecMathTests@aos@shdfnd@physx@@3P6AXXZEA 000000018002e298     TriangleMeshBuilder.obj
 0002:000002a0       ?maxFError$initializer$@_VecMathTests@aos@shdfnd@physx@@3P6AXXZEA 000000018002e2a0     TriangleMeshBuilder.obj
 0002:000002a8       ?minV3Error$initializer$@_VecMathTests@aos@shdfnd@physx@@3P6AXXZEA 000000018002e2a8     TriangleMeshBuilder.obj
 0002:000002b0       ?maxV3Error$initializer$@_VecMathTests@aos@shdfnd@physx@@3P6AXXZEA 000000018002e2b0     TriangleMeshBuilder.obj
 0002:000002b8       ?minV4Error$initializer$@_VecMathTests@aos@shdfnd@physx@@3P6AXXZEA 000000018002e2b8     TriangleMeshBuilder.obj
 0002:000002c0       ?maxV4Error$initializer$@_VecMathTests@aos@shdfnd@physx@@3P6AXXZEA 000000018002e2c0     TriangleMeshBuilder.obj
 0002:000002c8       ?minFError$initializer$@_VecMathTests@aos@shdfnd@physx@@3P6AXXZEA 000000018002e2c8     BigConvexDataBuilder.obj
 0002:000002d0       ?maxFError$initializer$@_VecMathTests@aos@shdfnd@physx@@3P6AXXZEA 000000018002e2d0     BigConvexDataBuilder.obj
 0002:000002d8       ?minV3Error$initializer$@_VecMathTests@aos@shdfnd@physx@@3P6AXXZEA 000000018002e2d8     BigConvexDataBuilder.obj
 0002:000002e0       ?maxV3Error$initializer$@_VecMathTests@aos@shdfnd@physx@@3P6AXXZEA 000000018002e2e0     BigConvexDataBuilder.obj
 0002:000002e8       ?minV4Error$initializer$@_VecMathTests@aos@shdfnd@physx@@3P6AXXZEA 000000018002e2e8     BigConvexDataBuilder.obj
 0002:000002f0       ?maxV4Error$initializer$@_VecMathTests@aos@shdfnd@physx@@3P6AXXZEA 000000018002e2f0     BigConvexDataBuilder.obj
 0002:000002f8       ?minFError$initializer$@_VecMathTests@aos@shdfnd@physx@@3P6AXXZEA 000000018002e2f8     ConvexHullBuilder.obj
 0002:00000300       ?maxFError$initializer$@_VecMathTests@aos@shdfnd@physx@@3P6AXXZEA 000000018002e300     ConvexHullBuilder.obj
 0002:00000308       ?minV3Error$initializer$@_VecMathTests@aos@shdfnd@physx@@3P6AXXZEA 000000018002e308     ConvexHullBuilder.obj
 0002:00000310       ?maxV3Error$initializer$@_VecMathTests@aos@shdfnd@physx@@3P6AXXZEA 000000018002e310     ConvexHullBuilder.obj
 0002:00000318       ?minV4Error$initializer$@_VecMathTests@aos@shdfnd@physx@@3P6AXXZEA 000000018002e318     ConvexHullBuilder.obj
 0002:00000320       ?maxV4Error$initializer$@_VecMathTests@aos@shdfnd@physx@@3P6AXXZEA 000000018002e320     ConvexHullBuilder.obj
 0002:00000328       ?minFError$initializer$@_VecMathTests@aos@shdfnd@physx@@3P6AXXZEA 000000018002e328     ConvexHullUtils.obj
 0002:00000330       ?maxFError$initializer$@_VecMathTests@aos@shdfnd@physx@@3P6AXXZEA 000000018002e330     ConvexHullUtils.obj
 0002:00000338       ?minV3Error$initializer$@_VecMathTests@aos@shdfnd@physx@@3P6AXXZEA 000000018002e338     ConvexHullUtils.obj
 0002:00000340       ?maxV3Error$initializer$@_VecMathTests@aos@shdfnd@physx@@3P6AXXZEA 000000018002e340     ConvexHullUtils.obj
 0002:00000348       ?minV4Error$initializer$@_VecMathTests@aos@shdfnd@physx@@3P6AXXZEA 000000018002e348     ConvexHullUtils.obj
 0002:00000350       ?maxV4Error$initializer$@_VecMathTests@aos@shdfnd@physx@@3P6AXXZEA 000000018002e350     ConvexHullUtils.obj
 0002:00000358       ?minFError$initializer$@_VecMathTests@aos@shdfnd@physx@@3P6AXXZEA 000000018002e358     ConvexMeshBuilder.obj
 0002:00000360       ?maxFError$initializer$@_VecMathTests@aos@shdfnd@physx@@3P6AXXZEA 000000018002e360     ConvexMeshBuilder.obj
 0002:00000368       ?minV3Error$initializer$@_VecMathTests@aos@shdfnd@physx@@3P6AXXZEA 000000018002e368     ConvexMeshBuilder.obj
 0002:00000370       ?maxV3Error$initializer$@_VecMathTests@aos@shdfnd@physx@@3P6AXXZEA 000000018002e370     ConvexMeshBuilder.obj
 0002:00000378       ?minV4Error$initializer$@_VecMathTests@aos@shdfnd@physx@@3P6AXXZEA 000000018002e378     ConvexMeshBuilder.obj
 0002:00000380       ?maxV4Error$initializer$@_VecMathTests@aos@shdfnd@physx@@3P6AXXZEA 000000018002e380     ConvexMeshBuilder.obj
 0002:00000388       ?minFError$initializer$@_VecMathTests@aos@shdfnd@physx@@3P6AXXZEA 000000018002e388     VolumeIntegration.obj
 0002:00000390       ?maxFError$initializer$@_VecMathTests@aos@shdfnd@physx@@3P6AXXZEA 000000018002e390     VolumeIntegration.obj
 0002:00000398       ?minV3Error$initializer$@_VecMathTests@aos@shdfnd@physx@@3P6AXXZEA 000000018002e398     VolumeIntegration.obj
 0002:000003a0       ?maxV3Error$initializer$@_VecMathTests@aos@shdfnd@physx@@3P6AXXZEA 000000018002e3a0     VolumeIntegration.obj
 0002:000003a8       ?minV4Error$initializer$@_VecMathTests@aos@shdfnd@physx@@3P6AXXZEA 000000018002e3a8     VolumeIntegration.obj
 0002:000003b0       ?maxV4Error$initializer$@_VecMathTests@aos@shdfnd@physx@@3P6AXXZEA 000000018002e3b0     VolumeIntegration.obj
 0002:000006e0       ?minus1w@?A0xc2507840@aos@shdfnd@physx@@3QBMB 000000018002e6e0     Cooking.obj
 0002:000006f0       ?gMaskXYZ@internalWindowsSimd@aos@shdfnd@physx@@3QBIB 000000018002e6f0     Cooking.obj
 0002:00000ef0       ?minus1w@?A0x6b5d8c50@aos@shdfnd@physx@@3QBMB 000000018002eef0     BVHStructureBuilder.obj
 0002:00000f00       ?gMaskXYZ@internalWindowsSimd@aos@shdfnd@physx@@3QBIB 000000018002ef00     BVHStructureBuilder.obj
 0002:00000fa0       ?minus1w@?A0x6a78e451@aos@shdfnd@physx@@3QBMB 000000018002efa0     RTreeCooking.obj
 0002:00000fb0       ?gMaskXYZ@internalWindowsSimd@aos@shdfnd@physx@@3QBIB 000000018002efb0     RTreeCooking.obj
 0002:00000fc0       ?stopAtTrisPerPage@physx@@3QBIB 000000018002efc0     RTreeCooking.obj
 0002:00001000       ?stopAtTrisPerLeaf@physx@@3QBIB 000000018002f000     RTreeCooking.obj
 0002:00001130       ?minus1w@?A0x9997f86a@aos@shdfnd@physx@@3QBMB 000000018002f130     MeshBuilder.obj
 0002:00001140       ?gMaskXYZ@internalWindowsSimd@aos@shdfnd@physx@@3QBIB 000000018002f140     MeshBuilder.obj
 0002:00001160       ?minus1w@?A0x156c7994@aos@shdfnd@physx@@3QBMB 000000018002f160     TriangleMeshBuilder.obj
 0002:00001170       ?gMaskXYZ@internalWindowsSimd@aos@shdfnd@physx@@3QBIB 000000018002f170     TriangleMeshBuilder.obj
 0002:000014e0       ?minus1w@?A0x5893c27f@aos@shdfnd@physx@@3QBMB 000000018002f4e0     BigConvexDataBuilder.obj
 0002:000014f0       ?gMaskXYZ@internalWindowsSimd@aos@shdfnd@physx@@3QBIB 000000018002f4f0     BigConvexDataBuilder.obj
 0002:00001550       ?minus1w@?A0xf19bf748@aos@shdfnd@physx@@3QBMB 000000018002f550     ConvexHullBuilder.obj
 0002:00001560       ?gMaskXYZ@internalWindowsSimd@aos@shdfnd@physx@@3QBIB 000000018002f560     ConvexHullBuilder.obj
 0002:00001920       ?minus1w@?A0x966c5594@aos@shdfnd@physx@@3QBMB 000000018002f920     ConvexHullUtils.obj
 0002:00001930       ?gMaskXYZ@internalWindowsSimd@aos@shdfnd@physx@@3QBIB 000000018002f930     ConvexHullUtils.obj
 0002:000019a0       ?minus1w@?A0x3f3f571d@aos@shdfnd@physx@@3QBMB 000000018002f9a0     ConvexMeshBuilder.obj
 0002:000019b0       ?gMaskXYZ@internalWindowsSimd@aos@shdfnd@physx@@3QBIB 000000018002f9b0     ConvexMeshBuilder.obj
 0002:00001ee0       ?minus1w@?A0x7075e46c@aos@shdfnd@physx@@3QBMB 000000018002fee0     VolumeIntegration.obj
 0002:00001ef0       ?gMaskXYZ@internalWindowsSimd@aos@shdfnd@physx@@3QBIB 000000018002fef0     VolumeIntegration.obj
 0002:000025e8       $unwind$??_H@YAXPEAX_K1P6APEAX0@Z@Z 00000001800305e8     Adjacencies.obj
 0002:000025fc       $unwind$??_I@YAXPEAX_K1P6AX0@Z@Z 00000001800305fc     Adjacencies.obj
 0002:00002610       $unwind$??_GPxFoundation@physx@@MEAAPEAXI@Z 0000000180030610     Adjacencies.obj
 0002:00002618       $unwind$??_EPxFoundation@physx@@MEAAPEAXI@Z 0000000180030618     Adjacencies.obj
 0002:00002620       $chain$0$??_EPxFoundation@physx@@MEAAPEAXI@Z 0000000180030620     Adjacencies.obj
 0002:00002634       $chain$1$??_EPxFoundation@physx@@MEAAPEAXI@Z 0000000180030634     Adjacencies.obj
 0002:00002644       $unwind$??_EAdjTriangle@physx@@QEAAPEAXI@Z 0000000180030644     Adjacencies.obj
 0002:0000264c       $unwind$??1Adjacencies@physx@@QEAA@XZ 000000018003064c     Adjacencies.obj
 0002:00002654       $chain$0$??1Adjacencies@physx@@QEAA@XZ 0000000180030654     Adjacencies.obj
 0002:00002668       $chain$2$??1Adjacencies@physx@@QEAA@XZ 0000000180030668     Adjacencies.obj
 0002:0000267c       $chain$3$??1Adjacencies@physx@@QEAA@XZ 000000018003067c     Adjacencies.obj
 0002:0000268c       $unwind$?Load@Adjacencies@physx@@QEAA_NAEAVPxInputStream@2@@Z 000000018003068c     Adjacencies.obj
 0002:000026a0       $chain$2$?Load@Adjacencies@physx@@QEAA_NAEAVPxInputStream@2@@Z 00000001800306a0     Adjacencies.obj
 0002:000026b4       $chain$3$?Load@Adjacencies@physx@@QEAA_NAEAVPxInputStream@2@@Z 00000001800306b4     Adjacencies.obj
 0002:000026c4       $unwind$?GetBoundaryVertices@Adjacencies@physx@@QEBA_NIPEA_NPEBU?$TriangleT@I@Gu@2@@Z 00000001800306c4     Adjacencies.obj
 0002:000026d8       $unwind$?MakeLastRef@Adjacencies@physx@@QEAA_NAEAVAdjTriangle@2@IPEAU?$TriangleT@I@Gu@2@@Z 00000001800306d8     Adjacencies.obj
 0002:000026e0       $chain$0$?MakeLastRef@Adjacencies@physx@@QEAA_NAEAVAdjTriangle@2@IPEAU?$TriangleT@I@Gu@2@@Z 00000001800306e0     Adjacencies.obj
 0002:000026f4       $chain$3$?MakeLastRef@Adjacencies@physx@@QEAA_NAEAVAdjTriangle@2@IPEAU?$TriangleT@I@Gu@2@@Z 00000001800306f4     Adjacencies.obj
 0002:0000270c       $chain$5$?MakeLastRef@Adjacencies@physx@@QEAA_NAEAVAdjTriangle@2@IPEAU?$TriangleT@I@Gu@2@@Z 000000018003070c     Adjacencies.obj
 0002:00002720       $unwind$?Init@AdjacenciesBuilder@physx@@QEAA_NAEBUADJACENCIESCREATE@2@@Z 0000000180030720     Adjacencies.obj
 0002:0000272c       $chain$1$?Init@AdjacenciesBuilder@physx@@QEAA_NAEBUADJACENCIESCREATE@2@@Z 000000018003072c     Adjacencies.obj
 0002:00002744       $chain$2$?Init@AdjacenciesBuilder@physx@@QEAA_NAEBUADJACENCIESCREATE@2@@Z 0000000180030744     Adjacencies.obj
 0002:00002758       $chain$5$?Init@AdjacenciesBuilder@physx@@QEAA_NAEBUADJACENCIESCREATE@2@@Z 0000000180030758     Adjacencies.obj
 0002:00002774       $chain$6$?Init@AdjacenciesBuilder@physx@@QEAA_NAEBUADJACENCIESCREATE@2@@Z 0000000180030774     Adjacencies.obj
 0002:0000278c       $chain$7$?Init@AdjacenciesBuilder@physx@@QEAA_NAEBUADJACENCIESCREATE@2@@Z 000000018003078c     Adjacencies.obj
 0002:000027a0       $chain$8$?Init@AdjacenciesBuilder@physx@@QEAA_NAEBUADJACENCIESCREATE@2@@Z 00000001800307a0     Adjacencies.obj
 0002:000027b8       $unwind$??_EAdjEdge@@QEAAPEAXI@Z 00000001800307b8     Adjacencies.obj
 0002:000027c0       $unwind$?AddTriangle@@YAXIIIIPEAVAdjTriangle@physx@@AEAIPEAVAdjEdge@@@Z 00000001800307c0     Adjacencies.obj
 0002:000027cc       $unwind$?UpdateLink@@YA_NIIIIPEAVAdjTriangle@physx@@AEBUADJACENCIESCREATE@2@@Z 00000001800307cc     Adjacencies.obj
 0002:000027d8       $chain$3$?UpdateLink@@YA_NIIIIPEAVAdjTriangle@physx@@AEBUADJACENCIESCREATE@2@@Z 00000001800307d8     Adjacencies.obj
 0002:000027f8       $chain$5$?UpdateLink@@YA_NIIIIPEAVAdjTriangle@physx@@AEBUADJACENCIESCREATE@2@@Z 00000001800307f8     Adjacencies.obj
 0002:00002810       $chain$6$?UpdateLink@@YA_NIIIIPEAVAdjTriangle@physx@@AEBUADJACENCIESCREATE@2@@Z 0000000180030810     Adjacencies.obj
 0002:00002820       $chain$7$?UpdateLink@@YA_NIIIIPEAVAdjTriangle@physx@@AEBUADJACENCIESCREATE@2@@Z 0000000180030820     Adjacencies.obj
 0002:00002838       $chain$8$?UpdateLink@@YA_NIIIIPEAVAdjTriangle@physx@@AEBUADJACENCIESCREATE@2@@Z 0000000180030838     Adjacencies.obj
 0002:00002848       $unwind$?CreateDatabase@@YA_NPEAVAdjTriangle@physx@@IPEBVAdjEdge@@AEBUADJACENCIESCREATE@2@@Z 0000000180030848     Adjacencies.obj
 0002:00002864       $unwind$??_GPxBase@physx@@MEAAPEAXI@Z 0000000180030864     Cooking.obj
 0002:0000286c       $unwind$?isKindOf@PxConvexMesh@physx@@MEBA_NPEBD@Z 000000018003086c     Cooking.obj
 0002:00002874       $unwind$??_EPxConvexMesh@physx@@MEAAPEAXI@Z 0000000180030874     Cooking.obj
 0002:0000287c       $chain$0$??_EPxConvexMesh@physx@@MEAAPEAXI@Z 000000018003087c     Cooking.obj
 0002:00002890       $chain$1$??_EPxConvexMesh@physx@@MEAAPEAXI@Z 0000000180030890     Cooking.obj
 0002:000028a0       $unwind$??_GPxCooking@physx@@MEAAPEAXI@Z 00000001800308a0     Cooking.obj
 0002:000028a8       $unwind$PxCreateCooking    00000001800308a8     Cooking.obj
 0002:000028b4       $unwind$?release@Cooking@physx@@UEAAXXZ 00000001800308b4     Cooking.obj
 0002:000028bc       $unwind$?cookTriangleMesh@Cooking@physx@@UEBA_NAEBVPxTriangleMeshDesc@2@AEAVPxOutputStream@2@PEAW4Enum@PxTriangleMeshCookingResult@2@@Z 00000001800308bc     Cooking.obj
 0002:000028d8       $unwind$?createTriangleMesh@Cooking@physx@@UEBAPEAVPxTriangleMesh@2@AEBVPxTriangleMeshDesc@2@AEAVPxPhysicsInsertionCallback@2@PEAW4Enum@PxTriangleMeshCookingResult@2@@Z 00000001800308d8     Cooking.obj
 0002:000028f4       $unwind$?validateTriangleMesh@Cooking@physx@@UEBA_NAEBVPxTriangleMeshDesc@2@@Z 00000001800308f4     Cooking.obj
 0002:00002904       $unwind$?cookConvexMesh@Cooking@physx@@UEBA_NAEBVPxConvexMeshDesc@2@AEAVPxOutputStream@2@PEAW4Enum@PxConvexMeshCookingResult@2@@Z 0000000180030904     Cooking.obj
 0002:00002920       $unwind$?createConvexMesh@Cooking@physx@@UEBAPEAVPxConvexMesh@2@AEBVPxConvexMeshDesc@2@AEAVPxPhysicsInsertionCallback@2@PEAW4Enum@PxConvexMeshCookingResult@2@@Z 0000000180030920     Cooking.obj
 0002:0000293c       $unwind$?validateConvexMesh@Cooking@physx@@UEBA_NAEBVPxConvexMeshDesc@2@@Z 000000018003093c     Cooking.obj
 0002:0000294c       $unwind$?computeHullPolygons@Cooking@physx@@UEBA_NAEBVPxSimpleTriangleMesh@2@AEAVPxAllocatorCallback@2@AEAIAEAPEAVPxVec3@2@2AEAPEAI2AEAPEAUPxHullPolygon@2@@Z 000000018003094c     Cooking.obj
 0002:0000296c       $unwind$?cookHeightField@Cooking@physx@@UEBA_NAEBVPxHeightFieldDesc@2@AEAVPxOutputStream@2@@Z 000000018003096c     Cooking.obj
 0002:00002980       $unwind$?createHeightField@Cooking@physx@@UEBAPEAVPxHeightField@2@AEBVPxHeightFieldDesc@2@AEAVPxPhysicsInsertionCallback@2@@Z 0000000180030980     Cooking.obj
 0002:00002990       $unwind$?cookBVHStructure@Cooking@physx@@UEBA_NAEBVPxBVHStructureDesc@2@AEAVPxOutputStream@2@@Z 0000000180030990     Cooking.obj
 0002:000029a0       $unwind$?createBVHStructure@Cooking@physx@@UEBAPEAVPxBVHStructure@2@AEBVPxBVHStructureDesc@2@AEAVPxPhysicsInsertionCallback@2@@Z 00000001800309a0     Cooking.obj
 0002:000029ac       $unwind$?cookConvexMeshInternal@Cooking@physx@@AEBA_NAEBVPxConvexMeshDesc@2@AEAVConvexMeshBuilder@2@PEAVConvexHullLib@2@PEAW4Enum@PxConvexMeshCookingResult@2@@Z 00000001800309ac     Cooking.obj
 0002:000029c4       $unwind$?cookTriangleMesh@Cooking@physx@@AEBA_NAEAVTriangleMeshBuilder@2@AEBVPxTriangleMeshDesc@2@AEAVPxOutputStream@2@PEAW4Enum@PxTriangleMeshCookingResult@2@@Z 00000001800309c4     Cooking.obj
 0002:000029d8       $unwind$?createTriangleMesh@Cooking@physx@@AEBAPEAVPxTriangleMesh@2@AEAVTriangleMeshBuilder@2@AEBVPxTriangleMeshDesc@2@AEAVPxPhysicsInsertionCallback@2@PEAW4Enum@PxTriangleMeshCookingResult@2@@Z 00000001800309d8     Cooking.obj
 0002:000029f0       $unwind$??_GCooking@physx@@UEAAPEAXI@Z 00000001800309f0     Cooking.obj
 0002:000029f8       $unwind$??_GRefCountable@Cm@physx@@UEAAPEAXI@Z 00000001800309f8     Cooking.obj
 0002:00002a00       $unwind$?allocate@?$ReflectionAllocator@UPxDebugLine@physx@@@shdfnd@physx@@QEAAPEAX_KPEBDH@Z 0000000180030a00     Cooking.obj
 0002:00002a10       $chain$0$?allocate@?$ReflectionAllocator@UPxDebugLine@physx@@@shdfnd@physx@@QEAAPEAX_KPEBDH@Z 0000000180030a10     Cooking.obj
 0002:00002a24       $chain$1$?allocate@?$ReflectionAllocator@UPxDebugLine@physx@@@shdfnd@physx@@QEAAPEAX_KPEBDH@Z 0000000180030a24     Cooking.obj
 0002:00002a34       $unwind$?copy@?$Array@UPxDebugLine@physx@@V?$ReflectionAllocator@UPxDebugLine@physx@@@shdfnd@2@@shdfnd@physx@@KAXPEAUPxDebugLine@3@0PEBU43@@Z 0000000180030a34     Cooking.obj
 0002:00002a3c       $chain$0$?copy@?$Array@UPxDebugLine@physx@@V?$ReflectionAllocator@UPxDebugLine@physx@@@shdfnd@2@@shdfnd@physx@@KAXPEAUPxDebugLine@3@0PEBU43@@Z 0000000180030a3c     Cooking.obj
 0002:00002a50       $chain$1$?copy@?$Array@UPxDebugLine@physx@@V?$ReflectionAllocator@UPxDebugLine@physx@@@shdfnd@2@@shdfnd@physx@@KAXPEAUPxDebugLine@3@0PEBU43@@Z 0000000180030a50     Cooking.obj
 0002:00002a60       $unwind$?recreate@?$Array@UPxDebugLine@physx@@V?$ReflectionAllocator@UPxDebugLine@physx@@@shdfnd@2@@shdfnd@physx@@IEAAXI@Z 0000000180030a60     Cooking.obj
 0002:00002a74       $unwind$?reserveSegments@RenderOutput@Cm@physx@@QEAAPEAUPxDebugLine@3@I@Z 0000000180030a74     Cooking.obj
 0002:00002a80       $unwind$?outputSegment@RenderOutput@Cm@physx@@QEAAXAEBVPxVec3@3@0@Z 0000000180030a80     Cooking.obj
 0002:00002a98       $unwind$??_EConvexMesh@Gu@physx@@UEAAPEAXI@Z 0000000180030a98     Cooking.obj
 0002:00002aa4       $chain$2$??_EConvexMesh@Gu@physx@@UEAAPEAXI@Z 0000000180030aa4     Cooking.obj
 0002:00002ac0       $chain$3$??_EConvexMesh@Gu@physx@@UEAAPEAXI@Z 0000000180030ac0     Cooking.obj
 0002:00002ad4       $chain$5$??_EConvexMesh@Gu@physx@@UEAAPEAXI@Z 0000000180030ad4     Cooking.obj
 0002:00002ae8       $chain$6$??_EConvexMesh@Gu@physx@@UEAAPEAXI@Z 0000000180030ae8     Cooking.obj
 0002:00002af8       $unwind$?isKindOf@PxHeightField@physx@@MEBA_NPEBD@Z 0000000180030af8     Cooking.obj
 0002:00002b00       $unwind$?getHeight@HeightField@Gu@physx@@UEBAMMM@Z 0000000180030b00     Cooking.obj
 0002:00002b08       $unwind$?getTriangleNormal@HeightField@Gu@physx@@UEBA?AVPxVec3@3@I@Z 0000000180030b08     Cooking.obj
 0002:00002b10       $unwind$?getHeightInternal2@HeightField@Gu@physx@@QEBAMIMM@Z 0000000180030b10     Cooking.obj
 0002:00002b1c       $chain$0$?getHeightInternal2@HeightField@Gu@physx@@QEBAMIMM@Z 0000000180030b1c     Cooking.obj
 0002:00002b30       $chain$2$?getHeightInternal2@HeightField@Gu@physx@@QEBAMIMM@Z 0000000180030b30     Cooking.obj
 0002:00002b44       $unwind$?getTriangleNormalInternal@HeightField@Gu@physx@@QEBA?AVPxVec3@3@I@Z 0000000180030b44     Cooking.obj
 0002:00002b54       $unwind$??1ReducedVertexCloud@physx@@QEAA@XZ 0000000180030b54     CookingUtils.obj
 0002:00002b60       $unwind$?Clean@ReducedVertexCloud@physx@@QEAAAEAV12@XZ 0000000180030b60     CookingUtils.obj
 0002:00002b6c       $unwind$?Reduce@ReducedVertexCloud@physx@@QEAA_NPEAUREDUCEDCLOUD@2@@Z 0000000180030b6c     CookingUtils.obj
 0002:00002b88       $unwind$??1EdgeList@Gu@physx@@QEAA@XZ 0000000180030b88     EdgeList.obj
 0002:00002b98       $unwind$?load@EdgeList@Gu@physx@@QEAA_NAEAVPxInputStream@3@@Z 0000000180030b98     EdgeList.obj
 0002:00002bb0       $unwind$?init@EdgeListBuilder@Gu@physx@@QEAA_NAEBUEDGELISTCREATE@23@@Z 0000000180030bb0     EdgeList.obj
 0002:00002bc0       $unwind$?createFacesToEdges@EdgeListBuilder@Gu@physx@@AEAA_NIPEBIPEBG@Z 0000000180030bc0     EdgeList.obj
 0002:00002bd0       $chain$0$?createFacesToEdges@EdgeListBuilder@Gu@physx@@AEAA_NIPEBIPEBG@Z 0000000180030bd0     EdgeList.obj
 0002:00002be4       $chain$1$?createFacesToEdges@EdgeListBuilder@Gu@physx@@AEAA_NIPEBIPEBG@Z 0000000180030be4     EdgeList.obj
 0002:00002bf8       $chain$2$?createFacesToEdges@EdgeListBuilder@Gu@physx@@AEAA_NIPEBIPEBG@Z 0000000180030bf8     EdgeList.obj
 0002:00002c0c       $chain$3$?createFacesToEdges@EdgeListBuilder@Gu@physx@@AEAA_NIPEBIPEBG@Z 0000000180030c0c     EdgeList.obj
 0002:00002c20       $chain$4$?createFacesToEdges@EdgeListBuilder@Gu@physx@@AEAA_NIPEBIPEBG@Z 0000000180030c20     EdgeList.obj
 0002:00002c30       $chain$5$?createFacesToEdges@EdgeListBuilder@Gu@physx@@AEAA_NIPEBIPEBG@Z 0000000180030c30     EdgeList.obj
 0002:00002c40       $chain$6$?createFacesToEdges@EdgeListBuilder@Gu@physx@@AEAA_NIPEBIPEBG@Z 0000000180030c40     EdgeList.obj
 0002:00002c50       $chain$7$?createFacesToEdges@EdgeListBuilder@Gu@physx@@AEAA_NIPEBIPEBG@Z 0000000180030c50     EdgeList.obj
 0002:00002c60       $unwind$?createEdgesToFaces@EdgeListBuilder@Gu@physx@@AEAA_NIPEBIPEBG@Z 0000000180030c60     EdgeList.obj
 0002:00002c6c       $chain$1$?createEdgesToFaces@EdgeListBuilder@Gu@physx@@AEAA_NIPEBIPEBG@Z 0000000180030c6c     EdgeList.obj
 0002:00002c84       $chain$2$?createEdgesToFaces@EdgeListBuilder@Gu@physx@@AEAA_NIPEBIPEBG@Z 0000000180030c84     EdgeList.obj
 0002:00002c98       $unwind$?computeActiveEdges@EdgeListBuilder@Gu@physx@@AEAA_NIPEBIPEBGPEBVPxVec3@3@M@Z 0000000180030c98     EdgeList.obj
 0002:00002ca8       $chain$1$?computeActiveEdges@EdgeListBuilder@Gu@physx@@AEAA_NIPEBIPEBGPEBVPxVec3@3@M@Z 0000000180030ca8     EdgeList.obj
 0002:00002cc0       $chain$14$?computeActiveEdges@EdgeListBuilder@Gu@physx@@AEAA_NIPEBIPEBGPEBVPxVec3@3@M@Z 0000000180030cc0     EdgeList.obj
 0002:00002d04       $chain$15$?computeActiveEdges@EdgeListBuilder@Gu@physx@@AEAA_NIPEBIPEBGPEBVPxVec3@3@M@Z 0000000180030d04     EdgeList.obj
 0002:00002d1c       $chain$16$?computeActiveEdges@EdgeListBuilder@Gu@physx@@AEAA_NIPEBIPEBGPEBVPxVec3@3@M@Z 0000000180030d1c     EdgeList.obj
 0002:00002d38       $chain$17$?computeActiveEdges@EdgeListBuilder@Gu@physx@@AEAA_NIPEBIPEBGPEBVPxVec3@3@M@Z 0000000180030d38     EdgeList.obj
 0002:00002d50       $chain$18$?computeActiveEdges@EdgeListBuilder@Gu@physx@@AEAA_NIPEBIPEBGPEBVPxVec3@3@M@Z 0000000180030d50     EdgeList.obj
 0002:00002d60       $unwind$??0MeshCleaner@physx@@QEAA@IPEBVPxVec3@1@IPEBIM@Z 0000000180030d60     MeshCleaner.obj
 0002:00002d6c       $chain$1$??0MeshCleaner@physx@@QEAA@IPEBVPxVec3@1@IPEBIM@Z 0000000180030d6c     MeshCleaner.obj
 0002:00002d84       $chain$5$??0MeshCleaner@physx@@QEAA@IPEBVPxVec3@1@IPEBIM@Z 0000000180030d84     MeshCleaner.obj
 0002:00002da4       $chain$7$??0MeshCleaner@physx@@QEAA@IPEBVPxVec3@1@IPEBIM@Z 0000000180030da4     MeshCleaner.obj
 0002:00002dbc       $chain$8$??0MeshCleaner@physx@@QEAA@IPEBVPxVec3@1@IPEBIM@Z 0000000180030dbc     MeshCleaner.obj
 0002:00002dd0       $chain$9$??0MeshCleaner@physx@@QEAA@IPEBVPxVec3@1@IPEBIM@Z 0000000180030dd0     MeshCleaner.obj
 0002:00002de0       $chain$10$??0MeshCleaner@physx@@QEAA@IPEBVPxVec3@1@IPEBIM@Z 0000000180030de0     MeshCleaner.obj
 0002:00002df0       $chain$11$??0MeshCleaner@physx@@QEAA@IPEBVPxVec3@1@IPEBIM@Z 0000000180030df0     MeshCleaner.obj
 0002:00002e08       $chain$12$??0MeshCleaner@physx@@QEAA@IPEBVPxVec3@1@IPEBIM@Z 0000000180030e08     MeshCleaner.obj
 0002:00002e18       $chain$13$??0MeshCleaner@physx@@QEAA@IPEBVPxVec3@1@IPEBIM@Z 0000000180030e18     MeshCleaner.obj
 0002:00002e34       $chain$14$??0MeshCleaner@physx@@QEAA@IPEBVPxVec3@1@IPEBIM@Z 0000000180030e34     MeshCleaner.obj
 0002:00002e4c       $chain$15$??0MeshCleaner@physx@@QEAA@IPEBVPxVec3@1@IPEBIM@Z 0000000180030e4c     MeshCleaner.obj
 0002:00002e5c       $unwind$??1MeshCleaner@physx@@QEAA@XZ 0000000180030e5c     MeshCleaner.obj
 0002:00002e6c       $unwind$??_GQuantizer@physx@@MEAAPEAXI@Z 0000000180030e6c     Quantizer.obj
 0002:00002e74       $unwind$?createQuantizer@physx@@YAPEAVQuantizer@1@XZ 0000000180030e74     Quantizer.obj
 0002:00002e7c       $unwind$??$kmeans_cluster@VPxVec3@physx@@M@@YAIPEBVPxVec3@physx@@IIPEAV01@PEAIMM@Z 0000000180030e7c     Quantizer.obj
 0002:00002e88       $chain$4$??$kmeans_cluster@VPxVec3@physx@@M@@YAIPEBVPxVec3@physx@@IIPEAV01@PEAIMM@Z 0000000180030e88     Quantizer.obj
 0002:00002eac       $chain$6$??$kmeans_cluster@VPxVec3@physx@@M@@YAIPEBVPxVec3@physx@@IIPEAV01@PEAIMM@Z 0000000180030eac     Quantizer.obj
 0002:00002ec4       $chain$9$??$kmeans_cluster@VPxVec3@physx@@M@@YAIPEBVPxVec3@physx@@IIPEAV01@PEAIMM@Z 0000000180030ec4     Quantizer.obj
 0002:00002ee0       $chain$10$??$kmeans_cluster@VPxVec3@physx@@M@@YAIPEBVPxVec3@physx@@IIPEAV01@PEAIMM@Z 0000000180030ee0     Quantizer.obj
 0002:00002ef0       $chain$11$??$kmeans_cluster@VPxVec3@physx@@M@@YAIPEBVPxVec3@physx@@IIPEAV01@PEAIMM@Z 0000000180030ef0     Quantizer.obj
 0002:00002f04       $chain$12$??$kmeans_cluster@VPxVec3@physx@@M@@YAIPEBVPxVec3@physx@@IIPEAV01@PEAIMM@Z 0000000180030f04     Quantizer.obj
 0002:00002f14       $unwind$?kmeansQuantize3D@QuantizerImpl@@UEAAPEBVPxVec3@physx@@IPEBV23@I_NIAEAI@Z 0000000180030f14     Quantizer.obj
 0002:00002f28       $chain$1$?kmeansQuantize3D@QuantizerImpl@@UEAAPEBVPxVec3@physx@@IPEBV23@I_NIAEAI@Z 0000000180030f28     Quantizer.obj
 0002:00002f40       $chain$2$?kmeansQuantize3D@QuantizerImpl@@UEAAPEBVPxVec3@physx@@IPEBV23@I_NIAEAI@Z 0000000180030f40     Quantizer.obj
 0002:00002f54       $chain$3$?kmeansQuantize3D@QuantizerImpl@@UEAAPEBVPxVec3@physx@@IPEBV23@I_NIAEAI@Z 0000000180030f54     Quantizer.obj
 0002:00002f64       $unwind$?normalizeInput@QuantizerImpl@@AEAAXIPEBVPxVec3@physx@@I@Z 0000000180030f64     Quantizer.obj
 0002:00002f84       $chain$0$?normalizeInput@QuantizerImpl@@AEAAXIPEBVPxVec3@physx@@I@Z 0000000180030f84     Quantizer.obj
 0002:00002f98       $chain$3$?normalizeInput@QuantizerImpl@@AEAAXIPEBVPxVec3@physx@@I@Z 0000000180030f98     Quantizer.obj
 0002:00002fb4       $chain$4$?normalizeInput@QuantizerImpl@@AEAAXIPEBVPxVec3@physx@@I@Z 0000000180030fb4     Quantizer.obj
 0002:00002fc4       $chain$5$?normalizeInput@QuantizerImpl@@AEAAXIPEBVPxVec3@physx@@I@Z 0000000180030fc4     Quantizer.obj
 0002:00002fd4       $chain$7$?normalizeInput@QuantizerImpl@@AEAAXIPEBVPxVec3@physx@@I@Z 0000000180030fd4     Quantizer.obj
 0002:00002fec       $chain$8$?normalizeInput@QuantizerImpl@@AEAAXIPEBVPxVec3@physx@@I@Z 0000000180030fec     Quantizer.obj
 0002:00002ffc       $unwind$??1QuantizerImpl@@EEAA@XZ 0000000180030ffc     Quantizer.obj
 0002:00003008       $unwind$?allocate@?$ReflectionAllocator@VPxVec3@physx@@@shdfnd@physx@@QEAAPEAX_KPEBDH@Z 0000000180031008     Quantizer.obj
 0002:00003018       $chain$0$?allocate@?$ReflectionAllocator@VPxVec3@physx@@@shdfnd@physx@@QEAAPEAX_KPEBDH@Z 0000000180031018     Quantizer.obj
 0002:0000302c       $chain$1$?allocate@?$ReflectionAllocator@VPxVec3@physx@@@shdfnd@physx@@QEAAPEAX_KPEBDH@Z 000000018003102c     Quantizer.obj
 0002:0000303c       $unwind$?growAndPushBack@?$Array@VPxVec3@physx@@V?$ReflectionAllocator@VPxVec3@physx@@@shdfnd@2@@shdfnd@physx@@IEAAAEAVPxVec3@3@AEBV43@@Z 000000018003103c     Quantizer.obj
 0002:00003054       $unwind$??_GQuantizerImpl@@EEAAPEAXI@Z 0000000180031054     Quantizer.obj
 0002:00003060       $unwind$??1BVHStructureBuilder@physx@@QEAA@XZ 0000000180031060     BVHStructureBuilder.obj
 0002:00003070       $unwind$?loadFromDesc@BVHStructureBuilder@physx@@QEAA_NAEBVPxBVHStructureDesc@2@@Z 0000000180031070     BVHStructureBuilder.obj
 0002:00003084       $unwind$?save@BVHStructureBuilder@physx@@QEBA_NAEAVPxOutputStream@2@_N@Z 0000000180031084     BVHStructureBuilder.obj
 0002:00003094       $chain$2$?save@BVHStructureBuilder@physx@@QEBA_NAEAVPxOutputStream@2@_N@Z 0000000180031094     BVHStructureBuilder.obj
 0002:000030ac       $chain$3$?save@BVHStructureBuilder@physx@@QEBA_NAEAVPxOutputStream@2@_N@Z 00000001800310ac     BVHStructureBuilder.obj
 0002:000030c0       $unwind$?flatten@@YAXAEBVNodeAllocator@Gu@physx@@PEAUBVHNode@23@@Z 00000001800310c0     BVHStructureBuilder.obj
 0002:000030cc       $chain$4$?flatten@@YAXAEBVNodeAllocator@Gu@physx@@PEAUBVHNode@23@@Z 00000001800310cc     BVHStructureBuilder.obj
 0002:000030f0       $chain$5$?flatten@@YAXAEBVNodeAllocator@Gu@physx@@PEAUBVHNode@23@@Z 00000001800310f0     BVHStructureBuilder.obj
 0002:00003100       $unwind$??1AABBTreeBuildParams@Gu@physx@@QEAA@XZ 0000000180031100     BVHStructureBuilder.obj
 0002:00003110       $unwind$?reset@AABBTreeBuildParams@Gu@physx@@QEAAXXZ 0000000180031110     BVHStructureBuilder.obj
 0002:00003120       $unwind$?allocate@?$ReflectionAllocator@USlab@NodeAllocator@Gu@physx@@@shdfnd@physx@@QEAAPEAX_KPEBDH@Z 0000000180031120     BVHStructureBuilder.obj
 0002:00003130       $chain$0$?allocate@?$ReflectionAllocator@USlab@NodeAllocator@Gu@physx@@@shdfnd@physx@@QEAAPEAX_KPEBDH@Z 0000000180031130     BVHStructureBuilder.obj
 0002:00003144       $chain$1$?allocate@?$ReflectionAllocator@USlab@NodeAllocator@Gu@physx@@@shdfnd@physx@@QEAAPEAX_KPEBDH@Z 0000000180031144     BVHStructureBuilder.obj
 0002:00003154       $unwind$?recreate@?$Array@USlab@NodeAllocator@Gu@physx@@V?$ReflectionAllocator@USlab@NodeAllocator@Gu@physx@@@shdfnd@4@@shdfnd@physx@@IEAAXI@Z 0000000180031154     BVHStructureBuilder.obj
 0002:00003168       $unwind$??$?4V?$ReflectionAllocator@USlab@NodeAllocator@Gu@physx@@@shdfnd@physx@@@?$Array@USlab@NodeAllocator@Gu@physx@@V?$ReflectionAllocator@USlab@NodeAllocator@Gu@physx@@@shdfnd@4@@shdfnd@physx@@QEAAAEAV012@AEBV012@@Z 0000000180031168     BVHStructureBuilder.obj
 0002:00003174       $unwind$??0NodeAllocator@Gu@physx@@QEAA@AEBV012@@Z 0000000180031174     BVHStructureBuilder.obj
 0002:00003180       $unwind$??4NodeAllocator@Gu@physx@@QEAAAEAV012@AEBV012@@Z 0000000180031180     BVHStructureBuilder.obj
 0002:0000318c       $unwind$??$copy@V?$ReflectionAllocator@USlab@NodeAllocator@Gu@physx@@@shdfnd@physx@@@?$Array@USlab@NodeAllocator@Gu@physx@@V?$ReflectionAllocator@USlab@NodeAllocator@Gu@physx@@@shdfnd@4@@shdfnd@physx@@IEAAXAEBV012@@Z 000000018003118c     BVHStructureBuilder.obj
 0002:00003198       $unwind$?saveHeightField@physx@@YA_NAEBVHeightField@Gu@1@AEAVPxOutputStream@1@_N@Z 0000000180031198     HeightFieldCooking.obj
 0002:000031a8       $chain$2$?saveHeightField@physx@@YA_NAEBVHeightField@Gu@1@AEAVPxOutputStream@1@_N@Z 00000001800311a8     HeightFieldCooking.obj
 0002:000031c0       $chain$3$?saveHeightField@physx@@YA_NAEBVHeightField@Gu@1@AEAVPxOutputStream@1@_N@Z 00000001800311c0     HeightFieldCooking.obj
 0002:000031d0       $unwind$?allocate@?$ReflectionAllocator@I@shdfnd@physx@@QEAAPEAX_KPEBDH@Z 00000001800311d0     RTreeCooking.obj
 0002:000031e0       $chain$0$?allocate@?$ReflectionAllocator@I@shdfnd@physx@@QEAAPEAX_KPEBDH@Z 00000001800311e0     RTreeCooking.obj
 0002:000031f4       $chain$1$?allocate@?$ReflectionAllocator@I@shdfnd@physx@@QEAAPEAX_KPEBDH@Z 00000001800311f4     RTreeCooking.obj
 0002:00003204       $unwind$?buildFromTriangles@RTreeCooker@physx@@SAXAEAURTree@Gu@2@PEBVPxVec3@2@IPEBGPEBIIAEAV?$Array@IV?$ReflectionAllocator@I@shdfnd@physx@@@shdfnd@2@PEAURemapCallback@12@MW4Enum@PxMeshCookingHint@2@@Z 0000000180031204     RTreeCooking.obj
 0002:00003214       $chain$6$?buildFromTriangles@RTreeCooker@physx@@SAXAEAURTree@Gu@2@PEBVPxVec3@2@IPEBGPEBIIAEAV?$Array@IV?$ReflectionAllocator@I@shdfnd@physx@@@shdfnd@2@PEAURemapCallback@12@MW4Enum@PxMeshCookingHint@2@@Z 0000000180031214     RTreeCooking.obj
 0002:00003240       $chain$7$?buildFromTriangles@RTreeCooker@physx@@SAXAEAURTree@Gu@2@PEBVPxVec3@2@IPEBGPEBIIAEAV?$Array@IV?$ReflectionAllocator@I@shdfnd@physx@@@shdfnd@2@PEAURemapCallback@12@MW4Enum@PxMeshCookingHint@2@@Z 0000000180031240     RTreeCooking.obj
 0002:00003254       $chain$8$?buildFromTriangles@RTreeCooker@physx@@SAXAEAURTree@Gu@2@PEBVPxVec3@2@IPEBGPEBIIAEAV?$Array@IV?$ReflectionAllocator@I@shdfnd@physx@@@shdfnd@2@PEAURemapCallback@12@MW4Enum@PxMeshCookingHint@2@@Z 0000000180031254     RTreeCooking.obj
 0002:00003264       $chain$9$?buildFromTriangles@RTreeCooker@physx@@SAXAEAURTree@Gu@2@PEBVPxVec3@2@IPEBGPEBIIAEAV?$Array@IV?$ReflectionAllocator@I@shdfnd@physx@@@shdfnd@2@PEAURemapCallback@12@MW4Enum@PxMeshCookingHint@2@@Z 0000000180031264     RTreeCooking.obj
 0002:00003274       $unwind$?buildFromBounds@physx@@YAXAEAURTree@Gu@1@PEBUPxBounds3V@1@IAEAV?$Array@IV?$ReflectionAllocator@I@shdfnd@physx@@@shdfnd@1@PEAURemapCallback@RTreeCooker@1@AEAT__m128@@4MW4Enum@PxMeshCookingHint@1@@Z 0000000180031274     RTreeCooking.obj
 0002:00003290       $unwind$?allocate@?$ReflectionAllocator@UPxBounds3V@physx@@@shdfnd@physx@@QEAAPEAX_KPEBDH@Z 0000000180031290     RTreeCooking.obj
 0002:000032a0       $chain$0$?allocate@?$ReflectionAllocator@UPxBounds3V@physx@@@shdfnd@physx@@QEAAPEAX_KPEBDH@Z 00000001800312a0     RTreeCooking.obj
 0002:000032b4       $chain$1$?allocate@?$ReflectionAllocator@UPxBounds3V@physx@@@shdfnd@physx@@QEAAPEAX_KPEBDH@Z 00000001800312b4     RTreeCooking.obj
 0002:000032c4       $unwind$?growAndPushBack@?$Array@UPxBounds3V@physx@@V?$ReflectionAllocator@UPxBounds3V@physx@@@shdfnd@2@@shdfnd@physx@@IEAAAEAUPxBounds3V@3@AEBU43@@Z 00000001800312c4     RTreeCooking.obj
 0002:000032d8       $unwind$?recreate@?$Array@UPxBounds3V@physx@@V?$ReflectionAllocator@UPxBounds3V@physx@@@shdfnd@2@@shdfnd@physx@@IEAAXI@Z 00000001800312d8     RTreeCooking.obj
 0002:000032ec       $unwind$?resize@?$Array@IV?$ReflectionAllocator@I@shdfnd@physx@@@shdfnd@physx@@QEAAXIAEBI@Z 00000001800312ec     RTreeCooking.obj
 0002:000032fc       $unwind$?growAndPushBack@?$Array@IV?$ReflectionAllocator@I@shdfnd@physx@@@shdfnd@physx@@IEAAAEAIAEBI@Z 00000001800312fc     RTreeCooking.obj
 0002:00003310       $unwind$?recreate@?$Array@IV?$ReflectionAllocator@I@shdfnd@physx@@@shdfnd@physx@@IEAAXI@Z 0000000180031310     RTreeCooking.obj
 0002:00003324       $unwind$?recreate@?$Array@VPxVec3@physx@@V?$ReflectionAllocator@VPxVec3@physx@@@shdfnd@2@@shdfnd@physx@@IEAAXI@Z 0000000180031324     RTreeCooking.obj
 0002:00003338       $unwind$??0SubSortQuick@physx@@QEAA@PEAIPEBUPxBounds3V@1@IM@Z 0000000180031338     RTreeCooking.obj
 0002:00003350       $unwind$?sort4@SubSortQuick@physx@@QEAAXPEIAIIAEAV?$Array@URTreeNodeNQ@physx@@V?$ReflectionAllocator@URTreeNodeNQ@physx@@@shdfnd@2@@shdfnd@2@AEAIAEAUPxBounds3V@2@I@Z 0000000180031350     RTreeCooking.obj
 0002:00003360       $unwind$?allocate@?$ReflectionAllocator@URTreeNodeNQ@physx@@@shdfnd@physx@@QEAAPEAX_KPEBDH@Z 0000000180031360     RTreeCooking.obj
 0002:00003370       $chain$0$?allocate@?$ReflectionAllocator@URTreeNodeNQ@physx@@@shdfnd@physx@@QEAAPEAX_KPEBDH@Z 0000000180031370     RTreeCooking.obj
 0002:00003384       $chain$1$?allocate@?$ReflectionAllocator@URTreeNodeNQ@physx@@@shdfnd@physx@@QEAAPEAX_KPEBDH@Z 0000000180031384     RTreeCooking.obj
 0002:00003394       $unwind$?resizeUninitialized@?$Array@URTreeNodeNQ@physx@@V?$ReflectionAllocator@URTreeNodeNQ@physx@@@shdfnd@2@@shdfnd@physx@@QEAAXI@Z 0000000180031394     RTreeCooking.obj
 0002:000033a0       $unwind$?copy@?$Array@URTreeNodeNQ@physx@@V?$ReflectionAllocator@URTreeNodeNQ@physx@@@shdfnd@2@@shdfnd@physx@@KAXPEAURTreeNodeNQ@3@0PEBU43@@Z 00000001800313a0     RTreeCooking.obj
 0002:000033a8       $chain$0$?copy@?$Array@URTreeNodeNQ@physx@@V?$ReflectionAllocator@URTreeNodeNQ@physx@@@shdfnd@2@@shdfnd@physx@@KAXPEAURTreeNodeNQ@3@0PEBU43@@Z 00000001800313a8     RTreeCooking.obj
 0002:000033bc       $chain$1$?copy@?$Array@URTreeNodeNQ@physx@@V?$ReflectionAllocator@URTreeNodeNQ@physx@@@shdfnd@2@@shdfnd@physx@@KAXPEAURTreeNodeNQ@3@0PEBU43@@Z 00000001800313bc     RTreeCooking.obj
 0002:000033cc       $unwind$?growAndPushBack@?$Array@URTreeNodeNQ@physx@@V?$ReflectionAllocator@URTreeNodeNQ@physx@@@shdfnd@2@@shdfnd@physx@@IEAAAEAURTreeNodeNQ@3@AEBU43@@Z 00000001800313cc     RTreeCooking.obj
 0002:000033e4       $unwind$?recreate@?$Array@URTreeNodeNQ@physx@@V?$ReflectionAllocator@URTreeNodeNQ@physx@@@shdfnd@2@@shdfnd@physx@@IEAAXI@Z 00000001800313e4     RTreeCooking.obj
 0002:000033f8       $unwind$??$quickSelectFirstK@UBoundsLTE@physx@@@quickSelect@physx@@YAXPEIAIIIIAEBUBoundsLTE@1@@Z 00000001800313f8     RTreeCooking.obj
 0002:00003414       $unwind$??0SubSortSAH@physx@@QEAA@PEAIPEBUPxBounds3V@1@IPEBI22222M@Z 0000000180031414     RTreeCooking.obj
 0002:00003428       $unwind$?split@SubSortSAH@physx@@QEAAIPEAII@Z 0000000180031428     RTreeCooking.obj
 0002:00003438       $chain$2$?split@SubSortSAH@physx@@QEAAIPEAII@Z 0000000180031438     RTreeCooking.obj
 0002:00003450       $chain$6$?split@SubSortSAH@physx@@QEAAIPEAII@Z 0000000180031450     RTreeCooking.obj
 0002:00003470       $chain$7$?split@SubSortSAH@physx@@QEAAIPEAII@Z 0000000180031470     RTreeCooking.obj
 0002:00003488       $chain$8$?split@SubSortSAH@physx@@QEAAIPEAII@Z 0000000180031488     RTreeCooking.obj
 0002:00003498       $unwind$?sort4@SubSortSAH@physx@@QEAAXPEAIIAEAV?$Array@URTreeNodeNQ@physx@@V?$ReflectionAllocator@URTreeNodeNQ@physx@@@shdfnd@2@@shdfnd@2@AEAIIPEAURTreeNodeNQ@2@@Z 0000000180031498     RTreeCooking.obj
 0002:000034ac       $chain$2$?sort4@SubSortSAH@physx@@QEAAXPEAIIAEAV?$Array@URTreeNodeNQ@physx@@V?$ReflectionAllocator@URTreeNodeNQ@physx@@@shdfnd@2@@shdfnd@2@AEAIIPEAURTreeNodeNQ@2@@Z 00000001800314ac     RTreeCooking.obj
 0002:000034c8       $chain$4$?sort4@SubSortSAH@physx@@QEAAXPEAIIAEAV?$Array@URTreeNodeNQ@physx@@V?$ReflectionAllocator@URTreeNodeNQ@physx@@@shdfnd@2@@shdfnd@2@AEAIIPEAURTreeNodeNQ@2@@Z 00000001800314c8     RTreeCooking.obj
 0002:000034e0       $chain$5$?sort4@SubSortSAH@physx@@QEAAXPEAIIAEAV?$Array@URTreeNodeNQ@physx@@V?$ReflectionAllocator@URTreeNodeNQ@physx@@@shdfnd@2@@shdfnd@2@AEAIIPEAURTreeNodeNQ@2@@Z 00000001800314e0     RTreeCooking.obj
 0002:000034f0       $chain$6$?sort4@SubSortSAH@physx@@QEAAXPEAIIAEAV?$Array@URTreeNodeNQ@physx@@V?$ReflectionAllocator@URTreeNodeNQ@physx@@@shdfnd@2@@shdfnd@2@AEAIIPEAURTreeNodeNQ@2@@Z 00000001800314f0     RTreeCooking.obj
 0002:00003508       $chain$7$?sort4@SubSortSAH@physx@@QEAAXPEAIIAEAV?$Array@URTreeNodeNQ@physx@@V?$ReflectionAllocator@URTreeNodeNQ@physx@@@shdfnd@2@@shdfnd@2@AEAIIPEAURTreeNodeNQ@2@@Z 0000000180031508     RTreeCooking.obj
 0002:00003518       $unwind$??$sort@I@shdfnd@physx@@YAXPEAII@Z 0000000180031518     RTreeCooking.obj
 0002:00003520       $unwind$?allocate@?$Array@UInterval@physx@@V?$InlineAllocator@$0CAAA@V?$ReflectionAllocator@UInterval@physx@@@shdfnd@physx@@@shdfnd@2@@shdfnd@physx@@IEAAPEAUInterval@3@I@Z 0000000180031520     RTreeCooking.obj
 0002:00003528       $chain$1$?allocate@?$Array@UInterval@physx@@V?$InlineAllocator@$0CAAA@V?$ReflectionAllocator@UInterval@physx@@@shdfnd@physx@@@shdfnd@2@@shdfnd@physx@@IEAAPEAUInterval@3@I@Z 0000000180031528     RTreeCooking.obj
 0002:00003540       $chain$3$?allocate@?$Array@UInterval@physx@@V?$InlineAllocator@$0CAAA@V?$ReflectionAllocator@UInterval@physx@@@shdfnd@physx@@@shdfnd@2@@shdfnd@physx@@IEAAPEAUInterval@3@I@Z 0000000180031540     RTreeCooking.obj
 0002:00003554       $chain$4$?allocate@?$Array@UInterval@physx@@V?$InlineAllocator@$0CAAA@V?$ReflectionAllocator@UInterval@physx@@@shdfnd@physx@@@shdfnd@2@@shdfnd@physx@@IEAAPEAUInterval@3@I@Z 0000000180031554     RTreeCooking.obj
 0002:00003564       $unwind$?growAndPushBack@?$Array@UInterval@physx@@V?$InlineAllocator@$0CAAA@V?$ReflectionAllocator@UInterval@physx@@@shdfnd@physx@@@shdfnd@2@@shdfnd@physx@@IEAAAEAUInterval@3@AEBU43@@Z 0000000180031564     RTreeCooking.obj
 0002:00003578       $unwind$??$sort@IUSortBoundsPredicate@physx@@@shdfnd@physx@@YAXPEAIIAEBUSortBoundsPredicate@1@@Z 0000000180031578     RTreeCooking.obj
 0002:00003580       $unwind$?allocate@?$ReflectionAllocator@URTreeNodeQ@Gu@physx@@@shdfnd@physx@@QEAAPEAX_KPEBDH@Z 0000000180031580     RTreeCooking.obj
 0002:00003590       $chain$0$?allocate@?$ReflectionAllocator@URTreeNodeQ@Gu@physx@@@shdfnd@physx@@QEAAPEAX_KPEBDH@Z 0000000180031590     RTreeCooking.obj
 0002:000035a4       $chain$1$?allocate@?$ReflectionAllocator@URTreeNodeQ@Gu@physx@@@shdfnd@physx@@QEAAPEAX_KPEBDH@Z 00000001800315a4     RTreeCooking.obj
 0002:000035b4       $unwind$?growAndPushBack@?$Array@URTreeNodeQ@Gu@physx@@V?$ReflectionAllocator@URTreeNodeQ@Gu@physx@@@shdfnd@3@@shdfnd@physx@@IEAAAEAURTreeNodeQ@Gu@3@AEBU453@@Z 00000001800315b4     RTreeCooking.obj
 0002:000035c8       $unwind$?recreate@?$Array@URTreeNodeQ@Gu@physx@@V?$ReflectionAllocator@URTreeNodeQ@Gu@physx@@@shdfnd@3@@shdfnd@physx@@IEAAXI@Z 00000001800315c8     RTreeCooking.obj
 0002:000035dc       $unwind$??$partition@UBoundsLTE@physx@@@quickSelect@physx@@YAIPEIAIIIIAEBUBoundsLTE@1@@Z 00000001800315dc     RTreeCooking.obj
 0002:000035ec       $chain$2$??$partition@UBoundsLTE@physx@@@quickSelect@physx@@YAIPEIAIIIIAEBUBoundsLTE@1@@Z 00000001800315ec     RTreeCooking.obj
 0002:00003608       $chain$3$??$partition@UBoundsLTE@physx@@@quickSelect@physx@@YAIPEIAIIIIAEBUBoundsLTE@1@@Z 0000000180031608     RTreeCooking.obj
 0002:00003618       $unwind$??$sort@IU?$Less@I@shdfnd@physx@@V?$ReflectionAllocator@I@23@@shdfnd@physx@@YAXPEAIIAEBU?$Less@I@01@AEBV?$ReflectionAllocator@I@01@I@Z 0000000180031618     RTreeCooking.obj
 0002:00003634       $unwind$??$sort@IUSortBoundsPredicate@physx@@V?$ReflectionAllocator@I@shdfnd@2@@shdfnd@physx@@YAXPEAIIAEBUSortBoundsPredicate@1@AEBV?$ReflectionAllocator@I@01@I@Z 0000000180031634     RTreeCooking.obj
 0002:00003650       $unwind$??$smallSort@I$$CBU?$Less@I@shdfnd@physx@@@internal@shdfnd@physx@@YAXPEAIHHAEBU?$Less@I@12@@Z 0000000180031650     RTreeCooking.obj
 0002:00003658       $chain$5$??$smallSort@I$$CBU?$Less@I@shdfnd@physx@@@internal@shdfnd@physx@@YAXPEAIHHAEBU?$Less@I@12@@Z 0000000180031658     RTreeCooking.obj
 0002:00003680       $chain$6$??$smallSort@I$$CBU?$Less@I@shdfnd@physx@@@internal@shdfnd@physx@@YAXPEAIHHAEBU?$Less@I@12@@Z 0000000180031680     RTreeCooking.obj
 0002:00003690       $unwind$??$partition@I$$CBU?$Less@I@shdfnd@physx@@@internal@shdfnd@physx@@YAHPEAIHHAEBU?$Less@I@12@@Z 0000000180031690     RTreeCooking.obj
 0002:0000369c       $unwind$??$smallSort@I$$CBUSortBoundsPredicate@physx@@@internal@shdfnd@physx@@YAXPEAIHHAEBUSortBoundsPredicate@2@@Z 000000018003169c     RTreeCooking.obj
 0002:000036a8       $chain$4$??$smallSort@I$$CBUSortBoundsPredicate@physx@@@internal@shdfnd@physx@@YAXPEAIHHAEBUSortBoundsPredicate@2@@Z 00000001800316a8     RTreeCooking.obj
 0002:000036cc       $chain$5$??$smallSort@I$$CBUSortBoundsPredicate@physx@@@internal@shdfnd@physx@@YAXPEAIHHAEBUSortBoundsPredicate@2@@Z 00000001800316cc     RTreeCooking.obj
 0002:000036dc       $unwind$??$partition@I$$CBUSortBoundsPredicate@physx@@@internal@shdfnd@physx@@YAHPEAIHHAEBUSortBoundsPredicate@2@@Z 00000001800316dc     RTreeCooking.obj
 0002:000036f4       $unwind$??$median3@I$$CBUSortBoundsPredicate@physx@@@internal@shdfnd@physx@@YAXPEAIHHAEBUSortBoundsPredicate@2@@Z 00000001800316f4     RTreeCooking.obj
 0002:00003704       $unwind$?computeLocalBounds@MeshBulider@physx@@IEAAXAEAVMeshDataBase@Gu@2@@Z 0000000180031704     MeshBuilder.obj
 0002:00003714       $unwind$??1MeshDataBase@Gu@physx@@UEAA@XZ 0000000180031714     TriangleMeshBuilder.obj
 0002:00003724       $unwind$?allocateVertices@MeshDataBase@Gu@physx@@QEAAPEAVPxVec3@3@I@Z 0000000180031724     TriangleMeshBuilder.obj
 0002:00003734       $unwind$??_GMeshDataBase@Gu@physx@@UEAAPEAXI@Z 0000000180031734     TriangleMeshBuilder.obj
 0002:00003740       $unwind$??1TriangleMeshData@Gu@physx@@UEAA@XZ 0000000180031740     TriangleMeshBuilder.obj
 0002:0000374c       $unwind$?allocateTriangles@TriangleMeshData@Gu@physx@@QEAAPEAXI_NI@Z 000000018003174c     TriangleMeshBuilder.obj
 0002:00003764       $unwind$?allocateMaterials@TriangleMeshData@Gu@physx@@QEAAPEAGXZ 0000000180031764     TriangleMeshBuilder.obj
 0002:00003770       $chain$0$?allocateMaterials@TriangleMeshData@Gu@physx@@QEAAPEAGXZ 0000000180031770     TriangleMeshBuilder.obj
 0002:00003784       $chain$1$?allocateMaterials@TriangleMeshData@Gu@physx@@QEAAPEAGXZ 0000000180031784     TriangleMeshBuilder.obj
 0002:00003794       $unwind$??_GTriangleMeshData@Gu@physx@@UEAAPEAXI@Z 0000000180031794     TriangleMeshBuilder.obj
 0002:000037a0       $unwind$??1RTreeTriangleData@Gu@physx@@UEAA@XZ 00000001800317a0     TriangleMeshBuilder.obj
 0002:000037a8       $chain$0$??1RTreeTriangleData@Gu@physx@@UEAA@XZ 00000001800317a8     TriangleMeshBuilder.obj
 0002:000037bc       $chain$1$??1RTreeTriangleData@Gu@physx@@UEAA@XZ 00000001800317bc     TriangleMeshBuilder.obj
 0002:000037cc       $unwind$??_GRTreeTriangleData@Gu@physx@@UEAAPEAXI@Z 00000001800317cc     TriangleMeshBuilder.obj
 0002:000037d8       $chain$0$??_GRTreeTriangleData@Gu@physx@@UEAAPEAXI@Z 00000001800317d8     TriangleMeshBuilder.obj
 0002:000037ec       $chain$1$??_GRTreeTriangleData@Gu@physx@@UEAAPEAXI@Z 00000001800317ec     TriangleMeshBuilder.obj
 0002:000037fc       $unwind$??0BV4TriangleData@Gu@physx@@QEAA@XZ 00000001800317fc     TriangleMeshBuilder.obj
 0002:00003804       $unwind$??1BV4TriangleData@Gu@physx@@UEAA@XZ 0000000180031804     TriangleMeshBuilder.obj
 0002:0000380c       $unwind$??_GBV4TriangleData@Gu@physx@@UEAAPEAXI@Z 000000018003180c     TriangleMeshBuilder.obj
 0002:00003818       $unwind$??_GRemapCallback@RTreeCooker@physx@@UEAAPEAXI@Z 0000000180031818     TriangleMeshBuilder.obj
 0002:00003820       $unwind$??1TriangleMeshBuilder@physx@@UEAA@XZ 0000000180031820     TriangleMeshBuilder.obj
 0002:0000382c       $unwind$?cleanMesh@TriangleMeshBuilder@physx@@QEAA_N_NPEAW4Enum@PxTriangleMeshCookingResult@2@@Z 000000018003182c     TriangleMeshBuilder.obj
 0002:0000383c       $chain$0$?cleanMesh@TriangleMeshBuilder@physx@@QEAA_N_NPEAW4Enum@PxTriangleMeshCookingResult@2@@Z 000000018003183c     TriangleMeshBuilder.obj
 0002:00003850       $chain$1$?cleanMesh@TriangleMeshBuilder@physx@@QEAA_N_NPEAW4Enum@PxTriangleMeshCookingResult@2@@Z 0000000180031850     TriangleMeshBuilder.obj
 0002:00003860       $chain$2$?cleanMesh@TriangleMeshBuilder@physx@@QEAA_N_NPEAW4Enum@PxTriangleMeshCookingResult@2@@Z 0000000180031860     TriangleMeshBuilder.obj
 0002:00003874       $chain$3$?cleanMesh@TriangleMeshBuilder@physx@@QEAA_N_NPEAW4Enum@PxTriangleMeshCookingResult@2@@Z 0000000180031874     TriangleMeshBuilder.obj
 0002:00003888       $chain$4$?cleanMesh@TriangleMeshBuilder@physx@@QEAA_N_NPEAW4Enum@PxTriangleMeshCookingResult@2@@Z 0000000180031888     TriangleMeshBuilder.obj
 0002:0000389c       $chain$5$?cleanMesh@TriangleMeshBuilder@physx@@QEAA_N_NPEAW4Enum@PxTriangleMeshCookingResult@2@@Z 000000018003189c     TriangleMeshBuilder.obj
 0002:000038b0       $chain$6$?cleanMesh@TriangleMeshBuilder@physx@@QEAA_N_NPEAW4Enum@PxTriangleMeshCookingResult@2@@Z 00000001800318b0     TriangleMeshBuilder.obj
 0002:000038c0       $chain$7$?cleanMesh@TriangleMeshBuilder@physx@@QEAA_N_NPEAW4Enum@PxTriangleMeshCookingResult@2@@Z 00000001800318c0     TriangleMeshBuilder.obj
 0002:000038d0       $chain$8$?cleanMesh@TriangleMeshBuilder@physx@@QEAA_N_NPEAW4Enum@PxTriangleMeshCookingResult@2@@Z 00000001800318d0     TriangleMeshBuilder.obj
 0002:000038e0       $chain$9$?cleanMesh@TriangleMeshBuilder@physx@@QEAA_N_NPEAW4Enum@PxTriangleMeshCookingResult@2@@Z 00000001800318e0     TriangleMeshBuilder.obj
 0002:000038f0       $unwind$?remapTopology@TriangleMeshBuilder@physx@@QEAAXPEBI@Z 00000001800318f0     TriangleMeshBuilder.obj
 0002:000038fc       $chain$4$?remapTopology@TriangleMeshBuilder@physx@@QEAAXPEBI@Z 00000001800318fc     TriangleMeshBuilder.obj
 0002:00003920       $chain$5$?remapTopology@TriangleMeshBuilder@physx@@QEAAXPEBI@Z 0000000180031920     TriangleMeshBuilder.obj
 0002:00003940       $chain$6$?remapTopology@TriangleMeshBuilder@physx@@QEAAXPEBI@Z 0000000180031940     TriangleMeshBuilder.obj
 0002:00003950       $unwind$?createSharedEdgeData@TriangleMeshBuilder@physx@@QEAAX_N0@Z 0000000180031950     TriangleMeshBuilder.obj
 0002:0000395c       $chain$4$?createSharedEdgeData@TriangleMeshBuilder@physx@@QEAAX_N0@Z 000000018003195c     TriangleMeshBuilder.obj
 0002:00003980       $chain$5$?createSharedEdgeData@TriangleMeshBuilder@physx@@QEAAX_N0@Z 0000000180031980     TriangleMeshBuilder.obj
 0002:00003990       $unwind$?recordTriangleIndices@TriangleMeshBuilder@physx@@QEAAXXZ 0000000180031990     TriangleMeshBuilder.obj
 0002:00003998       $chain$0$?recordTriangleIndices@TriangleMeshBuilder@physx@@QEAAXXZ 0000000180031998     TriangleMeshBuilder.obj
 0002:000039ac       $chain$1$?recordTriangleIndices@TriangleMeshBuilder@physx@@QEAAXXZ 00000001800319ac     TriangleMeshBuilder.obj
 0002:000039c0       $chain$2$?recordTriangleIndices@TriangleMeshBuilder@physx@@QEAAXXZ 00000001800319c0     TriangleMeshBuilder.obj
 0002:000039d0       $chain$3$?recordTriangleIndices@TriangleMeshBuilder@physx@@QEAAXXZ 00000001800319d0     TriangleMeshBuilder.obj
 0002:000039e0       $unwind$?createGRBMidPhaseAndData@TriangleMeshBuilder@physx@@QEAAXI@Z 00000001800319e0     TriangleMeshBuilder.obj
 0002:000039ec       $chain$1$?createGRBMidPhaseAndData@TriangleMeshBuilder@physx@@QEAAXI@Z 00000001800319ec     TriangleMeshBuilder.obj
 0002:00003a04       $chain$2$?createGRBMidPhaseAndData@TriangleMeshBuilder@physx@@QEAAXI@Z 0000000180031a04     TriangleMeshBuilder.obj
 0002:00003a18       $chain$3$?createGRBMidPhaseAndData@TriangleMeshBuilder@physx@@QEAAXI@Z 0000000180031a18     TriangleMeshBuilder.obj
 0002:00003a28       $chain$4$?createGRBMidPhaseAndData@TriangleMeshBuilder@physx@@QEAAXI@Z 0000000180031a28     TriangleMeshBuilder.obj
 0002:00003a3c       $chain$5$?createGRBMidPhaseAndData@TriangleMeshBuilder@physx@@QEAAXI@Z 0000000180031a3c     TriangleMeshBuilder.obj
 0002:00003a4c       $unwind$?createGRBData@TriangleMeshBuilder@physx@@QEAAXXZ 0000000180031a4c     TriangleMeshBuilder.obj
 0002:00003a64       $unwind$?loadFromDesc@TriangleMeshBuilder@physx@@QEAA_NAEBVPxTriangleMeshDesc@2@PEAW4Enum@PxTriangleMeshCookingResult@2@_N@Z 0000000180031a64     TriangleMeshBuilder.obj
 0002:00003a74       $chain$0$?loadFromDesc@TriangleMeshBuilder@physx@@QEAA_NAEBVPxTriangleMeshDesc@2@PEAW4Enum@PxTriangleMeshCookingResult@2@_N@Z 0000000180031a74     TriangleMeshBuilder.obj
 0002:00003a88       $chain$1$?loadFromDesc@TriangleMeshBuilder@physx@@QEAA_NAEBVPxTriangleMeshDesc@2@PEAW4Enum@PxTriangleMeshCookingResult@2@_N@Z 0000000180031a88     TriangleMeshBuilder.obj
 0002:00003a9c       $chain$2$?loadFromDesc@TriangleMeshBuilder@physx@@QEAA_NAEBVPxTriangleMeshDesc@2@PEAW4Enum@PxTriangleMeshCookingResult@2@_N@Z 0000000180031a9c     TriangleMeshBuilder.obj
 0002:00003ab0       $chain$3$?loadFromDesc@TriangleMeshBuilder@physx@@QEAA_NAEBVPxTriangleMeshDesc@2@PEAW4Enum@PxTriangleMeshCookingResult@2@_N@Z 0000000180031ab0     TriangleMeshBuilder.obj
 0002:00003ac0       $chain$4$?loadFromDesc@TriangleMeshBuilder@physx@@QEAA_NAEBVPxTriangleMeshDesc@2@PEAW4Enum@PxTriangleMeshCookingResult@2@_N@Z 0000000180031ac0     TriangleMeshBuilder.obj
 0002:00003ad0       $chain$6$?loadFromDesc@TriangleMeshBuilder@physx@@QEAA_NAEBVPxTriangleMeshDesc@2@PEAW4Enum@PxTriangleMeshCookingResult@2@_N@Z 0000000180031ad0     TriangleMeshBuilder.obj
 0002:00003ae4       $chain$7$?loadFromDesc@TriangleMeshBuilder@physx@@QEAA_NAEBVPxTriangleMeshDesc@2@PEAW4Enum@PxTriangleMeshCookingResult@2@_N@Z 0000000180031ae4     TriangleMeshBuilder.obj
 0002:00003af4       $unwind$?save@TriangleMeshBuilder@physx@@QEBA_NAEAVPxOutputStream@2@_NAEBUPxCookingParams@2@@Z 0000000180031af4     TriangleMeshBuilder.obj
 0002:00003b08       $chain$3$?save@TriangleMeshBuilder@physx@@QEBA_NAEAVPxOutputStream@2@_NAEBUPxCookingParams@2@@Z 0000000180031b08     TriangleMeshBuilder.obj
 0002:00003b24       $chain$4$?save@TriangleMeshBuilder@physx@@QEBA_NAEAVPxOutputStream@2@_NAEBUPxCookingParams@2@@Z 0000000180031b24     TriangleMeshBuilder.obj
 0002:00003b3c       $unwind$?checkMeshIndicesSize@TriangleMeshBuilder@physx@@QEAAXXZ 0000000180031b3c     TriangleMeshBuilder.obj
 0002:00003b48       $chain$1$?checkMeshIndicesSize@TriangleMeshBuilder@physx@@QEAAXXZ 0000000180031b48     TriangleMeshBuilder.obj
 0002:00003b60       $chain$2$?checkMeshIndicesSize@TriangleMeshBuilder@physx@@QEAAXXZ 0000000180031b60     TriangleMeshBuilder.obj
 0002:00003b74       $chain$3$?checkMeshIndicesSize@TriangleMeshBuilder@physx@@QEAAXXZ 0000000180031b74     TriangleMeshBuilder.obj
 0002:00003b84       $chain$4$?checkMeshIndicesSize@TriangleMeshBuilder@physx@@QEAAXXZ 0000000180031b84     TriangleMeshBuilder.obj
 0002:00003b94       $unwind$?importMesh@TriangleMeshBuilder@physx@@IEAA_NAEBVPxTriangleMeshDesc@2@AEBUPxCookingParams@2@PEAW4Enum@PxTriangleMeshCookingResult@2@_N@Z 0000000180031b94     TriangleMeshBuilder.obj
 0002:00003bb0       $unwind$?releaseEdgeList@TriangleMeshBuilder@physx@@IEAAXXZ 0000000180031bb0     TriangleMeshBuilder.obj
 0002:00003bbc       $unwind$?createEdgeList@TriangleMeshBuilder@physx@@IEAAXXZ 0000000180031bbc     TriangleMeshBuilder.obj
 0002:00003bcc       $unwind$??1RTreeTriangleMeshBuilder@physx@@UEAA@XZ 0000000180031bcc     TriangleMeshBuilder.obj
 0002:00003bd8       $chain$0$??1RTreeTriangleMeshBuilder@physx@@UEAA@XZ 0000000180031bd8     TriangleMeshBuilder.obj
 0002:00003bec       $chain$1$??1RTreeTriangleMeshBuilder@physx@@UEAA@XZ 0000000180031bec     TriangleMeshBuilder.obj
 0002:00003bfc       $unwind$?createMidPhaseStructure@RTreeTriangleMeshBuilder@physx@@UEAAXXZ 0000000180031bfc     TriangleMeshBuilder.obj
 0002:00003c04       $unwind$?saveMidPhaseStructure@RTreeTriangleMeshBuilder@physx@@UEBAXAEAVPxOutputStream@2@_N@Z 0000000180031c04     TriangleMeshBuilder.obj
 0002:00003c14       $chain$0$?saveMidPhaseStructure@RTreeTriangleMeshBuilder@physx@@UEBAXAEAVPxOutputStream@2@_N@Z 0000000180031c14     TriangleMeshBuilder.obj
 0002:00003c28       $chain$1$?saveMidPhaseStructure@RTreeTriangleMeshBuilder@physx@@UEBAXAEAVPxOutputStream@2@_N@Z 0000000180031c28     TriangleMeshBuilder.obj
 0002:00003c38       $unwind$??0BV4TriangleMeshBuilder@physx@@QEAA@AEBUPxCookingParams@1@@Z 0000000180031c38     TriangleMeshBuilder.obj
 0002:00003c40       $unwind$??1BV4TriangleMeshBuilder@physx@@UEAA@XZ 0000000180031c40     TriangleMeshBuilder.obj
 0002:00003c4c       $unwind$?createMidPhaseStructure@BV4TriangleMeshBuilder@physx@@UEAAXXZ 0000000180031c4c     TriangleMeshBuilder.obj
 0002:00003c58       $chain$3$?createMidPhaseStructure@BV4TriangleMeshBuilder@physx@@UEAAXXZ 0000000180031c58     TriangleMeshBuilder.obj
 0002:00003c78       $chain$4$?createMidPhaseStructure@BV4TriangleMeshBuilder@physx@@UEAAXXZ 0000000180031c78     TriangleMeshBuilder.obj
 0002:00003c8c       $chain$5$?createMidPhaseStructure@BV4TriangleMeshBuilder@physx@@UEAAXXZ 0000000180031c8c     TriangleMeshBuilder.obj
 0002:00003c9c       $chain$6$?createMidPhaseStructure@BV4TriangleMeshBuilder@physx@@UEAAXXZ 0000000180031c9c     TriangleMeshBuilder.obj
 0002:00003cac       $unwind$?saveMidPhaseStructure@BV4TriangleMeshBuilder@physx@@UEBAXAEAVPxOutputStream@2@_N@Z 0000000180031cac     TriangleMeshBuilder.obj
 0002:00003cb8       $unwind$?createMidPhaseStructure@BV32TriangleMeshBuilder@physx@@SAXAEBUPxCookingParams@2@AEAVTriangleMeshData@Gu@2@AEAVBV32Tree@52@@Z 0000000180031cb8     TriangleMeshBuilder.obj
 0002:00003cc8       $chain$0$?createMidPhaseStructure@BV32TriangleMeshBuilder@physx@@SAXAEBUPxCookingParams@2@AEAVTriangleMeshData@Gu@2@AEAVBV32Tree@52@@Z 0000000180031cc8     TriangleMeshBuilder.obj
 0002:00003cdc       $chain$1$?createMidPhaseStructure@BV32TriangleMeshBuilder@physx@@SAXAEBUPxCookingParams@2@AEAVTriangleMeshData@Gu@2@AEAVBV32Tree@52@@Z 0000000180031cdc     TriangleMeshBuilder.obj
 0002:00003cec       $unwind$?saveMidPhaseStructure@BV32TriangleMeshBuilder@physx@@SAXPEAVBV32Tree@Gu@2@AEAVPxOutputStream@2@_N@Z 0000000180031cec     TriangleMeshBuilder.obj
 0002:00003cfc       $chain$1$?saveMidPhaseStructure@BV32TriangleMeshBuilder@physx@@SAXPEAVBV32Tree@Gu@2@AEAVPxOutputStream@2@_N@Z 0000000180031cfc     TriangleMeshBuilder.obj
 0002:00003d14       $chain$2$?saveMidPhaseStructure@BV32TriangleMeshBuilder@physx@@SAXPEAVBV32Tree@Gu@2@AEAVPxOutputStream@2@_N@Z 0000000180031d14     TriangleMeshBuilder.obj
 0002:00003d24       $unwind$?findSharpVertices@GrbTrimeshCookerHelper@physx@@YAXAEAV?$Array@USortedNeighbor@GrbTrimeshCookerHelper@physx@@V?$ReflectionAllocator@USortedNeighbor@GrbTrimeshCookerHelper@physx@@@shdfnd@3@@shdfnd@2@AEAV?$Array@USharpEdgeRange@GrbTrimeshCookerHelper@physx@@V?$ReflectionAllocator@USharpEdgeRange@GrbTrimeshCookerHelper@physx@@@shdfnd@3@@42@PEBUuint3@2@PEBUuint4@2@II@Z 0000000180031d24     TriangleMeshBuilder.obj
 0002:00003d34       $chain$1$?findSharpVertices@GrbTrimeshCookerHelper@physx@@YAXAEAV?$Array@USortedNeighbor@GrbTrimeshCookerHelper@physx@@V?$ReflectionAllocator@USortedNeighbor@GrbTrimeshCookerHelper@physx@@@shdfnd@3@@shdfnd@2@AEAV?$Array@USharpEdgeRange@GrbTrimeshCookerHelper@physx@@V?$ReflectionAllocator@USharpEdgeRange@GrbTrimeshCookerHelper@physx@@@shdfnd@3@@42@PEBUuint3@2@PEBUuint4@2@II@Z 0000000180031d34     TriangleMeshBuilder.obj
 0002:00003d4c       $chain$2$?findSharpVertices@GrbTrimeshCookerHelper@physx@@YAXAEAV?$Array@USortedNeighbor@GrbTrimeshCookerHelper@physx@@V?$ReflectionAllocator@USortedNeighbor@GrbTrimeshCookerHelper@physx@@@shdfnd@3@@shdfnd@2@AEAV?$Array@USharpEdgeRange@GrbTrimeshCookerHelper@physx@@V?$ReflectionAllocator@USharpEdgeRange@GrbTrimeshCookerHelper@physx@@@shdfnd@3@@42@PEBUuint3@2@PEBUuint4@2@II@Z 0000000180031d4c     TriangleMeshBuilder.obj
 0002:00003d5c       $unwind$?buildVertexConnectionNew_p1@GrbTrimeshCookerHelper@physx@@YAIAEAV?$Array@USortedNeighbor@GrbTrimeshCookerHelper@physx@@V?$ReflectionAllocator@USortedNeighbor@GrbTrimeshCookerHelper@physx@@@shdfnd@3@@shdfnd@2@AEAV?$Array@USharpEdgeRange@GrbTrimeshCookerHelper@physx@@V?$ReflectionAllocator@USharpEdgeRange@GrbTrimeshCookerHelper@physx@@@shdfnd@3@@42@PEBUuint3@2@PEBUuint4@2@II@Z 0000000180031d5c     TriangleMeshBuilder.obj
 0002:00003d6c       $chain$1$?buildVertexConnectionNew_p1@GrbTrimeshCookerHelper@physx@@YAIAEAV?$Array@USortedNeighbor@GrbTrimeshCookerHelper@physx@@V?$ReflectionAllocator@USortedNeighbor@GrbTrimeshCookerHelper@physx@@@shdfnd@3@@shdfnd@2@AEAV?$Array@USharpEdgeRange@GrbTrimeshCookerHelper@physx@@V?$ReflectionAllocator@USharpEdgeRange@GrbTrimeshCookerHelper@physx@@@shdfnd@3@@42@PEBUuint3@2@PEBUuint4@2@II@Z 0000000180031d6c     TriangleMeshBuilder.obj
 0002:00003d84       $chain$2$?buildVertexConnectionNew_p1@GrbTrimeshCookerHelper@physx@@YAIAEAV?$Array@USortedNeighbor@GrbTrimeshCookerHelper@physx@@V?$ReflectionAllocator@USortedNeighbor@GrbTrimeshCookerHelper@physx@@@shdfnd@3@@shdfnd@2@AEAV?$Array@USharpEdgeRange@GrbTrimeshCookerHelper@physx@@V?$ReflectionAllocator@USharpEdgeRange@GrbTrimeshCookerHelper@physx@@@shdfnd@3@@42@PEBUuint3@2@PEBUuint4@2@II@Z 0000000180031d84     TriangleMeshBuilder.obj
 0002:00003d94       $unwind$?buildVertexConnectionNew_p2@GrbTrimeshCookerHelper@physx@@YAXPEAI00AEAV?$Array@USortedNeighbor@GrbTrimeshCookerHelper@physx@@V?$ReflectionAllocator@USortedNeighbor@GrbTrimeshCookerHelper@physx@@@shdfnd@3@@shdfnd@2@AEAV?$Array@USharpEdgeRange@GrbTrimeshCookerHelper@physx@@V?$ReflectionAllocator@USharpEdgeRange@GrbTrimeshCookerHelper@physx@@@shdfnd@3@@42@I@Z 0000000180031d94     TriangleMeshBuilder.obj
 0002:00003da0       $chain$2$?buildVertexConnectionNew_p2@GrbTrimeshCookerHelper@physx@@YAXPEAI00AEAV?$Array@USortedNeighbor@GrbTrimeshCookerHelper@physx@@V?$ReflectionAllocator@USortedNeighbor@GrbTrimeshCookerHelper@physx@@@shdfnd@3@@shdfnd@2@AEAV?$Array@USharpEdgeRange@GrbTrimeshCookerHelper@physx@@V?$ReflectionAllocator@USharpEdgeRange@GrbTrimeshCookerHelper@physx@@@shdfnd@3@@42@I@Z 0000000180031da0     TriangleMeshBuilder.obj
 0002:00003dbc       $chain$3$?buildVertexConnectionNew_p2@GrbTrimeshCookerHelper@physx@@YAXPEAI00AEAV?$Array@USortedNeighbor@GrbTrimeshCookerHelper@physx@@V?$ReflectionAllocator@USortedNeighbor@GrbTrimeshCookerHelper@physx@@@shdfnd@3@@shdfnd@2@AEAV?$Array@USharpEdgeRange@GrbTrimeshCookerHelper@physx@@V?$ReflectionAllocator@USharpEdgeRange@GrbTrimeshCookerHelper@physx@@@shdfnd@3@@42@I@Z 0000000180031dbc     TriangleMeshBuilder.obj
 0002:00003dcc       $unwind$??_GTriangleMeshBuilder@physx@@UEAAPEAXI@Z 0000000180031dcc     TriangleMeshBuilder.obj
 0002:00003ddc       $unwind$??_GRTreeTriangleMeshBuilder@physx@@UEAAPEAXI@Z 0000000180031ddc     TriangleMeshBuilder.obj
 0002:00003de8       $unwind$??_GBV4TriangleMeshBuilder@physx@@UEAAPEAXI@Z 0000000180031de8     TriangleMeshBuilder.obj
 0002:00003df4       $unwind$?findAdjacent@physx@@YAIPEBVPxVec3@1@0PEBUuint3@1@IIIAEBVPxPlane@1@PEAUEdgeTriLookup@1@I@Z 0000000180031df4     TriangleMeshBuilder.obj
 0002:00003e18       $unwind$?buildAdjacencies@physx@@YAXPEAUuint4@1@PEAVPxVec3@1@PEBV31@PEBUuint3@1@I@Z 0000000180031e18     TriangleMeshBuilder.obj
 0002:00003e24       $chain$7$?buildAdjacencies@physx@@YAXPEAUuint4@1@PEAVPxVec3@1@PEBV31@PEBUuint3@1@I@Z 0000000180031e24     TriangleMeshBuilder.obj
 0002:00003e54       $chain$10$?buildAdjacencies@physx@@YAXPEAUuint4@1@PEAVPxVec3@1@PEBV31@PEBUuint3@1@I@Z 0000000180031e54     TriangleMeshBuilder.obj
 0002:00003e70       $chain$11$?buildAdjacencies@physx@@YAXPEAUuint4@1@PEAVPxVec3@1@PEBV31@PEBUuint3@1@I@Z 0000000180031e70     TriangleMeshBuilder.obj
 0002:00003e80       $chain$12$?buildAdjacencies@physx@@YAXPEAUuint4@1@PEAVPxVec3@1@PEBV31@PEBUuint3@1@I@Z 0000000180031e80     TriangleMeshBuilder.obj
 0002:00003e90       $unwind$??$sort@UEdgeTriLookup@physx@@@shdfnd@physx@@YAXPEAUEdgeTriLookup@1@I@Z 0000000180031e90     TriangleMeshBuilder.obj
 0002:00003e98       $unwind$?allocate@?$ReflectionAllocator@USortedNeighbor@GrbTrimeshCookerHelper@physx@@@shdfnd@physx@@QEAAPEAX_KPEBDH@Z 0000000180031e98     TriangleMeshBuilder.obj
 0002:00003ea8       $chain$0$?allocate@?$ReflectionAllocator@USortedNeighbor@GrbTrimeshCookerHelper@physx@@@shdfnd@physx@@QEAAPEAX_KPEBDH@Z 0000000180031ea8     TriangleMeshBuilder.obj
 0002:00003ebc       $chain$1$?allocate@?$ReflectionAllocator@USortedNeighbor@GrbTrimeshCookerHelper@physx@@@shdfnd@physx@@QEAAPEAX_KPEBDH@Z 0000000180031ebc     TriangleMeshBuilder.obj
 0002:00003ecc       $unwind$?resizeUninitialized@?$Array@USortedNeighbor@GrbTrimeshCookerHelper@physx@@V?$ReflectionAllocator@USortedNeighbor@GrbTrimeshCookerHelper@physx@@@shdfnd@3@@shdfnd@physx@@QEAAXI@Z 0000000180031ecc     TriangleMeshBuilder.obj
 0002:00003ed8       $unwind$?growAndPushBack@?$Array@USortedNeighbor@GrbTrimeshCookerHelper@physx@@V?$ReflectionAllocator@USortedNeighbor@GrbTrimeshCookerHelper@physx@@@shdfnd@3@@shdfnd@physx@@IEAAAEAUSortedNeighbor@GrbTrimeshCookerHelper@3@AEBU453@@Z 0000000180031ed8     TriangleMeshBuilder.obj
 0002:00003eec       $unwind$?recreate@?$Array@USortedNeighbor@GrbTrimeshCookerHelper@physx@@V?$ReflectionAllocator@USortedNeighbor@GrbTrimeshCookerHelper@physx@@@shdfnd@3@@shdfnd@physx@@IEAAXI@Z 0000000180031eec     TriangleMeshBuilder.obj
 0002:00003f00       $unwind$??$sort@USortedNeighbor@GrbTrimeshCookerHelper@physx@@@shdfnd@physx@@YAXPEAUSortedNeighbor@GrbTrimeshCookerHelper@1@I@Z 0000000180031f00     TriangleMeshBuilder.obj
 0002:00003f08       $unwind$?allocate@?$ReflectionAllocator@USharpEdgeRange@GrbTrimeshCookerHelper@physx@@@shdfnd@physx@@QEAAPEAX_KPEBDH@Z 0000000180031f08     TriangleMeshBuilder.obj
 0002:00003f18       $chain$0$?allocate@?$ReflectionAllocator@USharpEdgeRange@GrbTrimeshCookerHelper@physx@@@shdfnd@physx@@QEAAPEAX_KPEBDH@Z 0000000180031f18     TriangleMeshBuilder.obj
 0002:00003f2c       $chain$1$?allocate@?$ReflectionAllocator@USharpEdgeRange@GrbTrimeshCookerHelper@physx@@@shdfnd@physx@@QEAAPEAX_KPEBDH@Z 0000000180031f2c     TriangleMeshBuilder.obj
 0002:00003f3c       $unwind$?resize@?$Array@USharpEdgeRange@GrbTrimeshCookerHelper@physx@@V?$ReflectionAllocator@USharpEdgeRange@GrbTrimeshCookerHelper@physx@@@shdfnd@3@@shdfnd@physx@@QEAAXIAEBUSharpEdgeRange@GrbTrimeshCookerHelper@3@@Z 0000000180031f3c     TriangleMeshBuilder.obj
 0002:00003f4c       $unwind$?recreate@?$Array@USharpEdgeRange@GrbTrimeshCookerHelper@physx@@V?$ReflectionAllocator@USharpEdgeRange@GrbTrimeshCookerHelper@physx@@@shdfnd@3@@shdfnd@physx@@IEAAXI@Z 0000000180031f4c     TriangleMeshBuilder.obj
 0002:00003f60       $unwind$??_GRTreeCookerRemap@physx@@UEAAPEAXI@Z 0000000180031f60     TriangleMeshBuilder.obj
 0002:00003f68       $unwind$??$sort@UEdgeTriLookup@physx@@U?$Less@UEdgeTriLookup@physx@@@shdfnd@2@V?$ReflectionAllocator@UEdgeTriLookup@physx@@@42@@shdfnd@physx@@YAXPEAUEdgeTriLookup@1@IAEBU?$Less@UEdgeTriLookup@physx@@@01@AEBV?$ReflectionAllocator@UEdgeTriLookup@physx@@@01@I@Z 0000000180031f68     TriangleMeshBuilder.obj
 0002:00003f84       $unwind$??$sort@USortedNeighbor@GrbTrimeshCookerHelper@physx@@U?$Less@USortedNeighbor@GrbTrimeshCookerHelper@physx@@@shdfnd@3@V?$ReflectionAllocator@USortedNeighbor@GrbTrimeshCookerHelper@physx@@@53@@shdfnd@physx@@YAXPEAUSortedNeighbor@GrbTrimeshCookerHelper@1@IAEBU?$Less@USortedNeighbor@GrbTrimeshCookerHelper@physx@@@01@AEBV?$ReflectionAllocator@USortedNeighbor@GrbTrimeshCookerHelper@physx@@@01@I@Z 0000000180031f84     TriangleMeshBuilder.obj
 0002:00003fa0       $unwind$??$smallSort@UEdgeTriLookup@physx@@$$CBU?$Less@UEdgeTriLookup@physx@@@shdfnd@2@@internal@shdfnd@physx@@YAXPEAUEdgeTriLookup@2@HHAEBU?$Less@UEdgeTriLookup@physx@@@12@@Z 0000000180031fa0     TriangleMeshBuilder.obj
 0002:00003fac       $chain$5$??$smallSort@UEdgeTriLookup@physx@@$$CBU?$Less@UEdgeTriLookup@physx@@@shdfnd@2@@internal@shdfnd@physx@@YAXPEAUEdgeTriLookup@2@HHAEBU?$Less@UEdgeTriLookup@physx@@@12@@Z 0000000180031fac     TriangleMeshBuilder.obj
 0002:00003fd4       $chain$6$??$smallSort@UEdgeTriLookup@physx@@$$CBU?$Less@UEdgeTriLookup@physx@@@shdfnd@2@@internal@shdfnd@physx@@YAXPEAUEdgeTriLookup@2@HHAEBU?$Less@UEdgeTriLookup@physx@@@12@@Z 0000000180031fd4     TriangleMeshBuilder.obj
 0002:00003fe4       $unwind$??$partition@UEdgeTriLookup@physx@@$$CBU?$Less@UEdgeTriLookup@physx@@@shdfnd@2@@internal@shdfnd@physx@@YAHPEAUEdgeTriLookup@2@HHAEBU?$Less@UEdgeTriLookup@physx@@@12@@Z 0000000180031fe4     TriangleMeshBuilder.obj
 0002:00003ff4       $unwind$??$smallSort@USortedNeighbor@GrbTrimeshCookerHelper@physx@@$$CBU?$Less@USortedNeighbor@GrbTrimeshCookerHelper@physx@@@shdfnd@3@@internal@shdfnd@physx@@YAXPEAUSortedNeighbor@GrbTrimeshCookerHelper@2@HHAEBU?$Less@USortedNeighbor@GrbTrimeshCookerHelper@physx@@@12@@Z 0000000180031ff4     TriangleMeshBuilder.obj
 0002:00004000       $chain$5$??$smallSort@USortedNeighbor@GrbTrimeshCookerHelper@physx@@$$CBU?$Less@USortedNeighbor@GrbTrimeshCookerHelper@physx@@@shdfnd@3@@internal@shdfnd@physx@@YAXPEAUSortedNeighbor@GrbTrimeshCookerHelper@2@HHAEBU?$Less@USortedNeighbor@GrbTrimeshCookerHelper@physx@@@12@@Z 0000000180032000     TriangleMeshBuilder.obj
 0002:00004028       $chain$6$??$smallSort@USortedNeighbor@GrbTrimeshCookerHelper@physx@@$$CBU?$Less@USortedNeighbor@GrbTrimeshCookerHelper@physx@@@shdfnd@3@@internal@shdfnd@physx@@YAXPEAUSortedNeighbor@GrbTrimeshCookerHelper@2@HHAEBU?$Less@USortedNeighbor@GrbTrimeshCookerHelper@physx@@@12@@Z 0000000180032028     TriangleMeshBuilder.obj
 0002:00004038       $unwind$??$partition@USortedNeighbor@GrbTrimeshCookerHelper@physx@@$$CBU?$Less@USortedNeighbor@GrbTrimeshCookerHelper@physx@@@shdfnd@3@@internal@shdfnd@physx@@YAHPEAUSortedNeighbor@GrbTrimeshCookerHelper@2@HHAEBU?$Less@USortedNeighbor@GrbTrimeshCookerHelper@physx@@@12@@Z 0000000180032038     TriangleMeshBuilder.obj
 0002:00004048       $unwind$??$median3@USortedNeighbor@GrbTrimeshCookerHelper@physx@@$$CBU?$Less@USortedNeighbor@GrbTrimeshCookerHelper@physx@@@shdfnd@3@@internal@shdfnd@physx@@YAXPEAUSortedNeighbor@GrbTrimeshCookerHelper@2@HHAEBU?$Less@USortedNeighbor@GrbTrimeshCookerHelper@physx@@@12@@Z 0000000180032048     TriangleMeshBuilder.obj
 0002:00004050       $unwind$?precompute@BigConvexDataBuilder@physx@@QEAA_NI@Z 0000000180032050     BigConvexDataBuilder.obj
 0002:00004064       $chain$12$?precompute@BigConvexDataBuilder@physx@@QEAA_NI@Z 0000000180032064     BigConvexDataBuilder.obj
 0002:000040a4       $chain$13$?precompute@BigConvexDataBuilder@physx@@QEAA_NI@Z 00000001800320a4     BigConvexDataBuilder.obj
 0002:000040b4       $unwind$?initialize@BigConvexDataBuilder@physx@@QEAA_NXZ 00000001800320b4     BigConvexDataBuilder.obj
 0002:000040c0       $chain$0$?initialize@BigConvexDataBuilder@physx@@QEAA_NXZ 00000001800320c0     BigConvexDataBuilder.obj
 0002:000040d4       $chain$1$?initialize@BigConvexDataBuilder@physx@@QEAA_NXZ 00000001800320d4     BigConvexDataBuilder.obj
 0002:000040e4       $unwind$?save@BigConvexDataBuilder@physx@@QEBA_NAEAVPxOutputStream@2@_N@Z 00000001800320e4     BigConvexDataBuilder.obj
 0002:000040f4       $unwind$?computeValencies@BigConvexDataBuilder@physx@@QEAA_NAEBVConvexHullBuilder@2@@Z 00000001800320f4     BigConvexDataBuilder.obj
 0002:00004108       $chain$2$?computeValencies@BigConvexDataBuilder@physx@@QEAA_NAEBVConvexHullBuilder@2@@Z 0000000180032108     BigConvexDataBuilder.obj
 0002:00004124       $chain$3$?computeValencies@BigConvexDataBuilder@physx@@QEAA_NAEBVConvexHullBuilder@2@@Z 0000000180032124     BigConvexDataBuilder.obj
 0002:00004134       $unwind$?saveValencies@BigConvexDataBuilder@physx@@QEBA_NAEAVPxOutputStream@2@_N@Z 0000000180032134     BigConvexDataBuilder.obj
 0002:00004140       $chain$1$?saveValencies@BigConvexDataBuilder@physx@@QEBA_NAEAVPxOutputStream@2@_N@Z 0000000180032140     BigConvexDataBuilder.obj
 0002:00004158       $chain$2$?saveValencies@BigConvexDataBuilder@physx@@QEBA_NAEAVPxOutputStream@2@_N@Z 0000000180032158     BigConvexDataBuilder.obj
 0002:0000416c       $chain$3$?saveValencies@BigConvexDataBuilder@physx@@QEBA_NAEAVPxOutputStream@2@_N@Z 000000018003216c     BigConvexDataBuilder.obj
 0002:0000417c       $chain$4$?saveValencies@BigConvexDataBuilder@physx@@QEBA_NAEAVPxOutputStream@2@_N@Z 000000018003217c     BigConvexDataBuilder.obj
 0002:00004190       $unwind$??1ConvexHullBuilder@physx@@QEAA@XZ 0000000180032190     ConvexHullBuilder.obj
 0002:000041a0       $unwind$?init@ConvexHullBuilder@physx@@QEAA_NIPEBVPxVec3@2@PEBIIIPEBUPxHullPolygon@2@_NPEAVConvexHullLib@2@@Z 00000001800321a0     ConvexHullBuilder.obj
 0002:000041b4       $chain$0$?init@ConvexHullBuilder@physx@@QEAA_NIPEBVPxVec3@2@PEBIIIPEBUPxHullPolygon@2@_NPEAVConvexHullLib@2@@Z 00000001800321b4     ConvexHullBuilder.obj
 0002:000041c8       $chain$1$?init@ConvexHullBuilder@physx@@QEAA_NIPEBVPxVec3@2@PEBIIIPEBUPxHullPolygon@2@_NPEAVConvexHullLib@2@@Z 00000001800321c8     ConvexHullBuilder.obj
 0002:000041dc       $chain$2$?init@ConvexHullBuilder@physx@@QEAA_NIPEBVPxVec3@2@PEBIIIPEBUPxHullPolygon@2@_NPEAVConvexHullLib@2@@Z 00000001800321dc     ConvexHullBuilder.obj
 0002:000041ec       $chain$4$?init@ConvexHullBuilder@physx@@QEAA_NIPEBVPxVec3@2@PEBIIIPEBUPxHullPolygon@2@_NPEAVConvexHullLib@2@@Z 00000001800321ec     ConvexHullBuilder.obj
 0002:00004204       $chain$5$?init@ConvexHullBuilder@physx@@QEAA_NIPEBVPxVec3@2@PEBIIIPEBUPxHullPolygon@2@_NPEAVConvexHullLib@2@@Z 0000000180032204     ConvexHullBuilder.obj
 0002:00004214       $chain$6$?init@ConvexHullBuilder@physx@@QEAA_NIPEBVPxVec3@2@PEBIIIPEBUPxHullPolygon@2@_NPEAVConvexHullLib@2@@Z 0000000180032214     ConvexHullBuilder.obj
 0002:00004224       $unwind$?save@ConvexHullBuilder@physx@@QEBA_NAEAVPxOutputStream@2@_N@Z 0000000180032224     ConvexHullBuilder.obj
 0002:00004234       $chain$0$?save@ConvexHullBuilder@physx@@QEBA_NAEAVPxOutputStream@2@_N@Z 0000000180032234     ConvexHullBuilder.obj
 0002:00004248       $chain$3$?save@ConvexHullBuilder@physx@@QEBA_NAEAVPxOutputStream@2@_N@Z 0000000180032248     ConvexHullBuilder.obj
 0002:00004264       $chain$4$?save@ConvexHullBuilder@physx@@QEBA_NAEAVPxOutputStream@2@_N@Z 0000000180032264     ConvexHullBuilder.obj
 0002:00004278       $chain$5$?save@ConvexHullBuilder@physx@@QEBA_NAEAVPxOutputStream@2@_N@Z 0000000180032278     ConvexHullBuilder.obj
 0002:00004288       $unwind$?copy@ConvexHullBuilder@physx@@QEAA_NAEAUConvexHullData@Gu@2@AEAI@Z 0000000180032288     ConvexHullBuilder.obj
 0002:000042a4       $unwind$?createEdgeList@ConvexHullBuilder@physx@@QEAA_N_NI@Z 00000001800322a4     ConvexHullBuilder.obj
 0002:000042b0       $chain$5$?createEdgeList@ConvexHullBuilder@physx@@QEAA_N_NI@Z 00000001800322b0     ConvexHullBuilder.obj
 0002:000042d8       $chain$7$?createEdgeList@ConvexHullBuilder@physx@@QEAA_N_NI@Z 00000001800322d8     ConvexHullBuilder.obj
 0002:00004300       $unwind$?checkHullPolygons@ConvexHullBuilder@physx@@QEBA_NXZ 0000000180032300     ConvexHullBuilder.obj
 0002:00004320       $chain$11$?checkHullPolygons@ConvexHullBuilder@physx@@QEBA_NXZ 0000000180032320     ConvexHullBuilder.obj
 0002:00004350       $chain$12$?checkHullPolygons@ConvexHullBuilder@physx@@QEBA_NXZ 0000000180032350     ConvexHullBuilder.obj
 0002:00004378       $unwind$?calculateVertexMapTable@ConvexHullBuilder@physx@@QEAA_NI_N@Z 0000000180032378     ConvexHullBuilder.obj
 0002:00004388       $chain$2$?calculateVertexMapTable@ConvexHullBuilder@physx@@QEAA_NI_N@Z 0000000180032388     ConvexHullBuilder.obj
 0002:000043a4       $chain$3$?calculateVertexMapTable@ConvexHullBuilder@physx@@QEAA_NI_N@Z 00000001800323a4     ConvexHullBuilder.obj
 0002:000043b4       $unwind$?computeGeomCenter@ConvexHullBuilder@physx@@IEBA_NAEAVPxVec3@2@IPEAUHullTriangleData@2@@Z 00000001800323b4     ConvexHullBuilder.obj
 0002:000043bc       $chain$0$?computeGeomCenter@ConvexHullBuilder@physx@@IEBA_NAEAVPxVec3@2@IPEAUHullTriangleData@2@@Z 00000001800323bc     ConvexHullBuilder.obj
 0002:000043d0       $chain$7$?computeGeomCenter@ConvexHullBuilder@physx@@IEBA_NAEAVPxVec3@2@IPEAUHullTriangleData@2@@Z 00000001800323d0     ConvexHullBuilder.obj
 0002:000043fc       $chain$8$?computeGeomCenter@ConvexHullBuilder@physx@@IEBA_NAEAVPxVec3@2@IPEAUHullTriangleData@2@@Z 00000001800323fc     ConvexHullBuilder.obj
 0002:0000440c       $chain$9$?computeGeomCenter@ConvexHullBuilder@physx@@IEBA_NAEAVPxVec3@2@IPEAUHullTriangleData@2@@Z 000000018003240c     ConvexHullBuilder.obj
 0002:0000441c       $unwind$??1ConvexHullLib@physx@@UEAA@XZ 000000018003241c     ConvexHullLib.obj
 0002:00004428       $unwind$?cleanupVertices@ConvexHullLib@physx@@IEAA_NIPEBVPxVec3@2@IAEAIPEAV32@AEAV32@3@Z 0000000180032428     ConvexHullLib.obj
 0002:00004450       $chain$8$?cleanupVertices@ConvexHullLib@physx@@IEAA_NIPEBVPxVec3@2@IAEAIPEAV32@AEAV32@3@Z 0000000180032450     ConvexHullLib.obj
 0002:0000446c       $chain$13$?cleanupVertices@ConvexHullLib@physx@@IEAA_NIPEBVPxVec3@2@IAEAIPEAV32@AEAV32@3@Z 000000018003246c     ConvexHullLib.obj
 0002:00004490       $chain$14$?cleanupVertices@ConvexHullLib@physx@@IEAA_NIPEBVPxVec3@2@IAEAIPEAV32@AEAV32@3@Z 0000000180032490     ConvexHullLib.obj
 0002:000044a0       $chain$15$?cleanupVertices@ConvexHullLib@physx@@IEAA_NIPEBVPxVec3@2@IAEAIPEAV32@AEAV32@3@Z 00000001800324a0     ConvexHullLib.obj
 0002:000044b0       $unwind$?shiftAndcleanupVertices@ConvexHullLib@physx@@IEAA_NIPEBVPxVec3@2@IAEAIPEAV32@AEAV32@3@Z 00000001800324b0     ConvexHullLib.obj
 0002:000044c8       $chain$5$?shiftAndcleanupVertices@ConvexHullLib@physx@@IEAA_NIPEBVPxVec3@2@IAEAIPEAV32@AEAV32@3@Z 00000001800324c8     ConvexHullLib.obj
 0002:000044f0       $chain$6$?shiftAndcleanupVertices@ConvexHullLib@physx@@IEAA_NIPEBVPxVec3@2@IAEAIPEAV32@AEAV32@3@Z 00000001800324f0     ConvexHullLib.obj
 0002:00004514       $chain$8$?shiftAndcleanupVertices@ConvexHullLib@physx@@IEAA_NIPEBVPxVec3@2@IAEAIPEAV32@AEAV32@3@Z 0000000180032514     ConvexHullLib.obj
 0002:0000452c       $chain$9$?shiftAndcleanupVertices@ConvexHullLib@physx@@IEAA_NIPEBVPxVec3@2@IAEAIPEAV32@AEAV32@3@Z 000000018003252c     ConvexHullLib.obj
 0002:0000453c       $chain$10$?shiftAndcleanupVertices@ConvexHullLib@physx@@IEAA_NIPEBVPxVec3@2@IAEAIPEAV32@AEAV32@3@Z 000000018003253c     ConvexHullLib.obj
 0002:0000454c       $unwind$?swapLargestFace@ConvexHullLib@physx@@IEAAXAEAVPxConvexMeshDesc@2@@Z 000000018003254c     ConvexHullLib.obj
 0002:0000455c       $chain$2$?swapLargestFace@ConvexHullLib@physx@@IEAAXAEAVPxConvexMeshDesc@2@@Z 000000018003255c     ConvexHullLib.obj
 0002:00004578       $chain$3$?swapLargestFace@ConvexHullLib@physx@@IEAAXAEAVPxConvexMeshDesc@2@@Z 0000000180032578     ConvexHullLib.obj
 0002:00004588       $unwind$??_GConvexHullLib@physx@@UEAAPEAXI@Z 0000000180032588     ConvexHullLib.obj
 0002:00004598       $unwind$?checkPointsAABBValidity@local@@YA_NIPEBVPxVec3@physx@@IMMAEAV23@1AEAIPEAV23@_N@Z 0000000180032598     ConvexHullLib.obj
 0002:000045b0       $chain$2$?checkPointsAABBValidity@local@@YA_NIPEBVPxVec3@physx@@IMMAEAV23@1AEAIPEAV23@_N@Z 00000001800325b0     ConvexHullLib.obj
 0002:000045cc       $chain$3$?checkPointsAABBValidity@local@@YA_NIPEBVPxVec3@physx@@IMMAEAV23@1AEAIPEAV23@_N@Z 00000001800325cc     ConvexHullLib.obj
 0002:000045e0       $chain$4$?checkPointsAABBValidity@local@@YA_NIPEBVPxVec3@physx@@IMMAEAV23@1AEAIPEAV23@_N@Z 00000001800325e0     ConvexHullLib.obj
 0002:000045f0       $chain$5$?checkPointsAABBValidity@local@@YA_NIPEBVPxVec3@physx@@IMMAEAV23@1AEAIPEAV23@_N@Z 00000001800325f0     ConvexHullLib.obj
 0002:00004600       $unwind$??0PxQuat@physx@@QEAA@AEBVPxMat33@1@@Z 0000000180032600     ConvexHullUtils.obj
 0002:0000460c       $unwind$?getInverse@PxMat33@physx@@QEBA?BV12@XZ 000000018003260c     ConvexHullUtils.obj
 0002:00004624       $chain$5$?getInverse@PxMat33@physx@@QEBA?BV12@XZ 0000000180032624     ConvexHullUtils.obj
 0002:0000464c       $chain$6$?getInverse@PxMat33@physx@@QEBA?BV12@XZ 000000018003264c     ConvexHullUtils.obj
 0002:0000465c       $unwind$??0ConvexHull@physx@@QEAA@AEBVPxVec3@1@0AEBV?$Array@VPxPlane@physx@@V?$ReflectionAllocator@VPxPlane@physx@@@shdfnd@2@@shdfnd@1@@Z 000000018003265c     ConvexHullUtils.obj
 0002:00004674       $unwind$??0ConvexHull@physx@@QEAA@AEBVPxVec3@1@AEBVPxTransform@1@AEBV?$Array@VPxPlane@physx@@V?$ReflectionAllocator@VPxPlane@physx@@@shdfnd@2@@shdfnd@1@@Z 0000000180032674     ConvexHullUtils.obj
 0002:000046ac       $unwind$?findCandidatePlane@ConvexHull@physx@@QEBAHMM@Z 00000001800326ac     ConvexHullUtils.obj
 0002:000046d0       $chain$7$?findCandidatePlane@ConvexHull@physx@@QEBAHMM@Z 00000001800326d0     ConvexHullUtils.obj
 0002:00004700       $chain$8$?findCandidatePlane@ConvexHull@physx@@QEBAHMM@Z 0000000180032700     ConvexHullUtils.obj
 0002:00004710       $unwind$?assertIntact@ConvexHull@physx@@QEBA_NM@Z 0000000180032710     ConvexHullUtils.obj
 0002:00004724       $chain$8$?assertIntact@ConvexHull@physx@@QEBA_NM@Z 0000000180032724     ConvexHullUtils.obj
 0002:00004758       $chain$9$?assertIntact@ConvexHull@physx@@QEBA_NM@Z 0000000180032758     ConvexHullUtils.obj
 0002:00004768       $chain$10$?assertIntact@ConvexHull@physx@@QEBA_NM@Z 0000000180032768     ConvexHullUtils.obj
 0002:0000479c       $unwind$?maxNumVertsPerFace@ConvexHull@physx@@QEBAIXZ 000000018003279c     ConvexHullUtils.obj
 0002:000047a4       $chain$0$?maxNumVertsPerFace@ConvexHull@physx@@QEBAIXZ 00000001800327a4     ConvexHullUtils.obj
 0002:000047b8       $chain$1$?maxNumVertsPerFace@ConvexHull@physx@@QEBAIXZ 00000001800327b8     ConvexHullUtils.obj
 0002:000047c8       $unwind$?convexHullCrop@physx@@YAPEAVConvexHull@1@AEBV21@AEBVPxPlane@1@M@Z 00000001800327c8     ConvexHullUtils.obj
 0002:000047d8       $chain$6$?convexHullCrop@physx@@YAPEAVConvexHull@1@AEBV21@AEBVPxPlane@1@M@Z 00000001800327d8     ConvexHullUtils.obj
 0002:00004804       $chain$7$?convexHullCrop@physx@@YAPEAVConvexHull@1@AEBV21@AEBVPxPlane@1@M@Z 0000000180032804     ConvexHullUtils.obj
 0002:00004818       $chain$8$?convexHullCrop@physx@@YAPEAVConvexHull@1@AEBV21@AEBVPxPlane@1@M@Z 0000000180032818     ConvexHullUtils.obj
 0002:00004828       $chain$9$?convexHullCrop@physx@@YAPEAVConvexHull@1@AEBV21@AEBVPxPlane@1@M@Z 0000000180032828     ConvexHullUtils.obj
 0002:0000483c       $chain$11$?convexHullCrop@physx@@YAPEAVConvexHull@1@AEBV21@AEBVPxPlane@1@M@Z 000000018003283c     ConvexHullUtils.obj
 0002:00004854       $chain$12$?convexHullCrop@physx@@YAPEAVConvexHull@1@AEBV21@AEBVPxPlane@1@M@Z 0000000180032854     ConvexHullUtils.obj
 0002:00004864       $chain$13$?convexHullCrop@physx@@YAPEAVConvexHull@1@AEBV21@AEBVPxPlane@1@M@Z 0000000180032864     ConvexHullUtils.obj
 0002:00004878       $unwind$?computeOBBFromConvex@physx@@YA_NAEBVPxConvexMeshDesc@1@AEAVPxVec3@1@AEAVPxTransform@1@@Z 0000000180032878     ConvexHullUtils.obj
 0002:00004898       $chain$6$?computeOBBFromConvex@physx@@YA_NAEBVPxConvexMeshDesc@1@AEAVPxVec3@1@AEAVPxTransform@1@@Z 0000000180032898     ConvexHullUtils.obj
 0002:000048c4       $chain$7$?computeOBBFromConvex@physx@@YA_NAEBVPxConvexMeshDesc@1@AEAVPxVec3@1@AEAVPxTransform@1@@Z 00000001800328c4     ConvexHullUtils.obj
 0002:000048d4       $unwind$?computeOBBSIMD@local@@YAXIPEBT__m128@@AEAT2@AEBT2@1@Z 00000001800328d4     ConvexHullUtils.obj
 0002:000048e8       $chain$5$?computeOBBSIMD@local@@YAXIPEBT__m128@@AEAT2@AEBT2@1@Z 00000001800328e8     ConvexHullUtils.obj
 0002:00004910       $chain$6$?computeOBBSIMD@local@@YAXIPEBT__m128@@AEAT2@AEBT2@1@Z 0000000180032910     ConvexHullUtils.obj
 0002:00004920       $unwind$?copyHull@ConvexHull@physx@@QEAAXAEBV12@@Z 0000000180032920     ConvexHullUtils.obj
 0002:00004934       $unwind$?resize@?$Array@VPxVec3@physx@@V?$ReflectionAllocator@VPxVec3@physx@@@shdfnd@2@@shdfnd@physx@@QEAAXIAEBVPxVec3@3@@Z 0000000180032934     ConvexHullUtils.obj
 0002:00004944       $unwind$?allocate@?$ReflectionAllocator@VHalfEdge@ConvexHull@physx@@@shdfnd@physx@@QEAAPEAX_KPEBDH@Z 0000000180032944     ConvexHullUtils.obj
 0002:00004954       $chain$0$?allocate@?$ReflectionAllocator@VHalfEdge@ConvexHull@physx@@@shdfnd@physx@@QEAAPEAX_KPEBDH@Z 0000000180032954     ConvexHullUtils.obj
 0002:00004968       $chain$1$?allocate@?$ReflectionAllocator@VHalfEdge@ConvexHull@physx@@@shdfnd@physx@@QEAAPEAX_KPEBDH@Z 0000000180032968     ConvexHullUtils.obj
 0002:00004978       $unwind$?resize@?$Array@VHalfEdge@ConvexHull@physx@@V?$ReflectionAllocator@VHalfEdge@ConvexHull@physx@@@shdfnd@3@@shdfnd@physx@@QEAAXIAEBVHalfEdge@ConvexHull@3@@Z 0000000180032978     ConvexHullUtils.obj
 0002:00004988       $unwind$?growAndPushBack@?$Array@VHalfEdge@ConvexHull@physx@@V?$ReflectionAllocator@VHalfEdge@ConvexHull@physx@@@shdfnd@3@@shdfnd@physx@@IEAAAEAVHalfEdge@ConvexHull@3@AEBV453@@Z 0000000180032988     ConvexHullUtils.obj
 0002:0000499c       $unwind$?recreate@?$Array@VHalfEdge@ConvexHull@physx@@V?$ReflectionAllocator@VHalfEdge@ConvexHull@physx@@@shdfnd@3@@shdfnd@physx@@IEAAXI@Z 000000018003299c     ConvexHullUtils.obj
 0002:000049b0       $unwind$?allocate@?$ReflectionAllocator@VPxPlane@physx@@@shdfnd@physx@@QEAAPEAX_KPEBDH@Z 00000001800329b0     ConvexHullUtils.obj
 0002:000049c0       $chain$0$?allocate@?$ReflectionAllocator@VPxPlane@physx@@@shdfnd@physx@@QEAAPEAX_KPEBDH@Z 00000001800329c0     ConvexHullUtils.obj
 0002:000049d4       $chain$1$?allocate@?$ReflectionAllocator@VPxPlane@physx@@@shdfnd@physx@@QEAAPEAX_KPEBDH@Z 00000001800329d4     ConvexHullUtils.obj
 0002:000049e4       $unwind$?resize@?$Array@VPxPlane@physx@@V?$ReflectionAllocator@VPxPlane@physx@@@shdfnd@2@@shdfnd@physx@@QEAAXIAEBVPxPlane@3@@Z 00000001800329e4     ConvexHullUtils.obj
 0002:000049f4       $unwind$?copy@?$Array@VPxPlane@physx@@V?$ReflectionAllocator@VPxPlane@physx@@@shdfnd@2@@shdfnd@physx@@KAXPEAVPxPlane@3@0PEBV43@@Z 00000001800329f4     ConvexHullUtils.obj
 0002:000049fc       $chain$0$?copy@?$Array@VPxPlane@physx@@V?$ReflectionAllocator@VPxPlane@physx@@@shdfnd@2@@shdfnd@physx@@KAXPEAVPxPlane@3@0PEBV43@@Z 00000001800329fc     ConvexHullUtils.obj
 0002:00004a10       $chain$1$?copy@?$Array@VPxPlane@physx@@V?$ReflectionAllocator@VPxPlane@physx@@@shdfnd@2@@shdfnd@physx@@KAXPEAVPxPlane@3@0PEBV43@@Z 0000000180032a10     ConvexHullUtils.obj
 0002:00004a20       $unwind$?growAndPushBack@?$Array@VPxPlane@physx@@V?$ReflectionAllocator@VPxPlane@physx@@@shdfnd@2@@shdfnd@physx@@IEAAAEAVPxPlane@3@AEBV43@@Z 0000000180032a20     ConvexHullUtils.obj
 0002:00004a38       $unwind$?recreate@?$Array@VPxPlane@physx@@V?$ReflectionAllocator@VPxPlane@physx@@@shdfnd@2@@shdfnd@physx@@IEAAXI@Z 0000000180032a38     ConvexHullUtils.obj
 0002:00004a4c       $unwind$?rotate@Box@Gu@physx@@QEBA?AVPxVec3@3@AEBV43@@Z 0000000180032a4c     ConvexHullUtils.obj
 0002:00004a60       $unwind$?rotateInv@Box@Gu@physx@@QEBA?AVPxVec3@3@AEBV43@@Z 0000000180032a60     ConvexHullUtils.obj
 0002:00004a6c       $unwind$?transform@Box@Gu@physx@@QEBA?AVPxVec3@3@AEBV43@@Z 0000000180032a6c     ConvexHullUtils.obj
 0002:00004a80       $unwind$?getTransform@Box@Gu@physx@@QEBA?AVPxTransform@3@XZ 0000000180032a80     ConvexHullUtils.obj
 0002:00004a8c       $unwind$?computeAABBExtent@Box@Gu@physx@@QEBA?AVPxVec3@3@XZ 0000000180032a8c     ConvexHullUtils.obj
 0002:00004a98       $unwind$?computeBoxPoints@Box@Gu@physx@@QEBAXPEIAVPxVec3@3@@Z 0000000180032a98     ConvexHullUtils.obj
 0002:00004aa0       $unwind$?isFinite@PxVec3@physx@@QEBA_NXZ 0000000180032aa0     ConvexMeshBuilder.obj
 0002:00004aa8       $unwind$??0ConvexMeshBuilder@physx@@QEAA@_N@Z 0000000180032aa8     ConvexMeshBuilder.obj
 0002:00004ab0       $unwind$??1ConvexMeshBuilder@physx@@QEAA@XZ 0000000180032ab0     ConvexMeshBuilder.obj
 0002:00004abc       $unwind$?build@ConvexMeshBuilder@physx@@QEAA_NAEBVPxConvexMeshDesc@2@I_NPEAVConvexHullLib@2@@Z 0000000180032abc     ConvexMeshBuilder.obj
 0002:00004ad4       $chain$3$?build@ConvexMeshBuilder@physx@@QEAA_NAEBVPxConvexMeshDesc@2@I_NPEAVConvexHullLib@2@@Z 0000000180032ad4     ConvexMeshBuilder.obj
 0002:00004af4       $chain$4$?build@ConvexMeshBuilder@physx@@QEAA_NAEBVPxConvexMeshDesc@2@I_NPEAVConvexHullLib@2@@Z 0000000180032af4     ConvexMeshBuilder.obj
 0002:00004b04       $unwind$?save@ConvexMeshBuilder@physx@@QEBA_NAEAVPxOutputStream@2@_N@Z 0000000180032b04     ConvexMeshBuilder.obj
 0002:00004b18       $unwind$?copy@ConvexMeshBuilder@physx@@QEAA_NAEAUConvexHullData@Gu@2@AEAI@Z 0000000180032b18     ConvexMeshBuilder.obj
 0002:00004b24       $unwind$?loadConvexHull@ConvexMeshBuilder@physx@@QEAA_NAEBVPxConvexMeshDesc@2@PEAVConvexHullLib@2@@Z 0000000180032b24     ConvexMeshBuilder.obj
 0002:00004b44       $unwind$?computeHullPolygons@ConvexMeshBuilder@physx@@QEAA_NAEBIPEBVPxVec3@2@0PEBIAEAVPxAllocatorCallback@2@AEAIAEAPEAV32@4AEAPEAI4AEAPEAUPxHullPolygon@2@@Z 0000000180032b44     ConvexMeshBuilder.obj
 0002:00004b4c       $chain$3$?computeHullPolygons@ConvexMeshBuilder@physx@@QEAA_NAEBIPEBVPxVec3@2@0PEBIAEAVPxAllocatorCallback@2@AEAIAEAPEAV32@4AEAPEAI4AEAPEAUPxHullPolygon@2@@Z 0000000180032b4c     ConvexMeshBuilder.obj
 0002:00004b6c       $chain$4$?computeHullPolygons@ConvexMeshBuilder@physx@@QEAA_NAEBIPEBVPxVec3@2@0PEBIAEAVPxAllocatorCallback@2@AEAIAEAPEAV32@4AEAPEAI4AEAPEAUPxHullPolygon@2@@Z 0000000180032b6c     ConvexMeshBuilder.obj
 0002:00004b84       $unwind$?computeGaussMaps@ConvexMeshBuilder@physx@@QEAA_NXZ 0000000180032b84     ConvexMeshBuilder.obj
 0002:00004b90       $unwind$?computeMassInfo@ConvexMeshBuilder@physx@@QEAAX_N@Z 0000000180032b90     ConvexMeshBuilder.obj
 0002:00004ba0       $chain$1$?computeMassInfo@ConvexMeshBuilder@physx@@QEAAX_N@Z 0000000180032ba0     ConvexMeshBuilder.obj
 0002:00004bb8       $chain$2$?computeMassInfo@ConvexMeshBuilder@physx@@QEAAX_N@Z 0000000180032bb8     ConvexMeshBuilder.obj
 0002:00004bcc       $chain$6$?computeMassInfo@ConvexMeshBuilder@physx@@QEAAX_N@Z 0000000180032bcc     ConvexMeshBuilder.obj
 0002:00004bec       $chain$7$?computeMassInfo@ConvexMeshBuilder@physx@@QEAAX_N@Z 0000000180032bec     ConvexMeshBuilder.obj
 0002:00004bfc       $chain$8$?computeMassInfo@ConvexMeshBuilder@physx@@QEAAX_N@Z 0000000180032bfc     ConvexMeshBuilder.obj
 0002:00004c0c       $chain$9$?computeMassInfo@ConvexMeshBuilder@physx@@QEAAX_N@Z 0000000180032c0c     ConvexMeshBuilder.obj
 0002:00004c1c       $unwind$?ComputeInternalExtent@@YAXAEAUConvexHullData@Gu@physx@@PEBUHullPolygonData@23@@Z 0000000180032c1c     ConvexMeshBuilder.obj
 0002:00004c44       $chain$0$?ComputeInternalExtent@@YAXAEAUConvexHullData@Gu@physx@@PEBUHullPolygonData@23@@Z 0000000180032c44     ConvexMeshBuilder.obj
 0002:00004c58       $chain$1$?ComputeInternalExtent@@YAXAEAUConvexHullData@Gu@physx@@PEBUHullPolygonData@23@@Z 0000000180032c58     ConvexMeshBuilder.obj
 0002:00004c6c       $chain$2$?ComputeInternalExtent@@YAXAEAUConvexHullData@Gu@physx@@PEBUHullPolygonData@23@@Z 0000000180032c6c     ConvexMeshBuilder.obj
 0002:00004c7c       $chain$3$?ComputeInternalExtent@@YAXAEAUConvexHullData@Gu@physx@@PEBUHullPolygonData@23@@Z 0000000180032c7c     ConvexMeshBuilder.obj
 0002:00004c90       $chain$4$?ComputeInternalExtent@@YAXAEAUConvexHullData@Gu@physx@@PEBUHullPolygonData@23@@Z 0000000180032c90     ConvexMeshBuilder.obj
 0002:00004ca0       $unwind$??0ConvexPolygonsBuilder@physx@@QEAA@PEAUConvexHullData@Gu@1@_N@Z 0000000180032ca0     ConvexPolygonsBuilder.obj
 0002:00004ca8       $unwind$??1ConvexPolygonsBuilder@physx@@QEAA@XZ 0000000180032ca8     ConvexPolygonsBuilder.obj
 0002:00004cb4       $unwind$?computeHullPolygons@ConvexPolygonsBuilder@physx@@QEAA_NAEBIPEBVPxVec3@2@0PEBI@Z 0000000180032cb4     ConvexPolygonsBuilder.obj
 0002:00004cc8       $unwind$?createPolygonData@ConvexPolygonsBuilder@physx@@AEAA_NXZ 0000000180032cc8     ConvexPolygonsBuilder.obj
 0002:00004cd8       $chain$6$?createPolygonData@ConvexPolygonsBuilder@physx@@AEAA_NXZ 0000000180032cd8     ConvexPolygonsBuilder.obj
 0002:00004d04       $chain$7$?createPolygonData@ConvexPolygonsBuilder@physx@@AEAA_NXZ 0000000180032d04     ConvexPolygonsBuilder.obj
 0002:00004d14       $chain$8$?createPolygonData@ConvexPolygonsBuilder@physx@@AEAA_NXZ 0000000180032d14     ConvexPolygonsBuilder.obj
 0002:00004d40       $unwind$?createTrianglesFromPolygons@ConvexPolygonsBuilder@physx@@AEAA_NXZ 0000000180032d40     ConvexPolygonsBuilder.obj
 0002:00004d4c       $chain$1$?createTrianglesFromPolygons@ConvexPolygonsBuilder@physx@@AEAA_NXZ 0000000180032d4c     ConvexPolygonsBuilder.obj
 0002:00004d64       $chain$7$?createTrianglesFromPolygons@ConvexPolygonsBuilder@physx@@AEAA_NXZ 0000000180032d64     ConvexPolygonsBuilder.obj
 0002:00004d8c       $chain$8$?createTrianglesFromPolygons@ConvexPolygonsBuilder@physx@@AEAA_NXZ 0000000180032d8c     ConvexPolygonsBuilder.obj
 0002:00004d9c       $chain$11$?createTrianglesFromPolygons@ConvexPolygonsBuilder@physx@@AEAA_NXZ 0000000180032d9c     ConvexPolygonsBuilder.obj
 0002:00004dcc       $chain$12$?createTrianglesFromPolygons@ConvexPolygonsBuilder@physx@@AEAA_NXZ 0000000180032dcc     ConvexPolygonsBuilder.obj
 0002:00004ddc       $chain$14$?createTrianglesFromPolygons@ConvexPolygonsBuilder@physx@@AEAA_NXZ 0000000180032ddc     ConvexPolygonsBuilder.obj
 0002:00004e14       $chain$19$?createTrianglesFromPolygons@ConvexPolygonsBuilder@physx@@AEAA_NXZ 0000000180032e14     ConvexPolygonsBuilder.obj
 0002:00004e38       $chain$20$?createTrianglesFromPolygons@ConvexPolygonsBuilder@physx@@AEAA_NXZ 0000000180032e38     ConvexPolygonsBuilder.obj
 0002:00004e48       $chain$21$?createTrianglesFromPolygons@ConvexPolygonsBuilder@physx@@AEAA_NXZ 0000000180032e48     ConvexPolygonsBuilder.obj
 0002:00004e58       $unwind$?findLineStrip@@YA_NAEAV?$Array@IV?$ReflectionAllocator@I@shdfnd@physx@@@shdfnd@physx@@AEBV?$Array@VPair@@V?$ReflectionAllocator@VPair@@@shdfnd@physx@@@23@@Z 0000000180032e58     ConvexPolygonsBuilder.obj
 0002:00004e64       $chain$2$?findLineStrip@@YA_NAEAV?$Array@IV?$ReflectionAllocator@I@shdfnd@physx@@@shdfnd@physx@@AEBV?$Array@VPair@@V?$ReflectionAllocator@VPair@@@shdfnd@physx@@@23@@Z 0000000180032e64     ConvexPolygonsBuilder.obj
 0002:00004e80       $chain$5$?findLineStrip@@YA_NAEAV?$Array@IV?$ReflectionAllocator@I@shdfnd@physx@@@shdfnd@physx@@AEBV?$Array@VPair@@V?$ReflectionAllocator@VPair@@@shdfnd@physx@@@23@@Z 0000000180032e80     ConvexPolygonsBuilder.obj
 0002:00004e9c       $chain$6$?findLineStrip@@YA_NAEAV?$Array@IV?$ReflectionAllocator@I@shdfnd@physx@@@shdfnd@physx@@AEBV?$Array@VPair@@V?$ReflectionAllocator@VPair@@@shdfnd@physx@@@23@@Z 0000000180032e9c     ConvexPolygonsBuilder.obj
 0002:00004eac       $chain$7$?findLineStrip@@YA_NAEAV?$Array@IV?$ReflectionAllocator@I@shdfnd@physx@@@shdfnd@physx@@AEBV?$Array@VPair@@V?$ReflectionAllocator@VPair@@@shdfnd@physx@@@23@@Z 0000000180032eac     ConvexPolygonsBuilder.obj
 0002:00004ed4       $unwind$?allocate@?$ReflectionAllocator@VPair@@@shdfnd@physx@@QEAAPEAX_KPEBDH@Z 0000000180032ed4     ConvexPolygonsBuilder.obj
 0002:00004ee4       $chain$0$?allocate@?$ReflectionAllocator@VPair@@@shdfnd@physx@@QEAAPEAX_KPEBDH@Z 0000000180032ee4     ConvexPolygonsBuilder.obj
 0002:00004ef8       $chain$1$?allocate@?$ReflectionAllocator@VPair@@@shdfnd@physx@@QEAAPEAX_KPEBDH@Z 0000000180032ef8     ConvexPolygonsBuilder.obj
 0002:00004f08       $unwind$?growAndPushBack@?$Array@VPair@@V?$ReflectionAllocator@VPair@@@shdfnd@physx@@@shdfnd@physx@@IEAAAEAVPair@@AEBV4@@Z 0000000180032f08     ConvexPolygonsBuilder.obj
 0002:00004f1c       $unwind$?TestDuplicateTriangles@@YA_NAEAIPEAU?$TriangleT@I@Gu@physx@@_N@Z 0000000180032f1c     ConvexPolygonsBuilder.obj
 0002:00004f38       $unwind$?TestUnifiedNormals@@YA_NIPEBVPxVec3@physx@@IPEAU?$TriangleT@I@Gu@2@_N@Z 0000000180032f38     ConvexPolygonsBuilder.obj
 0002:00004f48       $chain$10$?TestUnifiedNormals@@YA_NIPEBVPxVec3@physx@@IPEAU?$TriangleT@I@Gu@2@_N@Z 0000000180032f48     ConvexPolygonsBuilder.obj
 0002:00004f84       $chain$12$?TestUnifiedNormals@@YA_NIPEBVPxVec3@physx@@IPEAU?$TriangleT@I@Gu@2@_N@Z 0000000180032f84     ConvexPolygonsBuilder.obj
 0002:00004f9c       $chain$13$?TestUnifiedNormals@@YA_NIPEBVPxVec3@physx@@IPEAU?$TriangleT@I@Gu@2@_N@Z 0000000180032f9c     ConvexPolygonsBuilder.obj
 0002:00004fac       $chain$14$?TestUnifiedNormals@@YA_NIPEBVPxVec3@physx@@IPEAU?$TriangleT@I@Gu@2@_N@Z 0000000180032fac     ConvexPolygonsBuilder.obj
 0002:00004fbc       $unwind$?CleanFaces@@YA_NAEAIPEAU?$TriangleT@I@Gu@physx@@0PEAVPxVec3@3@@Z 0000000180032fbc     ConvexPolygonsBuilder.obj
 0002:00004fd4       $unwind$?computeNewellPlane@@YA_NAEAVPxPlane@physx@@IPEBEPEBVPxVec3@2@@Z 0000000180032fd4     ConvexPolygonsBuilder.obj
 0002:00004fdc       $chain$7$?computeNewellPlane@@YA_NAEAVPxPlane@physx@@IPEBEPEBVPxVec3@2@@Z 0000000180032fdc     ConvexPolygonsBuilder.obj
 0002:0000500c       $chain$10$?computeNewellPlane@@YA_NAEAVPxPlane@physx@@IPEBEPEBVPxVec3@2@@Z 000000018003300c     ConvexPolygonsBuilder.obj
 0002:00005028       $chain$11$?computeNewellPlane@@YA_NAEAVPxPlane@physx@@IPEBEPEBVPxVec3@2@@Z 0000000180033028     ConvexPolygonsBuilder.obj
 0002:00005038       $chain$12$?computeNewellPlane@@YA_NAEAVPxPlane@physx@@IPEBEPEBVPxVec3@2@@Z 0000000180033038     ConvexPolygonsBuilder.obj
 0002:00005060       $chain$13$?computeNewellPlane@@YA_NAEAVPxPlane@physx@@IPEBEPEBVPxVec3@2@@Z 0000000180033060     ConvexPolygonsBuilder.obj
 0002:00005070       $unwind$?checkRedundantVertices@@YAXAEAIAEAV?$Array@IV?$ReflectionAllocator@I@shdfnd@physx@@@shdfnd@physx@@AEBVConvexPolygonsBuilder@3@11@Z 0000000180033070     ConvexPolygonsBuilder.obj
 0002:0000508c       $unwind$?extractHullPolygons@@YA_NAEAIAEAV?$Array@IV?$ReflectionAllocator@I@shdfnd@physx@@@shdfnd@physx@@AEBVConvexPolygonsBuilder@3@PEAV123@1@Z 000000018003308c     ConvexPolygonsBuilder.obj
 0002:000050a8       $unwind$?FloodFill@Local@?7??extractHullPolygons@@YA_NAEAIAEAV?$Array@IV?$ReflectionAllocator@I@shdfnd@physx@@@shdfnd@physx@@AEBVConvexPolygonsBuilder@5@PEAV345@1@Z@SAX1PEBVAdjTriangle@5@IPEA_N@Z 00000001800330a8     ConvexPolygonsBuilder.obj
 0002:000050bc       $unwind$?GetNeighborFace@Local@?7??extractHullPolygons@@YA_NAEAIAEAV?$Array@IV?$ReflectionAllocator@I@shdfnd@physx@@@shdfnd@physx@@AEBVConvexPolygonsBuilder@5@PEAV345@1@Z@SA_NIIPEBVAdjTriangle@5@PEBI00@Z 00000001800330bc     ConvexPolygonsBuilder.obj
 0002:000050d4       $unwind$?CheckFloodFillFace@Local@?7??extractHullPolygons@@YA_NAEAIAEAV?$Array@IV?$ReflectionAllocator@I@shdfnd@physx@@@shdfnd@physx@@AEBVConvexPolygonsBuilder@5@PEAV345@1@Z@SA_NIPEBVAdjTriangle@5@PEBI@Z 00000001800330d4     ConvexPolygonsBuilder.obj
 0002:000050e0       $chain$6$?CheckFloodFillFace@Local@?7??extractHullPolygons@@YA_NAEAIAEAV?$Array@IV?$ReflectionAllocator@I@shdfnd@physx@@@shdfnd@physx@@AEBVConvexPolygonsBuilder@5@PEAV345@1@Z@SA_NIPEBVAdjTriangle@5@PEBI@Z 00000001800330e0     ConvexPolygonsBuilder.obj
 0002:0000510c       $chain$8$?CheckFloodFillFace@Local@?7??extractHullPolygons@@YA_NAEAIAEAV?$Array@IV?$ReflectionAllocator@I@shdfnd@physx@@@shdfnd@physx@@AEBVConvexPolygonsBuilder@5@PEAV345@1@Z@SA_NIPEBVAdjTriangle@5@PEBI@Z 000000018003310c     ConvexPolygonsBuilder.obj
 0002:00005138       $unwind$?CheckFloodFill@Local@?7??extractHullPolygons@@YA_NAEAIAEAV?$Array@IV?$ReflectionAllocator@I@shdfnd@physx@@@shdfnd@physx@@AEBVConvexPolygonsBuilder@5@PEAV345@1@Z@SA_N1PEAVAdjTriangle@5@PEA_NPEBI@Z 0000000180033138     ConvexPolygonsBuilder.obj
 0002:00005154       $unwind$??$PlaneEquation@U?$TriangleT@I@Gu@physx@@@@YA?AVPxPlane@physx@@AEBU?$TriangleT@I@Gu@1@PEBVPxVec3@1@@Z 0000000180033154     ConvexPolygonsBuilder.obj
 0002:0000516c       $unwind$??$copy@V?$ReflectionAllocator@VPair@@@shdfnd@physx@@@?$Array@VPair@@V?$ReflectionAllocator@VPair@@@shdfnd@physx@@@shdfnd@physx@@IEAAXAEBV012@@Z 000000018003316c     ConvexPolygonsBuilder.obj
 0002:00005178       $unwind$??__G@YAXPEAX0_K1P6APEAX00@Z@Z 0000000180033178     QuickHullConvexHullLib.obj
 0002:0000518c       $chain$0$??__G@YAXPEAX0_K1P6APEAX00@Z@Z 000000018003318c     QuickHullConvexHullLib.obj
 0002:000051a0       $chain$1$??__G@YAXPEAX0_K1P6APEAX00@Z@Z 00000001800331a0     QuickHullConvexHullLib.obj
 0002:000051b0       $unwind$??0QuickHullConvexHullLib@physx@@QEAA@AEBVPxConvexMeshDesc@1@AEBUPxCookingParams@1@@Z 00000001800331b0     QuickHullConvexHullLib.obj
 0002:000051c8       $unwind$??1QuickHullConvexHullLib@physx@@UEAA@XZ 00000001800331c8     QuickHullConvexHullLib.obj
 0002:000051d8       $unwind$?createConvexHull@QuickHullConvexHullLib@physx@@UEAA?AW4Enum@PxConvexMeshCookingResult@2@XZ 00000001800331d8     QuickHullConvexHullLib.obj
 0002:000051ec       $unwind$?fillConvexMeshDesc@QuickHullConvexHullLib@physx@@UEAAXAEAVPxConvexMeshDesc@2@@Z 00000001800331ec     QuickHullConvexHullLib.obj
 0002:000051f8       $unwind$?createEdgeList@QuickHullConvexHullLib@physx@@UEAA_NIPEBEPEAPEAEPEAPEAG2@Z 00000001800331f8     QuickHullConvexHullLib.obj
 0002:0000521c       $unwind$?expandHullOBB@QuickHullConvexHullLib@physx@@IEAA?AW4Enum@PxConvexMeshCookingResult@2@XZ 000000018003321c     QuickHullConvexHullLib.obj
 0002:00005228       $chain$4$?expandHullOBB@QuickHullConvexHullLib@physx@@IEAA?AW4Enum@PxConvexMeshCookingResult@2@XZ 0000000180033228     QuickHullConvexHullLib.obj
 0002:0000524c       $chain$5$?expandHullOBB@QuickHullConvexHullLib@physx@@IEAA?AW4Enum@PxConvexMeshCookingResult@2@XZ 000000018003324c     QuickHullConvexHullLib.obj
 0002:00005260       $chain$6$?expandHullOBB@QuickHullConvexHullLib@physx@@IEAA?AW4Enum@PxConvexMeshCookingResult@2@XZ 0000000180033260     QuickHullConvexHullLib.obj
 0002:00005270       $chain$7$?expandHullOBB@QuickHullConvexHullLib@physx@@IEAA?AW4Enum@PxConvexMeshCookingResult@2@XZ 0000000180033270     QuickHullConvexHullLib.obj
 0002:00005280       $unwind$?expandHull@QuickHullConvexHullLib@physx@@IEAA?AW4Enum@PxConvexMeshCookingResult@2@XZ 0000000180033280     QuickHullConvexHullLib.obj
 0002:000052a0       $unwind$?cleanupForSimplex@QuickHullConvexHullLib@physx@@IEAA_NPEAVPxVec3@2@IPEAUQuickHullVertex@local@@1AEAM2@Z 00000001800332a0     QuickHullConvexHullLib.obj
 0002:000052bc       $chain$0$?cleanupForSimplex@QuickHullConvexHullLib@physx@@IEAA_NPEAVPxVec3@2@IPEAUQuickHullVertex@local@@1AEAM2@Z 00000001800332bc     QuickHullConvexHullLib.obj
 0002:000052d0       $chain$8$?cleanupForSimplex@QuickHullConvexHullLib@physx@@IEAA_NPEAVPxVec3@2@IPEAUQuickHullVertex@local@@1AEAM2@Z 00000001800332d0     QuickHullConvexHullLib.obj
 0002:00005300       $chain$9$?cleanupForSimplex@QuickHullConvexHullLib@physx@@IEAA_NPEAVPxVec3@2@IPEAUQuickHullVertex@local@@1AEAM2@Z 0000000180033300     QuickHullConvexHullLib.obj
 0002:00005314       $chain$10$?cleanupForSimplex@QuickHullConvexHullLib@physx@@IEAA_NPEAVPxVec3@2@IPEAUQuickHullVertex@local@@1AEAM2@Z 0000000180033314     QuickHullConvexHullLib.obj
 0002:00005324       $chain$11$?cleanupForSimplex@QuickHullConvexHullLib@physx@@IEAA_NPEAVPxVec3@2@IPEAUQuickHullVertex@local@@1AEAM2@Z 0000000180033324     QuickHullConvexHullLib.obj
 0002:0000533c       $chain$12$?cleanupForSimplex@QuickHullConvexHullLib@physx@@IEAA_NPEAVPxVec3@2@IPEAUQuickHullVertex@local@@1AEAM2@Z 000000018003333c     QuickHullConvexHullLib.obj
 0002:0000534c       $unwind$?fillConvexMeshDescFromQuickHull@QuickHullConvexHullLib@physx@@IEAAXAEAVPxConvexMeshDesc@2@@Z 000000018003334c     QuickHullConvexHullLib.obj
 0002:00005364       $unwind$?fillConvexMeshDescFromCroppedHull@QuickHullConvexHullLib@physx@@IEAAXAEAVPxConvexMeshDesc@2@@Z 0000000180033364     QuickHullConvexHullLib.obj
 0002:0000537c       $unwind$?mergeAdjacentFace@QuickHullFace@local@@QEAA_NPEAUQuickHullHalfEdge@2@AEAV?$Array@PEAUQuickHullFace@local@@V?$ReflectionAllocator@PEAUQuickHullFace@local@@@shdfnd@physx@@@shdfnd@physx@@@Z 000000018003337c     QuickHullConvexHullLib.obj
 0002:00005394       $chain$3$?mergeAdjacentFace@QuickHullFace@local@@QEAA_NPEAUQuickHullHalfEdge@2@AEAV?$Array@PEAUQuickHullFace@local@@V?$ReflectionAllocator@PEAUQuickHullFace@local@@@shdfnd@physx@@@shdfnd@physx@@@Z 0000000180033394     QuickHullConvexHullLib.obj
 0002:000053b4       $chain$4$?mergeAdjacentFace@QuickHullFace@local@@QEAA_NPEAUQuickHullHalfEdge@2@AEAV?$Array@PEAUQuickHullFace@local@@V?$ReflectionAllocator@PEAUQuickHullFace@local@@@shdfnd@physx@@@shdfnd@physx@@@Z 00000001800333b4     QuickHullConvexHullLib.obj
 0002:000053c4       $chain$5$?mergeAdjacentFace@QuickHullFace@local@@QEAA_NPEAUQuickHullHalfEdge@2@AEAV?$Array@PEAUQuickHullFace@local@@V?$ReflectionAllocator@PEAUQuickHullFace@local@@@shdfnd@physx@@@shdfnd@physx@@@Z 00000001800333c4     QuickHullConvexHullLib.obj
 0002:000053e4       $chain$6$?mergeAdjacentFace@QuickHullFace@local@@QEAA_NPEAUQuickHullHalfEdge@2@AEAV?$Array@PEAUQuickHullFace@local@@V?$ReflectionAllocator@PEAUQuickHullFace@local@@@shdfnd@physx@@@shdfnd@physx@@@Z 00000001800333e4     QuickHullConvexHullLib.obj
 0002:000053f8       $chain$7$?mergeAdjacentFace@QuickHullFace@local@@QEAA_NPEAUQuickHullHalfEdge@2@AEAV?$Array@PEAUQuickHullFace@local@@V?$ReflectionAllocator@PEAUQuickHullFace@local@@@shdfnd@physx@@@shdfnd@physx@@@Z 00000001800333f8     QuickHullConvexHullLib.obj
 0002:00005408       $unwind$?connectHalfEdges@QuickHullFace@local@@AEAAPEAU12@PEAUQuickHullHalfEdge@2@0@Z 0000000180033408     QuickHullConvexHullLib.obj
 0002:00005410       $chain$4$?connectHalfEdges@QuickHullFace@local@@AEAAPEAU12@PEAUQuickHullHalfEdge@2@0@Z 0000000180033410     QuickHullConvexHullLib.obj
 0002:00005434       $chain$5$?connectHalfEdges@QuickHullFace@local@@AEAAPEAU12@PEAUQuickHullHalfEdge@2@0@Z 0000000180033434     QuickHullConvexHullLib.obj
 0002:00005454       $chain$6$?connectHalfEdges@QuickHullFace@local@@AEAAPEAU12@PEAUQuickHullHalfEdge@2@0@Z 0000000180033454     QuickHullConvexHullLib.obj
 0002:00005468       $chain$7$?connectHalfEdges@QuickHullFace@local@@AEAAPEAU12@PEAUQuickHullHalfEdge@2@0@Z 0000000180033468     QuickHullConvexHullLib.obj
 0002:00005478       $unwind$??1QuickHull@local@@QEAA@XZ 0000000180033478     QuickHullConvexHullLib.obj
 0002:00005484       $unwind$?preallocate@QuickHull@local@@QEAAXI@Z 0000000180033484     QuickHullConvexHullLib.obj
 0002:00005494       $unwind$?parseInputVertices@QuickHull@local@@QEAAXPEBVPxVec3@physx@@I@Z 0000000180033494     QuickHullConvexHullLib.obj
 0002:000054a0       $chain$0$?parseInputVertices@QuickHull@local@@QEAAXPEBVPxVec3@physx@@I@Z 00000001800334a0     QuickHullConvexHullLib.obj
 0002:000054b4       $chain$1$?parseInputVertices@QuickHull@local@@QEAAXPEBVPxVec3@physx@@I@Z 00000001800334b4     QuickHullConvexHullLib.obj
 0002:000054c4       $unwind$?releaseHull@QuickHull@local@@QEAAXXZ 00000001800334c4     QuickHullConvexHullLib.obj
 0002:000054d0       $unwind$?buildHull@QuickHull@local@@QEAA?AW4Enum@QuickHullResult@2@XZ 00000001800334d0     QuickHullConvexHullLib.obj
 0002:000054e0       $unwind$?computeMinMaxVerts@QuickHull@local@@IEAAXXZ 00000001800334e0     QuickHullConvexHullLib.obj
 0002:000054ec       $unwind$?findSimplex@QuickHull@local@@IEAA_NXZ 00000001800334ec     QuickHullConvexHullLib.obj
 0002:000054fc       $chain$7$?findSimplex@QuickHull@local@@IEAA_NXZ 00000001800334fc     QuickHullConvexHullLib.obj
 0002:0000552c       $chain$11$?findSimplex@QuickHull@local@@IEAA_NXZ 000000018003352c     QuickHullConvexHullLib.obj
 0002:0000554c       $chain$12$?findSimplex@QuickHull@local@@IEAA_NXZ 000000018003354c     QuickHullConvexHullLib.obj
 0002:00005560       $chain$13$?findSimplex@QuickHull@local@@IEAA_NXZ 0000000180033560     QuickHullConvexHullLib.obj
 0002:00005570       $chain$14$?findSimplex@QuickHull@local@@IEAA_NXZ 0000000180033570     QuickHullConvexHullLib.obj
 0002:000055a4       $unwind$?addSimplex@QuickHull@local@@IEAAXPEAUQuickHullVertex@2@_N@Z 00000001800335a4     QuickHullConvexHullLib.obj
 0002:000055b4       $chain$2$?addSimplex@QuickHull@local@@IEAAXPEAUQuickHullVertex@2@_N@Z 00000001800335b4     QuickHullConvexHullLib.obj
 0002:000055d0       $chain$4$?addSimplex@QuickHull@local@@IEAAXPEAUQuickHullVertex@2@_N@Z 00000001800335d0     QuickHullConvexHullLib.obj
 0002:000055e4       $chain$3$?addSimplex@QuickHull@local@@IEAAXPEAUQuickHullVertex@2@_N@Z 00000001800335e4     QuickHullConvexHullLib.obj
 0002:000055f4       $unwind$?nextPointToAdd@QuickHull@local@@IEAAPEAUQuickHullVertex@2@AEAPEAUQuickHullFace@2@@Z 00000001800335f4     QuickHullConvexHullLib.obj
 0002:00005604       $unwind$?addPointToHull@QuickHull@local@@IEAA_NPEBUQuickHullVertex@2@AEAUQuickHullFace@2@AEA_N@Z 0000000180033604     QuickHullConvexHullLib.obj
 0002:0000561c       $chain$2$?addPointToHull@QuickHull@local@@IEAA_NPEBUQuickHullVertex@2@AEAUQuickHullFace@2@AEA_N@Z 000000018003361c     QuickHullConvexHullLib.obj
 0002:00005630       $chain$3$?addPointToHull@QuickHull@local@@IEAA_NPEBUQuickHullVertex@2@AEAUQuickHullFace@2@AEA_N@Z 0000000180033630     QuickHullConvexHullLib.obj
 0002:00005644       $chain$4$?addPointToHull@QuickHull@local@@IEAA_NPEBUQuickHullVertex@2@AEAUQuickHullFace@2@AEA_N@Z 0000000180033644     QuickHullConvexHullLib.obj
 0002:00005654       $chain$5$?addPointToHull@QuickHull@local@@IEAA_NPEBUQuickHullVertex@2@AEAUQuickHullFace@2@AEA_N@Z 0000000180033654     QuickHullConvexHullLib.obj
 0002:00005664       $unwind$?createTriangle@QuickHull@local@@IEAAPEAUQuickHullFace@2@AEBUQuickHullVertex@2@00@Z 0000000180033664     QuickHullConvexHullLib.obj
 0002:0000568c       $unwind$?calculateHorizon@QuickHull@local@@IEAAXAEBVPxVec3@physx@@PEAUQuickHullHalfEdge@2@AEAUQuickHullFace@2@AEAV?$Array@PEAUQuickHullHalfEdge@local@@V?$ReflectionAllocator@PEAUQuickHullHalfEdge@local@@@shdfnd@physx@@@shdfnd@4@AEAV?$Array@PEAUQuickHullFace@local@@V?$ReflectionAllocator@PEAUQuickHullFace@local@@@shdfnd@physx@@@84@@Z 000000018003368c     QuickHullConvexHullLib.obj
 0002:0000569c       $unwind$?addNewFacesFromHorizon@QuickHull@local@@IEAAXPEBUQuickHullVertex@2@AEBV?$Array@PEAUQuickHullHalfEdge@local@@V?$ReflectionAllocator@PEAUQuickHullHalfEdge@local@@@shdfnd@physx@@@shdfnd@physx@@AEAV?$Array@PEAUQuickHullFace@local@@V?$ReflectionAllocator@PEAUQuickHullFace@local@@@shdfnd@physx@@@56@@Z 000000018003369c     QuickHullConvexHullLib.obj
 0002:000056ac       $chain$2$?addNewFacesFromHorizon@QuickHull@local@@IEAAXPEBUQuickHullVertex@2@AEBV?$Array@PEAUQuickHullHalfEdge@local@@V?$ReflectionAllocator@PEAUQuickHullHalfEdge@local@@@shdfnd@physx@@@shdfnd@physx@@AEAV?$Array@PEAUQuickHullFace@local@@V?$ReflectionAllocator@PEAUQuickHullFace@local@@@shdfnd@physx@@@56@@Z 00000001800336ac     QuickHullConvexHullLib.obj
 0002:000056c8       $chain$3$?addNewFacesFromHorizon@QuickHull@local@@IEAAXPEBUQuickHullVertex@2@AEBV?$Array@PEAUQuickHullHalfEdge@local@@V?$ReflectionAllocator@PEAUQuickHullHalfEdge@local@@@shdfnd@physx@@@shdfnd@physx@@AEAV?$Array@PEAUQuickHullFace@local@@V?$ReflectionAllocator@PEAUQuickHullFace@local@@@shdfnd@physx@@@56@@Z 00000001800336c8     QuickHullConvexHullLib.obj
 0002:000056d8       $unwind$?doAdjacentMerge@QuickHull@local@@IEAA_NAEAUQuickHullFace@2@_NAEA_N@Z 00000001800336d8     QuickHullConvexHullLib.obj
 0002:000056e8       $chain$1$?doAdjacentMerge@QuickHull@local@@IEAA_NAEAUQuickHullFace@2@_NAEA_N@Z 00000001800336e8     QuickHullConvexHullLib.obj
 0002:00005700       $unwind$?doPostAdjacentMerge@QuickHull@local@@IEAA_NAEAUQuickHullFace@2@M@Z 0000000180033700     QuickHullConvexHullLib.obj
 0002:00005714       $chain$0$?doPostAdjacentMerge@QuickHull@local@@IEAA_NAEAUQuickHullFace@2@M@Z 0000000180033714     QuickHullConvexHullLib.obj
 0002:00005728       $chain$1$?doPostAdjacentMerge@QuickHull@local@@IEAA_NAEAUQuickHullFace@2@M@Z 0000000180033728     QuickHullConvexHullLib.obj
 0002:00005738       $unwind$?deleteFacePoints@QuickHull@local@@IEAAXAEAUQuickHullFace@2@PEAU32@@Z 0000000180033738     QuickHullConvexHullLib.obj
 0002:00005748       $chain$0$?deleteFacePoints@QuickHull@local@@IEAAXAEAUQuickHullFace@2@PEAU32@@Z 0000000180033748     QuickHullConvexHullLib.obj
 0002:0000575c       $chain$1$?deleteFacePoints@QuickHull@local@@IEAAXAEAUQuickHullFace@2@PEAU32@@Z 000000018003375c     QuickHullConvexHullLib.obj
 0002:0000576c       $unwind$?resolveUnclaimedPoints@QuickHull@local@@IEAAXAEBV?$Array@PEAUQuickHullFace@local@@V?$ReflectionAllocator@PEAUQuickHullFace@local@@@shdfnd@physx@@@shdfnd@physx@@@Z 000000018003376c     QuickHullConvexHullLib.obj
 0002:00005780       $unwind$?postMergeHull@QuickHull@local@@IEAAXXZ 0000000180033780     QuickHullConvexHullLib.obj
 0002:0000578c       $chain$4$?postMergeHull@QuickHull@local@@IEAAXXZ 000000018003378c     QuickHullConvexHullLib.obj
 0002:000057b0       $chain$5$?postMergeHull@QuickHull@local@@IEAAXXZ 00000001800337b0     QuickHullConvexHullLib.obj
 0002:000057c0       $chain$6$?postMergeHull@QuickHull@local@@IEAAXXZ 00000001800337c0     QuickHullConvexHullLib.obj
 0002:000057e4       $unwind$?canMergeFaces@QuickHull@local@@IEAA_NAEBUQuickHullHalfEdge@2@@Z 00000001800337e4     QuickHullConvexHullLib.obj
 0002:00005828       $unwind$?addExpandPoint@local@@YAXAEBUExpandPoint@1@AEAV?$Array@UExpandPoint@local@@V?$ReflectionAllocator@UExpandPoint@local@@@shdfnd@physx@@@shdfnd@physx@@@Z 0000000180033828     QuickHullConvexHullLib.obj
 0002:00005830       $unwind$??_GQuickHullConvexHullLib@physx@@UEAAPEAXI@Z 0000000180033830     QuickHullConvexHullLib.obj
 0002:0000583c       $unwind$??1ConvexHull@physx@@QEAA@XZ 000000018003383c     QuickHullConvexHullLib.obj
 0002:00005848       $unwind$?init@?$MemBlock@UQuickHullHalfEdge@local@@$0A@@local@@QEAAXI@Z 0000000180033848     QuickHullConvexHullLib.obj
 0002:00005854       $unwind$??1?$MemBlock@UQuickHullHalfEdge@local@@$0A@@local@@QEAA@XZ 0000000180033854     QuickHullConvexHullLib.obj
 0002:0000585c       $chain$0$??1?$MemBlock@UQuickHullHalfEdge@local@@$0A@@local@@QEAA@XZ 000000018003385c     QuickHullConvexHullLib.obj
 0002:00005870       $chain$1$??1?$MemBlock@UQuickHullHalfEdge@local@@$0A@@local@@QEAA@XZ 0000000180033870     QuickHullConvexHullLib.obj
 0002:00005884       $chain$2$??1?$MemBlock@UQuickHullHalfEdge@local@@$0A@@local@@QEAA@XZ 0000000180033884     QuickHullConvexHullLib.obj
 0002:00005894       $chain$3$??1?$MemBlock@UQuickHullHalfEdge@local@@$0A@@local@@QEAA@XZ 0000000180033894     QuickHullConvexHullLib.obj
 0002:000058a4       $unwind$?reset@?$MemBlock@UQuickHullHalfEdge@local@@$0A@@local@@QEAAXXZ 00000001800338a4     QuickHullConvexHullLib.obj
 0002:000058b0       $chain$0$?reset@?$MemBlock@UQuickHullHalfEdge@local@@$0A@@local@@QEAAXXZ 00000001800338b0     QuickHullConvexHullLib.obj
 0002:000058c4       $chain$1$?reset@?$MemBlock@UQuickHullHalfEdge@local@@$0A@@local@@QEAAXXZ 00000001800338c4     QuickHullConvexHullLib.obj
 0002:000058d4       $unwind$?getFreeItem@?$MemBlock@UQuickHullHalfEdge@local@@$0A@@local@@QEAAPEAUQuickHullHalfEdge@2@XZ 00000001800338d4     QuickHullConvexHullLib.obj
 0002:000058e0       $unwind$?allocate@?$ReflectionAllocator@PEAUQuickHullHalfEdge@local@@@shdfnd@physx@@QEAAPEAX_KPEBDH@Z 00000001800338e0     QuickHullConvexHullLib.obj
 0002:000058f0       $chain$0$?allocate@?$ReflectionAllocator@PEAUQuickHullHalfEdge@local@@@shdfnd@physx@@QEAAPEAX_KPEBDH@Z 00000001800338f0     QuickHullConvexHullLib.obj
 0002:00005904       $chain$1$?allocate@?$ReflectionAllocator@PEAUQuickHullHalfEdge@local@@@shdfnd@physx@@QEAAPEAX_KPEBDH@Z 0000000180033904     QuickHullConvexHullLib.obj
 0002:00005914       $unwind$?growAndPushBack@?$Array@PEAUQuickHullHalfEdge@local@@V?$ReflectionAllocator@PEAUQuickHullHalfEdge@local@@@shdfnd@physx@@@shdfnd@physx@@IEAAAEAPEAUQuickHullHalfEdge@local@@AEBQEAU45@@Z 0000000180033914     QuickHullConvexHullLib.obj
 0002:00005928       $unwind$?recreate@?$Array@PEAUQuickHullHalfEdge@local@@V?$ReflectionAllocator@PEAUQuickHullHalfEdge@local@@@shdfnd@physx@@@shdfnd@physx@@IEAAXI@Z 0000000180033928     QuickHullConvexHullLib.obj
 0002:0000593c       $unwind$?init@?$MemBlock@UQuickHullFace@local@@$00@local@@QEAAXI@Z 000000018003393c     QuickHullConvexHullLib.obj
 0002:0000594c       $unwind$??1?$MemBlock@UQuickHullFace@local@@$00@local@@QEAA@XZ 000000018003394c     QuickHullConvexHullLib.obj
 0002:00005954       $chain$0$??1?$MemBlock@UQuickHullFace@local@@$00@local@@QEAA@XZ 0000000180033954     QuickHullConvexHullLib.obj
 0002:00005968       $chain$1$??1?$MemBlock@UQuickHullFace@local@@$00@local@@QEAA@XZ 0000000180033968     QuickHullConvexHullLib.obj
 0002:0000597c       $chain$2$??1?$MemBlock@UQuickHullFace@local@@$00@local@@QEAA@XZ 000000018003397c     QuickHullConvexHullLib.obj
 0002:0000598c       $chain$3$??1?$MemBlock@UQuickHullFace@local@@$00@local@@QEAA@XZ 000000018003398c     QuickHullConvexHullLib.obj
 0002:0000599c       $unwind$?reset@?$MemBlock@UQuickHullFace@local@@$00@local@@QEAAXXZ 000000018003399c     QuickHullConvexHullLib.obj
 0002:000059a8       $chain$0$?reset@?$MemBlock@UQuickHullFace@local@@$00@local@@QEAAXXZ 00000001800339a8     QuickHullConvexHullLib.obj
 0002:000059bc       $chain$1$?reset@?$MemBlock@UQuickHullFace@local@@$00@local@@QEAAXXZ 00000001800339bc     QuickHullConvexHullLib.obj
 0002:000059cc       $unwind$?getFreeItem@?$MemBlock@UQuickHullFace@local@@$00@local@@QEAAPEAUQuickHullFace@2@XZ 00000001800339cc     QuickHullConvexHullLib.obj
 0002:000059dc       $unwind$?allocate@?$ReflectionAllocator@PEAUQuickHullFace@local@@@shdfnd@physx@@QEAAPEAX_KPEBDH@Z 00000001800339dc     QuickHullConvexHullLib.obj
 0002:000059ec       $chain$0$?allocate@?$ReflectionAllocator@PEAUQuickHullFace@local@@@shdfnd@physx@@QEAAPEAX_KPEBDH@Z 00000001800339ec     QuickHullConvexHullLib.obj
 0002:00005a00       $chain$1$?allocate@?$ReflectionAllocator@PEAUQuickHullFace@local@@@shdfnd@physx@@QEAAPEAX_KPEBDH@Z 0000000180033a00     QuickHullConvexHullLib.obj
 0002:00005a10       $unwind$?growAndPushBack@?$Array@PEAUQuickHullFace@local@@V?$ReflectionAllocator@PEAUQuickHullFace@local@@@shdfnd@physx@@@shdfnd@physx@@IEAAAEAPEAUQuickHullFace@local@@AEBQEAU45@@Z 0000000180033a10     QuickHullConvexHullLib.obj
 0002:00005a24       $unwind$?recreate@?$Array@PEAUQuickHullFace@local@@V?$ReflectionAllocator@PEAUQuickHullFace@local@@@shdfnd@physx@@@shdfnd@physx@@IEAAXI@Z 0000000180033a24     QuickHullConvexHullLib.obj
 0002:00005a38       $unwind$?allocate@?$ReflectionAllocator@PEAUQuickHullVertex@local@@@shdfnd@physx@@QEAAPEAX_KPEBDH@Z 0000000180033a38     QuickHullConvexHullLib.obj
 0002:00005a48       $chain$0$?allocate@?$ReflectionAllocator@PEAUQuickHullVertex@local@@@shdfnd@physx@@QEAAPEAX_KPEBDH@Z 0000000180033a48     QuickHullConvexHullLib.obj
 0002:00005a5c       $chain$1$?allocate@?$ReflectionAllocator@PEAUQuickHullVertex@local@@@shdfnd@physx@@QEAAPEAX_KPEBDH@Z 0000000180033a5c     QuickHullConvexHullLib.obj
 0002:00005a6c       $unwind$?growAndPushBack@?$Array@PEAUQuickHullVertex@local@@V?$ReflectionAllocator@PEAUQuickHullVertex@local@@@shdfnd@physx@@@shdfnd@physx@@IEAAAEAPEAUQuickHullVertex@local@@AEBQEAU45@@Z 0000000180033a6c     QuickHullConvexHullLib.obj
 0002:00005a80       $unwind$?recreate@?$Array@PEAUQuickHullVertex@local@@V?$ReflectionAllocator@PEAUQuickHullVertex@local@@@shdfnd@physx@@@shdfnd@physx@@IEAAXI@Z 0000000180033a80     QuickHullConvexHullLib.obj
 0002:00005a94       $unwind$?allocate@?$ReflectionAllocator@UExpandPoint@local@@@shdfnd@physx@@QEAAPEAX_KPEBDH@Z 0000000180033a94     QuickHullConvexHullLib.obj
 0002:00005aa4       $chain$0$?allocate@?$ReflectionAllocator@UExpandPoint@local@@@shdfnd@physx@@QEAAPEAX_KPEBDH@Z 0000000180033aa4     QuickHullConvexHullLib.obj
 0002:00005ab8       $chain$1$?allocate@?$ReflectionAllocator@UExpandPoint@local@@@shdfnd@physx@@QEAAPEAX_KPEBDH@Z 0000000180033ab8     QuickHullConvexHullLib.obj
 0002:00005ac8       $unwind$?growAndPushBack@?$Array@UExpandPoint@local@@V?$ReflectionAllocator@UExpandPoint@local@@@shdfnd@physx@@@shdfnd@physx@@IEAAAEAUExpandPoint@local@@AEBU45@@Z 0000000180033ac8     QuickHullConvexHullLib.obj
 0002:00005adc       $unwind$?recreate@?$Array@UExpandPoint@local@@V?$ReflectionAllocator@UExpandPoint@local@@@shdfnd@physx@@@shdfnd@physx@@IEAAXI@Z 0000000180033adc     QuickHullConvexHullLib.obj
 0002:00005af0       $unwind$?threePlaneIntersection@local@@YA?AVPxVec3@physx@@AEBVPxPlane@3@00@Z 0000000180033af0     QuickHullConvexHullLib.obj
 0002:00005b18       $unwind$?computeVolumeIntegrals@physx@@YA_NAEBVPxSimpleTriangleMesh@1@MAEAUPxIntegrals@1@@Z 0000000180033b18     VolumeIntegration.obj
 0002:00005b20       $unwind$?computeVolumeIntegralsEberly@physx@@YA_NAEBVPxConvexMeshDesc@1@MAEAUPxIntegrals@1@AEBVPxVec3@1@@Z 0000000180033b20     VolumeIntegration.obj
 0002:00005b28       $unwind$?computeVolumeIntegralsEberlySIMD@physx@@YA_NAEBVPxConvexMeshDesc@1@MAEAUPxIntegrals@1@AEBVPxVec3@1@@Z 0000000180033b28     VolumeIntegration.obj
 0002:00005b30       $unwind$?computeVolumeIntegrals@VolumeIntegrator@?A0x7075e46c@physx@@QEAA_NAEAUPxIntegrals@3@@Z 0000000180033b30     VolumeIntegration.obj
 0002:00005b54       $unwind$?computeCOMInertiaTensor@VolumeIntegrator@?A0x7075e46c@physx@@AEAAXPEAN@Z 0000000180033b54     VolumeIntegration.obj
 0002:00005b84       $unwind$?computeFaceNormal@VolumeIntegrator@?A0x7075e46c@physx@@AEAAXAEAUFace@123@PEAI@Z 0000000180033b84     VolumeIntegration.obj
 0002:00005b98       $unwind$?computeProjectionIntegrals@VolumeIntegrator@?A0x7075e46c@physx@@AEAAXAEBUFace@123@@Z 0000000180033b98     VolumeIntegration.obj
 0002:00005bd4       $unwind$?computeFaceIntegrals@VolumeIntegrator@?A0x7075e46c@physx@@AEAAXAEBUFace@123@@Z 0000000180033bd4     VolumeIntegration.obj
 0002:00005c08       $unwind$?computeVolumeIntegralsSIMD@VolumeIntegratorEberly@?A0x7075e46c@physx@@QEAA_NAEAUPxIntegrals@3@AEBVPxVec3@3@@Z 0000000180033c08     VolumeIntegration.obj
 0002:00005c3c       $chain$0$?computeVolumeIntegralsSIMD@VolumeIntegratorEberly@?A0x7075e46c@physx@@QEAA_NAEAUPxIntegrals@3@AEBVPxVec3@3@@Z 0000000180033c3c     VolumeIntegration.obj
 0002:00005c50       $chain$2$?computeVolumeIntegralsSIMD@VolumeIntegratorEberly@?A0x7075e46c@physx@@QEAA_NAEAUPxIntegrals@3@AEBVPxVec3@3@@Z 0000000180033c50     VolumeIntegration.obj
 0002:00005c68       $chain$3$?computeVolumeIntegralsSIMD@VolumeIntegratorEberly@?A0x7075e46c@physx@@QEAA_NAEAUPxIntegrals@3@AEBVPxVec3@3@@Z 0000000180033c68     VolumeIntegration.obj
 0002:00005c78       $chain$4$?computeVolumeIntegralsSIMD@VolumeIntegratorEberly@?A0x7075e46c@physx@@QEAA_NAEAUPxIntegrals@3@AEBVPxVec3@3@@Z 0000000180033c78     VolumeIntegration.obj
 0002:00005c88       $unwind$?computeVolumeIntegrals@VolumeIntegratorEberly@?A0x7075e46c@physx@@QEAA_NAEAUPxIntegrals@3@AEBVPxVec3@3@@Z 0000000180033c88     VolumeIntegration.obj
 0002:00005cb8       $chain$0$?computeVolumeIntegrals@VolumeIntegratorEberly@?A0x7075e46c@physx@@QEAA_NAEAUPxIntegrals@3@AEBVPxVec3@3@@Z 0000000180033cb8     VolumeIntegration.obj
 0002:00005ccc       $chain$6$?computeVolumeIntegrals@VolumeIntegratorEberly@?A0x7075e46c@physx@@QEAA_NAEAUPxIntegrals@3@AEBVPxVec3@3@@Z 0000000180033ccc     VolumeIntegration.obj
 0002:00005cf4       $chain$7$?computeVolumeIntegrals@VolumeIntegratorEberly@?A0x7075e46c@physx@@QEAA_NAEAUPxIntegrals@3@AEBVPxVec3@3@@Z 0000000180033cf4     VolumeIntegration.obj
 0002:00005d04       $chain$8$?computeVolumeIntegrals@VolumeIntegratorEberly@?A0x7075e46c@physx@@QEAA_NAEAUPxIntegrals@3@AEBVPxVec3@3@@Z 0000000180033d04     VolumeIntegration.obj
 0002:00005d14       $unwind$?physXCommonDliNotePreLoadLibrary@Cm@physx@@YAP6A_JXZPEBDPEBVPxDelayLoadHook@2@@Z 0000000180033d14     WindowsCookingDelayLoadHook.obj
 0002:00005d20       xdata                      0000000180033d20     PhysXCommon_64:PhysXCommon_64.dll
 0002:00005d28       xdata                      0000000180033d28     PhysXFoundation_64:PhysXFoundation_64.dll
 0002:00005d30       $unwind$__FUnloadDelayLoadedDLL2 0000000180033d30     Delayimp:delayhlp.obj
 0002:00005d48       $unwind$__HrLoadAllImportsForDll 0000000180033d48     Delayimp:delayhlp.obj
 0002:00005d58       $unwind$?DloadGetSRWLockFunctionPointers@@YAEXZ 0000000180033d58     Delayimp:delayhlp.obj
 0002:00005d64       $unwind$?DloadLock@@YAXXZ  0000000180033d64     Delayimp:delayhlp.obj
 0002:00005d6c       $unwind$?DloadUnlock@@YAXXZ 0000000180033d6c     Delayimp:delayhlp.obj
 0002:00005d74       $unwind$?DloadObtainSection@@YAPEAXPEAK0@Z 0000000180033d74     Delayimp:delayhlp.obj
 0002:00005d84       $unwind$?DloadMakePermanentImageCommit@@YAXPEAX_K@Z 0000000180033d84     Delayimp:delayhlp.obj
 0002:00005d90       $unwind$?DloadProtectSection@@YAXKPEAK@Z 0000000180033d90     Delayimp:delayhlp.obj
 0002:00005da0       $unwind$?DloadAcquireSectionWriteAccess@@YAXXZ 0000000180033da0     Delayimp:delayhlp.obj
 0002:00005dac       $unwind$?DloadReleaseSectionWriteAccess@@YAXXZ 0000000180033dac     Delayimp:delayhlp.obj
 0002:00005db4       $unwind$?PiddFromDllName@@YAPEBUImgDelayDescr@@PEBD@Z 0000000180033db4     Delayimp:delayhlp.obj
 0002:00005dbc       $unwind$__delayLoadHelper2 0000000180033dbc     Delayimp:delayhlp.obj
 0002:00005dd4       $unwind$??_Gtype_info@@UEAAPEAXI@Z 0000000180033dd4     MSVCRT:std_type_info_static.obj
 0002:00005de0       $xdatasym                  0000000180033de0     MSVCRT:_chkstk_.obj
 0002:00005de8       $unwind$?dllmain_crt_process_attach@@YAHQEAUHINSTANCE__@@QEAX@Z 0000000180033de8     MSVCRT:dll_dllmain.obj
 0002:00005e14       $unwind$?fin$0@?0??dllmain_crt_process_attach@@YAHQEAUHINSTANCE__@@QEAX@Z@4HA 0000000180033e14     MSVCRT:dll_dllmain.obj
 0002:00005e1c       $unwind$?dllmain_crt_process_detach@@YAH_N@Z 0000000180033e1c     MSVCRT:dll_dllmain.obj
 0002:00005e44       $unwind$?fin$0@?0??dllmain_crt_process_detach@@YAH_N@Z@4HA 0000000180033e44     MSVCRT:dll_dllmain.obj
 0002:00005e4c       $unwind$?dllmain_crt_dispatch@@YAHQEAUHINSTANCE__@@KQEAX@Z 0000000180033e4c     MSVCRT:dll_dllmain.obj
 0002:00005e54       $unwind$?dllmain_raw@@YAHQEAUHINSTANCE__@@KQEAX@Z 0000000180033e54     MSVCRT:dll_dllmain.obj
 0002:00005e68       $unwind$?dllmain_dispatch@@YAHQEAUHINSTANCE__@@KQEAX@Z 0000000180033e68     MSVCRT:dll_dllmain.obj
 0002:00005e90       $unwind$?filt$0@?0??dllmain_dispatch@@YAHQEAUHINSTANCE__@@KQEAX@Z@4HA 0000000180033e90     MSVCRT:dll_dllmain.obj
 0002:00005e98       $unwind$_DllMainCRTStartup 0000000180033e98     MSVCRT:dll_dllmain.obj
 0002:00005ea8       $unwind$atexit             0000000180033ea8     MSVCRT:utility.obj
 0002:00005eb0       $unwind$_onexit            0000000180033eb0     MSVCRT:utility.obj
 0002:00005eb8       $unwind$__scrt_is_nonwritable_in_current_image 0000000180033eb8     MSVCRT:utility.obj
 0002:00005ed8       $unwind$__scrt_is_nonwritable_in_current_image$filt$0 0000000180033ed8     MSVCRT:utility.obj
 0002:00005ee0       $unwind$__scrt_acquire_startup_lock 0000000180033ee0     MSVCRT:utility.obj
 0002:00005ee8       $unwind$__scrt_release_startup_lock 0000000180033ee8     MSVCRT:utility.obj
 0002:00005ef0       $unwind$__scrt_initialize_crt 0000000180033ef0     MSVCRT:utility.obj
 0002:00005ef8       $unwind$__scrt_uninitialize_crt 0000000180033ef8     MSVCRT:utility.obj
 0002:00005f00       $unwind$__scrt_initialize_onexit_tables 0000000180033f00     MSVCRT:utility.obj
 0002:00005f0c       $unwind$__scrt_dllmain_exception_filter 0000000180033f0c     MSVCRT:utility.obj
 0002:00005f20       $unwind$__scrt_dllmain_before_initialize_c 0000000180033f20     MSVCRT:utility.obj
 0002:00005f28       $unwind$__scrt_dllmain_after_initialize_c 0000000180033f28     MSVCRT:utility.obj
 0002:00005f30       $unwind$__scrt_dllmain_uninitialize_c 0000000180033f30     MSVCRT:utility.obj
 0002:00005f38       $unwind$__scrt_dllmain_uninitialize_critical 0000000180033f38     MSVCRT:utility.obj
 0002:00005f40       $unwind$__scrt_dllmain_crt_thread_attach 0000000180033f40     MSVCRT:utility.obj
 0002:00005f48       $unwind$__scrt_dllmain_crt_thread_detach 0000000180033f48     MSVCRT:utility.obj
 0002:00005f50       $unwind$?configure_argv@__scrt_narrow_argv_policy@@SAHXZ 0000000180033f50     MSVCRT:utility.obj
 0002:00005f58       $unwind$__security_init_cookie 0000000180033f58     MSVCRT:gs_support.obj
 0002:00005f64       $unwind$DllMain            0000000180033f64     MSVCRT:dll_dllmain_stub.obj
 0002:00005f6c       $unwind$__scrt_initialize_default_local_stdio_options 0000000180033f6c     MSVCRT:default_local_stdio_options.obj
 0002:00005f74       $unwind$__scrt_get_show_window_mode 0000000180033f74     MSVCRT:utility_desktop.obj
 0002:00005f7c       $unwind$__scrt_is_managed_app 0000000180033f7c     MSVCRT:utility_desktop.obj
 0002:00005f84       $unwind$__scrt_fastfail    0000000180033f84     MSVCRT:utility_desktop.obj
 0002:00005f94       $unwind$__scrt_unhandled_exception_filter 0000000180033f94     MSVCRT:utility_desktop.obj
 0002:00005f9c       $unwind$_RTC_Initialize    0000000180033f9c     MSVCRT:_initsect_.obj
 0002:00005fac       $unwind$_RTC_Terminate     0000000180033fac     MSVCRT:_initsect_.obj
 0002:00005fc0       $xdatasym                  0000000180033fc0     MSVCRT:_guard_dispatch_.obj
 0002:00005fc4       $unwind$__isa_available_init 0000000180033fc4     MSVCRT:_cpu_disp_.obj
 0002:00007000       .edata                     0000000180035000     PhysXCooking_64.exp
 0002:00007028       rgpv                       0000000180035028     PhysXCooking_64.exp
 0002:00007214       rgszName                   0000000180035214     PhysXCooking_64.exp
 0002:00007400       rgwOrd                     0000000180035400     PhysXCooking_64.exp
 0002:000074f6       szName                     00000001800354f6     PhysXCooking_64.exp
 0002:0000750a       $N00001                    000000018003550a     PhysXCooking_64.exp
 0002:00007539       $N00002                    0000000180035539     PhysXCooking_64.exp
 0002:00007560       $N00003                    0000000180035560     PhysXCooking_64.exp
 0002:0000759b       $N00004                    000000018003559b     PhysXCooking_64.exp
 0002:000075c2       $N00005                    00000001800355c2     PhysXCooking_64.exp
 0002:000075ee       $N00006                    00000001800355ee     PhysXCooking_64.exp
 0002:0000760f       $N00007                    000000018003560f     PhysXCooking_64.exp
 0002:00007644       $N00008                    0000000180035644     PhysXCooking_64.exp
 0002:0000765d       $N00009                    000000018003565d     PhysXCooking_64.exp
 0002:0000767d       $N00010                    000000018003567d     PhysXCooking_64.exp
 0002:000076c5       $N00011                    00000001800356c5     PhysXCooking_64.exp
 0002:000076ee       $N00012                    00000001800356ee     PhysXCooking_64.exp
 0002:00007715       $N00013                    0000000180035715     PhysXCooking_64.exp
 0002:00007744       $N00014                    0000000180035744     PhysXCooking_64.exp
 0002:00007771       $N00015                    0000000180035771     PhysXCooking_64.exp
 0002:000077a2       $N00016                    00000001800357a2     PhysXCooking_64.exp
 0002:000077c7       $N00017                    00000001800357c7     PhysXCooking_64.exp
 0002:000077f2       $N00018                    00000001800357f2     PhysXCooking_64.exp
 0002:00007818       $N00019                    0000000180035818     PhysXCooking_64.exp
 0002:00007837       $N00020                    0000000180035837     PhysXCooking_64.exp
 0002:0000786d       $N00021                    000000018003586d     PhysXCooking_64.exp
 0002:00007897       $N00022                    0000000180035897     PhysXCooking_64.exp
 0002:000078be       $N00023                    00000001800358be     PhysXCooking_64.exp
 0002:000078e7       $N00024                    00000001800358e7     PhysXCooking_64.exp
 0002:00007900       $N00025                    0000000180035900     PhysXCooking_64.exp
 0002:00007925       $N00026                    0000000180035925     PhysXCooking_64.exp
 0002:00007944       $N00027                    0000000180035944     PhysXCooking_64.exp
 0002:00007963       $N00028                    0000000180035963     PhysXCooking_64.exp
 0002:00007983       $N00029                    0000000180035983     PhysXCooking_64.exp
 0002:000079b9       $N00030                    00000001800359b9     PhysXCooking_64.exp
 0002:000079f1       $N00031                    00000001800359f1     PhysXCooking_64.exp
 0002:00007a25       $N00032                    0000000180035a25     PhysXCooking_64.exp
 0002:00007a57       $N00033                    0000000180035a57     PhysXCooking_64.exp
 0002:00007a84       $N00034                    0000000180035a84     PhysXCooking_64.exp
 0002:00007aac       $N00035                    0000000180035aac     PhysXCooking_64.exp
 0002:00007add       $N00036                    0000000180035add     PhysXCooking_64.exp
 0002:00007b0c       $N00037                    0000000180035b0c     PhysXCooking_64.exp
 0002:00007b3c       $N00038                    0000000180035b3c     PhysXCooking_64.exp
 0002:00007b6a       $N00039                    0000000180035b6a     PhysXCooking_64.exp
 0002:00007b9b       $N00040                    0000000180035b9b     PhysXCooking_64.exp
 0002:00007bd1       $N00041                    0000000180035bd1     PhysXCooking_64.exp
 0002:00007c05       $N00042                    0000000180035c05     PhysXCooking_64.exp
 0002:00007c37       $N00043                    0000000180035c37     PhysXCooking_64.exp
 0002:00007c69       $N00044                    0000000180035c69     PhysXCooking_64.exp
 0002:00007c95       $N00045                    0000000180035c95     PhysXCooking_64.exp
 0002:00007cb1       $N00046                    0000000180035cb1     PhysXCooking_64.exp
 0002:00007cdb       $N00047                    0000000180035cdb     PhysXCooking_64.exp
 0002:00007cff       $N00048                    0000000180035cff     PhysXCooking_64.exp
 0002:00007d31       $N00049                    0000000180035d31     PhysXCooking_64.exp
 0002:00007d58       $N00050                    0000000180035d58     PhysXCooking_64.exp
 0002:00007d86       $N00051                    0000000180035d86     PhysXCooking_64.exp
 0002:00007db1       $N00052                    0000000180035db1     PhysXCooking_64.exp
 0002:00007dde       $N00053                    0000000180035dde     PhysXCooking_64.exp
 0002:00007e07       $N00054                    0000000180035e07     PhysXCooking_64.exp
 0002:00007e36       $N00055                    0000000180035e36     PhysXCooking_64.exp
 0002:00007e5f       $N00056                    0000000180035e5f     PhysXCooking_64.exp
 0002:00007e88       $N00057                    0000000180035e88     PhysXCooking_64.exp
 0002:00007eb6       $N00058                    0000000180035eb6     PhysXCooking_64.exp
 0002:00007ede       $N00059                    0000000180035ede     PhysXCooking_64.exp
 0002:00007f19       $N00060                    0000000180035f19     PhysXCooking_64.exp
 0002:00007f43       $N00061                    0000000180035f43     PhysXCooking_64.exp
 0002:00007f77       $N00062                    0000000180035f77     PhysXCooking_64.exp
 0002:00007fad       $N00063                    0000000180035fad     PhysXCooking_64.exp
 0002:00007fe9       $N00064                    0000000180035fe9     PhysXCooking_64.exp
 0002:00008031       $N00065                    0000000180036031     PhysXCooking_64.exp
 0002:00008081       $N00066                    0000000180036081     PhysXCooking_64.exp
 0002:000080b5       $N00067                    00000001800360b5     PhysXCooking_64.exp
 0002:000080ea       $N00068                    00000001800360ea     PhysXCooking_64.exp
 0002:00008120       $N00069                    0000000180036120     PhysXCooking_64.exp
 0002:00008147       $N00070                    0000000180036147     PhysXCooking_64.exp
 0002:0000818f       $N00071                    000000018003618f     PhysXCooking_64.exp
 0002:000081d5       $N00072                    00000001800361d5     PhysXCooking_64.exp
 0002:0000822d       $N00073                    000000018003622d     PhysXCooking_64.exp
 0002:00008274       $N00074                    0000000180036274     PhysXCooking_64.exp
 0002:0000829f       $N00075                    000000018003629f     PhysXCooking_64.exp
 0002:000082cf       $N00076                    00000001800362cf     PhysXCooking_64.exp
 0002:0000831f       $N00077                    000000018003631f     PhysXCooking_64.exp
 0002:000083ce       $N00078                    00000001800363ce     PhysXCooking_64.exp
 0002:0000842c       $N00079                    000000018003642c     PhysXCooking_64.exp
 0002:00008458       $N00080                    0000000180036458     PhysXCooking_64.exp
 0002:00008484       $N00081                    0000000180036484     PhysXCooking_64.exp
 0002:000084b9       $N00082                    00000001800364b9     PhysXCooking_64.exp
 0002:000084e2       $N00083                    00000001800364e2     PhysXCooking_64.exp
 0002:0000851e       $N00084                    000000018003651e     PhysXCooking_64.exp
 0002:0000854a       $N00085                    000000018003654a     PhysXCooking_64.exp
 0002:0000857d       $N00086                    000000018003657d     PhysXCooking_64.exp
 0002:000085ca       $N00087                    00000001800365ca     PhysXCooking_64.exp
 0002:000085fd       $N00088                    00000001800365fd     PhysXCooking_64.exp
 0002:00008637       $N00089                    0000000180036637     PhysXCooking_64.exp
 0002:00008671       $N00090                    0000000180036671     PhysXCooking_64.exp
 0002:000086ad       $N00091                    00000001800366ad     PhysXCooking_64.exp
 0002:000086f1       $N00092                    00000001800366f1     PhysXCooking_64.exp
 0002:00008720       $N00093                    0000000180036720     PhysXCooking_64.exp
 0002:0000879a       $N00094                    000000018003679a     PhysXCooking_64.exp
 0002:000087f7       $N00095                    00000001800367f7     PhysXCooking_64.exp
 0002:00008823       $N00096                    0000000180036823     PhysXCooking_64.exp
 0002:00008857       $N00097                    0000000180036857     PhysXCooking_64.exp
 0002:00008890       $N00098                    0000000180036890     PhysXCooking_64.exp
 0002:000088cd       $N00099                    00000001800368cd     PhysXCooking_64.exp
 0002:00008903       $N00100                    0000000180036903     PhysXCooking_64.exp
 0002:00008930       $N00101                    0000000180036930     PhysXCooking_64.exp
 0002:0000895d       $N00102                    000000018003695d     PhysXCooking_64.exp
 0002:00008988       $N00103                    0000000180036988     PhysXCooking_64.exp
 0002:000089b4       $N00104                    00000001800369b4     PhysXCooking_64.exp
 0002:000089e1       $N00105                    00000001800369e1     PhysXCooking_64.exp
 0002:00008a01       $N00106                    0000000180036a01     PhysXCooking_64.exp
 0002:00008a3d       $N00107                    0000000180036a3d     PhysXCooking_64.exp
 0002:00008a6e       $N00108                    0000000180036a6e     PhysXCooking_64.exp
 0002:00008aa0       $N00109                    0000000180036aa0     PhysXCooking_64.exp
 0002:00008ae2       $N00110                    0000000180036ae2     PhysXCooking_64.exp
 0002:00008b0f       $N00111                    0000000180036b0f     PhysXCooking_64.exp
 0002:00008b33       $N00112                    0000000180036b33     PhysXCooking_64.exp
 0002:00008b63       $N00113                    0000000180036b63     PhysXCooking_64.exp
 0002:00008b96       $N00114                    0000000180036b96     PhysXCooking_64.exp
 0002:00008bbb       $N00115                    0000000180036bbb     PhysXCooking_64.exp
 0002:00008be9       $N00116                    0000000180036be9     PhysXCooking_64.exp
 0002:00008c11       $N00117                    0000000180036c11     PhysXCooking_64.exp
 0002:00008c31       $N00118                    0000000180036c31     PhysXCooking_64.exp
 0002:00008c76       $N00119                    0000000180036c76     PhysXCooking_64.exp
 0002:00008cb3       $N00120                    0000000180036cb3     PhysXCooking_64.exp
 0002:00008cf0       $N00121                    0000000180036cf0     PhysXCooking_64.exp
 0002:00008d23       $N00122                    0000000180036d23     PhysXCooking_64.exp
 0002:00008d33       $N00123                    0000000180036d33     PhysXCooking_64.exp
 0002:00008fb0       .idata$6                   0000000180036fb0     kernel32:KERNEL32.dll
 0002:00009038       .idata$6                   0000000180037038     vcruntime:VCRUNTIME140.dll
 0002:0000917c       .idata$6                   000000018003717c     ucrt:api-ms-win-crt-string-l1-1-0.dll
 0002:0000919e       .idata$6                   000000018003719e     ucrt:api-ms-win-crt-math-l1-1-0.dll
 0002:000091be       .idata$6                   00000001800371be     ucrt:api-ms-win-crt-heap-l1-1-0.dll
 0002:000091de       .idata$6                   00000001800371de     ucrt:api-ms-win-crt-runtime-l1-1-0.dll
 0003:00000000       ?MAXDOT_MINANG@local@@3MB  0000000180038000     ConvexHullUtils.obj
 0003:00000004       ?MAXDOT_MINANG@local@@3MB  0000000180038004     QuickHullConvexHullLib.obj
 0003:000008a0       ?maxV3Error@_VecMathTests@aos@shdfnd@physx@@3T__m128@@B 00000001800388a0     Cooking.obj
 0003:000008b0       ?minFError@_VecMathTests@aos@shdfnd@physx@@3T__m128@@B 00000001800388b0     Cooking.obj
 0003:000008c0       ?maxV4Error@_VecMathTests@aos@shdfnd@physx@@3T__m128@@B 00000001800388c0     Cooking.obj
 0003:000008d0       ?minV4Error@_VecMathTests@aos@shdfnd@physx@@3T__m128@@B 00000001800388d0     Cooking.obj
 0003:000008e0       ?minV3Error@_VecMathTests@aos@shdfnd@physx@@3T__m128@@B 00000001800388e0     Cooking.obj
 0003:000008f0       ?maxFError@_VecMathTests@aos@shdfnd@physx@@3T__m128@@B 00000001800388f0     Cooking.obj
 0003:00000900       ?maxV3Error@_VecMathTests@aos@shdfnd@physx@@3T__m128@@B 0000000180038900     BVHStructureBuilder.obj
 0003:00000910       ?minFError@_VecMathTests@aos@shdfnd@physx@@3T__m128@@B 0000000180038910     BVHStructureBuilder.obj
 0003:00000920       ?maxV4Error@_VecMathTests@aos@shdfnd@physx@@3T__m128@@B 0000000180038920     BVHStructureBuilder.obj
 0003:00000930       ?minV4Error@_VecMathTests@aos@shdfnd@physx@@3T__m128@@B 0000000180038930     BVHStructureBuilder.obj
 0003:00000940       ?minV3Error@_VecMathTests@aos@shdfnd@physx@@3T__m128@@B 0000000180038940     BVHStructureBuilder.obj
 0003:00000950       ?maxFError@_VecMathTests@aos@shdfnd@physx@@3T__m128@@B 0000000180038950     BVHStructureBuilder.obj
 0003:00000960       ?maxV3Error@_VecMathTests@aos@shdfnd@physx@@3T__m128@@B 0000000180038960     RTreeCooking.obj
 0003:00000970       ?minFError@_VecMathTests@aos@shdfnd@physx@@3T__m128@@B 0000000180038970     RTreeCooking.obj
 0003:00000980       ?maxV4Error@_VecMathTests@aos@shdfnd@physx@@3T__m128@@B 0000000180038980     RTreeCooking.obj
 0003:00000990       ?minV4Error@_VecMathTests@aos@shdfnd@physx@@3T__m128@@B 0000000180038990     RTreeCooking.obj
 0003:000009a0       ?minV3Error@_VecMathTests@aos@shdfnd@physx@@3T__m128@@B 00000001800389a0     RTreeCooking.obj
 0003:000009b0       ?maxFError@_VecMathTests@aos@shdfnd@physx@@3T__m128@@B 00000001800389b0     RTreeCooking.obj
 0003:000009c0       ?maxV3Error@_VecMathTests@aos@shdfnd@physx@@3T__m128@@B 00000001800389c0     MeshBuilder.obj
 0003:000009d0       ?minFError@_VecMathTests@aos@shdfnd@physx@@3T__m128@@B 00000001800389d0     MeshBuilder.obj
 0003:000009e0       ?maxV4Error@_VecMathTests@aos@shdfnd@physx@@3T__m128@@B 00000001800389e0     MeshBuilder.obj
 0003:000009f0       ?minV4Error@_VecMathTests@aos@shdfnd@physx@@3T__m128@@B 00000001800389f0     MeshBuilder.obj
 0003:00000a00       ?minV3Error@_VecMathTests@aos@shdfnd@physx@@3T__m128@@B 0000000180038a00     MeshBuilder.obj
 0003:00000a10       ?maxFError@_VecMathTests@aos@shdfnd@physx@@3T__m128@@B 0000000180038a10     MeshBuilder.obj
 0003:00000a20       ?maxV3Error@_VecMathTests@aos@shdfnd@physx@@3T__m128@@B 0000000180038a20     TriangleMeshBuilder.obj
 0003:00000a30       ?minFError@_VecMathTests@aos@shdfnd@physx@@3T__m128@@B 0000000180038a30     TriangleMeshBuilder.obj
 0003:00000a40       ?maxV4Error@_VecMathTests@aos@shdfnd@physx@@3T__m128@@B 0000000180038a40     TriangleMeshBuilder.obj
 0003:00000a50       ?minV4Error@_VecMathTests@aos@shdfnd@physx@@3T__m128@@B 0000000180038a50     TriangleMeshBuilder.obj
 0003:00000a60       ?minV3Error@_VecMathTests@aos@shdfnd@physx@@3T__m128@@B 0000000180038a60     TriangleMeshBuilder.obj
 0003:00000a70       ?maxFError@_VecMathTests@aos@shdfnd@physx@@3T__m128@@B 0000000180038a70     TriangleMeshBuilder.obj
 0003:00000a80       ?maxV3Error@_VecMathTests@aos@shdfnd@physx@@3T__m128@@B 0000000180038a80     BigConvexDataBuilder.obj
 0003:00000a90       ?minFError@_VecMathTests@aos@shdfnd@physx@@3T__m128@@B 0000000180038a90     BigConvexDataBuilder.obj
 0003:00000aa0       ?maxV4Error@_VecMathTests@aos@shdfnd@physx@@3T__m128@@B 0000000180038aa0     BigConvexDataBuilder.obj
 0003:00000ab0       ?minV4Error@_VecMathTests@aos@shdfnd@physx@@3T__m128@@B 0000000180038ab0     BigConvexDataBuilder.obj
 0003:00000ac0       ?minV3Error@_VecMathTests@aos@shdfnd@physx@@3T__m128@@B 0000000180038ac0     BigConvexDataBuilder.obj
 0003:00000ad0       ?maxFError@_VecMathTests@aos@shdfnd@physx@@3T__m128@@B 0000000180038ad0     BigConvexDataBuilder.obj
 0003:00000ae0       ?maxV3Error@_VecMathTests@aos@shdfnd@physx@@3T__m128@@B 0000000180038ae0     ConvexHullBuilder.obj
 0003:00000af0       ?minFError@_VecMathTests@aos@shdfnd@physx@@3T__m128@@B 0000000180038af0     ConvexHullBuilder.obj
 0003:00000b00       ?maxV4Error@_VecMathTests@aos@shdfnd@physx@@3T__m128@@B 0000000180038b00     ConvexHullBuilder.obj
 0003:00000b10       ?minV4Error@_VecMathTests@aos@shdfnd@physx@@3T__m128@@B 0000000180038b10     ConvexHullBuilder.obj
 0003:00000b20       ?minV3Error@_VecMathTests@aos@shdfnd@physx@@3T__m128@@B 0000000180038b20     ConvexHullBuilder.obj
 0003:00000b30       ?maxFError@_VecMathTests@aos@shdfnd@physx@@3T__m128@@B 0000000180038b30     ConvexHullBuilder.obj
 0003:00000b40       ?maxV3Error@_VecMathTests@aos@shdfnd@physx@@3T__m128@@B 0000000180038b40     ConvexHullUtils.obj
 0003:00000b50       ?minFError@_VecMathTests@aos@shdfnd@physx@@3T__m128@@B 0000000180038b50     ConvexHullUtils.obj
 0003:00000b60       ?maxV4Error@_VecMathTests@aos@shdfnd@physx@@3T__m128@@B 0000000180038b60     ConvexHullUtils.obj
 0003:00000b70       ?minV4Error@_VecMathTests@aos@shdfnd@physx@@3T__m128@@B 0000000180038b70     ConvexHullUtils.obj
 0003:00000b80       ?minV3Error@_VecMathTests@aos@shdfnd@physx@@3T__m128@@B 0000000180038b80     ConvexHullUtils.obj
 0003:00000b90       ?maxFError@_VecMathTests@aos@shdfnd@physx@@3T__m128@@B 0000000180038b90     ConvexHullUtils.obj
 0003:00000ba0       ?maxV3Error@_VecMathTests@aos@shdfnd@physx@@3T__m128@@B 0000000180038ba0     ConvexMeshBuilder.obj
 0003:00000bb0       ?minFError@_VecMathTests@aos@shdfnd@physx@@3T__m128@@B 0000000180038bb0     ConvexMeshBuilder.obj
 0003:00000bc0       ?maxV4Error@_VecMathTests@aos@shdfnd@physx@@3T__m128@@B 0000000180038bc0     ConvexMeshBuilder.obj
 0003:00000bd0       ?minV4Error@_VecMathTests@aos@shdfnd@physx@@3T__m128@@B 0000000180038bd0     ConvexMeshBuilder.obj
 0003:00000be0       ?minV3Error@_VecMathTests@aos@shdfnd@physx@@3T__m128@@B 0000000180038be0     ConvexMeshBuilder.obj
 0003:00000bf0       ?maxFError@_VecMathTests@aos@shdfnd@physx@@3T__m128@@B 0000000180038bf0     ConvexMeshBuilder.obj
 0003:00000c00       ?maxV3Error@_VecMathTests@aos@shdfnd@physx@@3T__m128@@B 0000000180038c00     VolumeIntegration.obj
 0003:00000c10       ?minFError@_VecMathTests@aos@shdfnd@physx@@3T__m128@@B 0000000180038c10     VolumeIntegration.obj
 0003:00000c20       ?maxV4Error@_VecMathTests@aos@shdfnd@physx@@3T__m128@@B 0000000180038c20     VolumeIntegration.obj
 0003:00000c30       ?minV4Error@_VecMathTests@aos@shdfnd@physx@@3T__m128@@B 0000000180038c30     VolumeIntegration.obj
 0003:00000c40       ?minV3Error@_VecMathTests@aos@shdfnd@physx@@3T__m128@@B 0000000180038c40     VolumeIntegration.obj
 0003:00000c50       ?maxFError@_VecMathTests@aos@shdfnd@physx@@3T__m128@@B 0000000180038c50     VolumeIntegration.obj
 0003:00000c60       ?gCookingDelayLoadHook@@3PEBVPxDelayLoadHook@physx@@EB 0000000180038c60     WindowsCookingDelayLoadHook.obj
 0003:00000cc0       ?__proc_attached@@3HA      0000000180038cc0     MSVCRT:dll_dllmain.obj
 0003:00000cd8       ?module_local_atexit_table@@3U_onexit_table_t@@A 0000000180038cd8     MSVCRT:utility.obj
 0003:00000cf0       ?module_local_at_quick_exit_table@@3U_onexit_table_t@@A 0000000180038cf0     MSVCRT:utility.obj
 0003:00000d08       ?is_initialized_as_dll@@3_NA 0000000180038d08     MSVCRT:utility.obj
 0004:00000000       $pdata$??1Adjacencies@physx@@QEAA@XZ 0000000180039000     Adjacencies.obj
 0004:0000000c       $pdata$0$??1Adjacencies@physx@@QEAA@XZ 000000018003900c     Adjacencies.obj
 0004:00000018       $pdata$2$??1Adjacencies@physx@@QEAA@XZ 0000000180039018     Adjacencies.obj
 0004:00000024       $pdata$3$??1Adjacencies@physx@@QEAA@XZ 0000000180039024     Adjacencies.obj
 0004:00000030       $pdata$?Load@Adjacencies@physx@@QEAA_NAEAVPxInputStream@2@@Z 0000000180039030     Adjacencies.obj
 0004:0000003c       $pdata$2$?Load@Adjacencies@physx@@QEAA_NAEAVPxInputStream@2@@Z 000000018003903c     Adjacencies.obj
 0004:00000048       $pdata$3$?Load@Adjacencies@physx@@QEAA_NAEAVPxInputStream@2@@Z 0000000180039048     Adjacencies.obj
 0004:00000054       $pdata$?GetBoundaryVertices@Adjacencies@physx@@QEBA_NIPEA_NPEBU?$TriangleT@I@Gu@2@@Z 0000000180039054     Adjacencies.obj
 0004:00000060       $pdata$?MakeLastRef@Adjacencies@physx@@QEAA_NAEAVAdjTriangle@2@IPEAU?$TriangleT@I@Gu@2@@Z 0000000180039060     Adjacencies.obj
 0004:0000006c       $pdata$0$?MakeLastRef@Adjacencies@physx@@QEAA_NAEAVAdjTriangle@2@IPEAU?$TriangleT@I@Gu@2@@Z 000000018003906c     Adjacencies.obj
 0004:00000078       $pdata$3$?MakeLastRef@Adjacencies@physx@@QEAA_NAEAVAdjTriangle@2@IPEAU?$TriangleT@I@Gu@2@@Z 0000000180039078     Adjacencies.obj
 0004:00000084       $pdata$5$?MakeLastRef@Adjacencies@physx@@QEAA_NAEAVAdjTriangle@2@IPEAU?$TriangleT@I@Gu@2@@Z 0000000180039084     Adjacencies.obj
 0004:00000090       $pdata$?Init@AdjacenciesBuilder@physx@@QEAA_NAEBUADJACENCIESCREATE@2@@Z 0000000180039090     Adjacencies.obj
 0004:0000009c       $pdata$1$?Init@AdjacenciesBuilder@physx@@QEAA_NAEBUADJACENCIESCREATE@2@@Z 000000018003909c     Adjacencies.obj
 0004:000000a8       $pdata$2$?Init@AdjacenciesBuilder@physx@@QEAA_NAEBUADJACENCIESCREATE@2@@Z 00000001800390a8     Adjacencies.obj
 0004:000000b4       $pdata$5$?Init@AdjacenciesBuilder@physx@@QEAA_NAEBUADJACENCIESCREATE@2@@Z 00000001800390b4     Adjacencies.obj
 0004:000000c0       $pdata$6$?Init@AdjacenciesBuilder@physx@@QEAA_NAEBUADJACENCIESCREATE@2@@Z 00000001800390c0     Adjacencies.obj
 0004:000000cc       $pdata$7$?Init@AdjacenciesBuilder@physx@@QEAA_NAEBUADJACENCIESCREATE@2@@Z 00000001800390cc     Adjacencies.obj
 0004:000000d8       $pdata$8$?Init@AdjacenciesBuilder@physx@@QEAA_NAEBUADJACENCIESCREATE@2@@Z 00000001800390d8     Adjacencies.obj
 0004:000000e4       $pdata$??_EAdjEdge@@QEAAPEAXI@Z 00000001800390e4     Adjacencies.obj
 0004:000000f0       $pdata$??_EAdjTriangle@physx@@QEAAPEAXI@Z 00000001800390f0     Adjacencies.obj
 0004:000000fc       $pdata$??_EPxFoundation@physx@@MEAAPEAXI@Z 00000001800390fc     Adjacencies.obj
 0004:00000108       $pdata$0$??_EPxFoundation@physx@@MEAAPEAXI@Z 0000000180039108     Adjacencies.obj
 0004:00000114       $pdata$1$??_EPxFoundation@physx@@MEAAPEAXI@Z 0000000180039114     Adjacencies.obj
 0004:00000120       $pdata$??_GPxFoundation@physx@@MEAAPEAXI@Z 0000000180039120     Adjacencies.obj
 0004:0000012c       $pdata$??_H@YAXPEAX_K1P6APEAX0@Z@Z 000000018003912c     Adjacencies.obj
 0004:00000138       $pdata$??_I@YAXPEAX_K1P6AX0@Z@Z 0000000180039138     Adjacencies.obj
 0004:00000144       $pdata$?AddTriangle@@YAXIIIIPEAVAdjTriangle@physx@@AEAIPEAVAdjEdge@@@Z 0000000180039144     Adjacencies.obj
 0004:00000150       $pdata$?CreateDatabase@@YA_NPEAVAdjTriangle@physx@@IPEBVAdjEdge@@AEBUADJACENCIESCREATE@2@@Z 0000000180039150     Adjacencies.obj
 0004:0000015c       $pdata$?UpdateLink@@YA_NIIIIPEAVAdjTriangle@physx@@AEBUADJACENCIESCREATE@2@@Z 000000018003915c     Adjacencies.obj
 0004:00000168       $pdata$3$?UpdateLink@@YA_NIIIIPEAVAdjTriangle@physx@@AEBUADJACENCIESCREATE@2@@Z 0000000180039168     Adjacencies.obj
 0004:00000174       $pdata$5$?UpdateLink@@YA_NIIIIPEAVAdjTriangle@physx@@AEBUADJACENCIESCREATE@2@@Z 0000000180039174     Adjacencies.obj
 0004:00000180       $pdata$6$?UpdateLink@@YA_NIIIIPEAVAdjTriangle@physx@@AEBUADJACENCIESCREATE@2@@Z 0000000180039180     Adjacencies.obj
 0004:0000018c       $pdata$7$?UpdateLink@@YA_NIIIIPEAVAdjTriangle@physx@@AEBUADJACENCIESCREATE@2@@Z 000000018003918c     Adjacencies.obj
 0004:00000198       $pdata$8$?UpdateLink@@YA_NIIIIPEAVAdjTriangle@physx@@AEBUADJACENCIESCREATE@2@@Z 0000000180039198     Adjacencies.obj
 0004:000001a4       $pdata$PxCreateCooking     00000001800391a4     Cooking.obj
 0004:000001b0       $pdata$?release@Cooking@physx@@UEAAXXZ 00000001800391b0     Cooking.obj
 0004:000001bc       $pdata$?cookTriangleMesh@Cooking@physx@@UEBA_NAEBVPxTriangleMeshDesc@2@AEAVPxOutputStream@2@PEAW4Enum@PxTriangleMeshCookingResult@2@@Z 00000001800391bc     Cooking.obj
 0004:000001c8       $pdata$?createTriangleMesh@Cooking@physx@@UEBAPEAVPxTriangleMesh@2@AEBVPxTriangleMeshDesc@2@AEAVPxPhysicsInsertionCallback@2@PEAW4Enum@PxTriangleMeshCookingResult@2@@Z 00000001800391c8     Cooking.obj
 0004:000001d4       $pdata$?validateTriangleMesh@Cooking@physx@@UEBA_NAEBVPxTriangleMeshDesc@2@@Z 00000001800391d4     Cooking.obj
 0004:000001e0       $pdata$?cookConvexMesh@Cooking@physx@@UEBA_NAEBVPxConvexMeshDesc@2@AEAVPxOutputStream@2@PEAW4Enum@PxConvexMeshCookingResult@2@@Z 00000001800391e0     Cooking.obj
 0004:000001ec       $pdata$?createConvexMesh@Cooking@physx@@UEBAPEAVPxConvexMesh@2@AEBVPxConvexMeshDesc@2@AEAVPxPhysicsInsertionCallback@2@PEAW4Enum@PxConvexMeshCookingResult@2@@Z 00000001800391ec     Cooking.obj
 0004:000001f8       $pdata$?validateConvexMesh@Cooking@physx@@UEBA_NAEBVPxConvexMeshDesc@2@@Z 00000001800391f8     Cooking.obj
 0004:00000204       $pdata$?computeHullPolygons@Cooking@physx@@UEBA_NAEBVPxSimpleTriangleMesh@2@AEAVPxAllocatorCallback@2@AEAIAEAPEAVPxVec3@2@2AEAPEAI2AEAPEAUPxHullPolygon@2@@Z 0000000180039204     Cooking.obj
 0004:00000210       $pdata$?cookHeightField@Cooking@physx@@UEBA_NAEBVPxHeightFieldDesc@2@AEAVPxOutputStream@2@@Z 0000000180039210     Cooking.obj
 0004:0000021c       $pdata$?createHeightField@Cooking@physx@@UEBAPEAVPxHeightField@2@AEBVPxHeightFieldDesc@2@AEAVPxPhysicsInsertionCallback@2@@Z 000000018003921c     Cooking.obj
 0004:00000228       $pdata$?cookBVHStructure@Cooking@physx@@UEBA_NAEBVPxBVHStructureDesc@2@AEAVPxOutputStream@2@@Z 0000000180039228     Cooking.obj
 0004:00000234       $pdata$?createBVHStructure@Cooking@physx@@UEBAPEAVPxBVHStructure@2@AEBVPxBVHStructureDesc@2@AEAVPxPhysicsInsertionCallback@2@@Z 0000000180039234     Cooking.obj
 0004:00000240       $pdata$?cookConvexMeshInternal@Cooking@physx@@AEBA_NAEBVPxConvexMeshDesc@2@AEAVConvexMeshBuilder@2@PEAVConvexHullLib@2@PEAW4Enum@PxConvexMeshCookingResult@2@@Z 0000000180039240     Cooking.obj
 0004:0000024c       $pdata$?cookTriangleMesh@Cooking@physx@@AEBA_NAEAVTriangleMeshBuilder@2@AEBVPxTriangleMeshDesc@2@AEAVPxOutputStream@2@PEAW4Enum@PxTriangleMeshCookingResult@2@@Z 000000018003924c     Cooking.obj
 0004:00000258       $pdata$?createTriangleMesh@Cooking@physx@@AEBAPEAVPxTriangleMesh@2@AEAVTriangleMeshBuilder@2@AEBVPxTriangleMeshDesc@2@AEAVPxPhysicsInsertionCallback@2@PEAW4Enum@PxTriangleMeshCookingResult@2@@Z 0000000180039258     Cooking.obj
 0004:00000264       $pdata$??_EConvexMesh@Gu@physx@@UEAAPEAXI@Z 0000000180039264     Cooking.obj
 0004:00000270       $pdata$2$??_EConvexMesh@Gu@physx@@UEAAPEAXI@Z 0000000180039270     Cooking.obj
 0004:0000027c       $pdata$3$??_EConvexMesh@Gu@physx@@UEAAPEAXI@Z 000000018003927c     Cooking.obj
 0004:00000288       $pdata$5$??_EConvexMesh@Gu@physx@@UEAAPEAXI@Z 0000000180039288     Cooking.obj
 0004:00000294       $pdata$6$??_EConvexMesh@Gu@physx@@UEAAPEAXI@Z 0000000180039294     Cooking.obj
 0004:000002a0       $pdata$??_EPxConvexMesh@physx@@MEAAPEAXI@Z 00000001800392a0     Cooking.obj
 0004:000002ac       $pdata$0$??_EPxConvexMesh@physx@@MEAAPEAXI@Z 00000001800392ac     Cooking.obj
 0004:000002b8       $pdata$1$??_EPxConvexMesh@physx@@MEAAPEAXI@Z 00000001800392b8     Cooking.obj
 0004:000002c4       $pdata$??_GCooking@physx@@UEAAPEAXI@Z 00000001800392c4     Cooking.obj
 0004:000002d0       $pdata$??_GPxBase@physx@@MEAAPEAXI@Z 00000001800392d0     Cooking.obj
 0004:000002dc       $pdata$??_GPxCooking@physx@@MEAAPEAXI@Z 00000001800392dc     Cooking.obj
 0004:000002e8       $pdata$??_GRefCountable@Cm@physx@@UEAAPEAXI@Z 00000001800392e8     Cooking.obj
 0004:000002f4       $pdata$?allocate@?$ReflectionAllocator@UPxDebugLine@physx@@@shdfnd@physx@@QEAAPEAX_KPEBDH@Z 00000001800392f4     Cooking.obj
 0004:00000300       $pdata$0$?allocate@?$ReflectionAllocator@UPxDebugLine@physx@@@shdfnd@physx@@QEAAPEAX_KPEBDH@Z 0000000180039300     Cooking.obj
 0004:0000030c       $pdata$1$?allocate@?$ReflectionAllocator@UPxDebugLine@physx@@@shdfnd@physx@@QEAAPEAX_KPEBDH@Z 000000018003930c     Cooking.obj
 0004:00000318       $pdata$?copy@?$Array@UPxDebugLine@physx@@V?$ReflectionAllocator@UPxDebugLine@physx@@@shdfnd@2@@shdfnd@physx@@KAXPEAUPxDebugLine@3@0PEBU43@@Z 0000000180039318     Cooking.obj
 0004:00000324       $pdata$0$?copy@?$Array@UPxDebugLine@physx@@V?$ReflectionAllocator@UPxDebugLine@physx@@@shdfnd@2@@shdfnd@physx@@KAXPEAUPxDebugLine@3@0PEBU43@@Z 0000000180039324     Cooking.obj
 0004:00000330       $pdata$1$?copy@?$Array@UPxDebugLine@physx@@V?$ReflectionAllocator@UPxDebugLine@physx@@@shdfnd@2@@shdfnd@physx@@KAXPEAUPxDebugLine@3@0PEBU43@@Z 0000000180039330     Cooking.obj
 0004:0000033c       $pdata$?getHeight@HeightField@Gu@physx@@UEBAMMM@Z 000000018003933c     Cooking.obj
 0004:00000348       $pdata$?getHeightInternal2@HeightField@Gu@physx@@QEBAMIMM@Z 0000000180039348     Cooking.obj
 0004:00000354       $pdata$0$?getHeightInternal2@HeightField@Gu@physx@@QEBAMIMM@Z 0000000180039354     Cooking.obj
 0004:00000360       $pdata$2$?getHeightInternal2@HeightField@Gu@physx@@QEBAMIMM@Z 0000000180039360     Cooking.obj
 0004:0000036c       $pdata$?getTriangleNormal@HeightField@Gu@physx@@UEBA?AVPxVec3@3@I@Z 000000018003936c     Cooking.obj
 0004:00000378       $pdata$?getTriangleNormalInternal@HeightField@Gu@physx@@QEBA?AVPxVec3@3@I@Z 0000000180039378     Cooking.obj
 0004:00000384       $pdata$?isKindOf@PxConvexMesh@physx@@MEBA_NPEBD@Z 0000000180039384     Cooking.obj
 0004:00000390       $pdata$?isKindOf@PxHeightField@physx@@MEBA_NPEBD@Z 0000000180039390     Cooking.obj
 0004:0000039c       $pdata$?outputSegment@RenderOutput@Cm@physx@@QEAAXAEBVPxVec3@3@0@Z 000000018003939c     Cooking.obj
 0004:000003a8       $pdata$?recreate@?$Array@UPxDebugLine@physx@@V?$ReflectionAllocator@UPxDebugLine@physx@@@shdfnd@2@@shdfnd@physx@@IEAAXI@Z 00000001800393a8     Cooking.obj
 0004:000003b4       $pdata$?reserveSegments@RenderOutput@Cm@physx@@QEAAPEAUPxDebugLine@3@I@Z 00000001800393b4     Cooking.obj
 0004:000003c0       $pdata$??1ReducedVertexCloud@physx@@QEAA@XZ 00000001800393c0     CookingUtils.obj
 0004:000003cc       $pdata$?Clean@ReducedVertexCloud@physx@@QEAAAEAV12@XZ 00000001800393cc     CookingUtils.obj
 0004:000003d8       $pdata$?Reduce@ReducedVertexCloud@physx@@QEAA_NPEAUREDUCEDCLOUD@2@@Z 00000001800393d8     CookingUtils.obj
 0004:000003e4       $pdata$??1EdgeList@Gu@physx@@QEAA@XZ 00000001800393e4     EdgeList.obj
 0004:000003f0       $pdata$?load@EdgeList@Gu@physx@@QEAA_NAEAVPxInputStream@3@@Z 00000001800393f0     EdgeList.obj
 0004:000003fc       $pdata$?init@EdgeListBuilder@Gu@physx@@QEAA_NAEBUEDGELISTCREATE@23@@Z 00000001800393fc     EdgeList.obj
 0004:00000408       $pdata$?createFacesToEdges@EdgeListBuilder@Gu@physx@@AEAA_NIPEBIPEBG@Z 0000000180039408     EdgeList.obj
 0004:00000414       $pdata$0$?createFacesToEdges@EdgeListBuilder@Gu@physx@@AEAA_NIPEBIPEBG@Z 0000000180039414     EdgeList.obj
 0004:00000420       $pdata$1$?createFacesToEdges@EdgeListBuilder@Gu@physx@@AEAA_NIPEBIPEBG@Z 0000000180039420     EdgeList.obj
 0004:0000042c       $pdata$2$?createFacesToEdges@EdgeListBuilder@Gu@physx@@AEAA_NIPEBIPEBG@Z 000000018003942c     EdgeList.obj
 0004:00000438       $pdata$3$?createFacesToEdges@EdgeListBuilder@Gu@physx@@AEAA_NIPEBIPEBG@Z 0000000180039438     EdgeList.obj
 0004:00000444       $pdata$4$?createFacesToEdges@EdgeListBuilder@Gu@physx@@AEAA_NIPEBIPEBG@Z 0000000180039444     EdgeList.obj
 0004:00000450       $pdata$5$?createFacesToEdges@EdgeListBuilder@Gu@physx@@AEAA_NIPEBIPEBG@Z 0000000180039450     EdgeList.obj
 0004:0000045c       $pdata$6$?createFacesToEdges@EdgeListBuilder@Gu@physx@@AEAA_NIPEBIPEBG@Z 000000018003945c     EdgeList.obj
 0004:00000468       $pdata$7$?createFacesToEdges@EdgeListBuilder@Gu@physx@@AEAA_NIPEBIPEBG@Z 0000000180039468     EdgeList.obj
 0004:00000474       $pdata$?createEdgesToFaces@EdgeListBuilder@Gu@physx@@AEAA_NIPEBIPEBG@Z 0000000180039474     EdgeList.obj
 0004:00000480       $pdata$1$?createEdgesToFaces@EdgeListBuilder@Gu@physx@@AEAA_NIPEBIPEBG@Z 0000000180039480     EdgeList.obj
 0004:0000048c       $pdata$2$?createEdgesToFaces@EdgeListBuilder@Gu@physx@@AEAA_NIPEBIPEBG@Z 000000018003948c     EdgeList.obj
 0004:00000498       $pdata$?computeActiveEdges@EdgeListBuilder@Gu@physx@@AEAA_NIPEBIPEBGPEBVPxVec3@3@M@Z 0000000180039498     EdgeList.obj
 0004:000004a4       $pdata$1$?computeActiveEdges@EdgeListBuilder@Gu@physx@@AEAA_NIPEBIPEBGPEBVPxVec3@3@M@Z 00000001800394a4     EdgeList.obj
 0004:000004b0       $pdata$14$?computeActiveEdges@EdgeListBuilder@Gu@physx@@AEAA_NIPEBIPEBGPEBVPxVec3@3@M@Z 00000001800394b0     EdgeList.obj
 0004:000004bc       $pdata$15$?computeActiveEdges@EdgeListBuilder@Gu@physx@@AEAA_NIPEBIPEBGPEBVPxVec3@3@M@Z 00000001800394bc     EdgeList.obj
 0004:000004c8       $pdata$16$?computeActiveEdges@EdgeListBuilder@Gu@physx@@AEAA_NIPEBIPEBGPEBVPxVec3@3@M@Z 00000001800394c8     EdgeList.obj
 0004:000004d4       $pdata$17$?computeActiveEdges@EdgeListBuilder@Gu@physx@@AEAA_NIPEBIPEBGPEBVPxVec3@3@M@Z 00000001800394d4     EdgeList.obj
 0004:000004e0       $pdata$18$?computeActiveEdges@EdgeListBuilder@Gu@physx@@AEAA_NIPEBIPEBGPEBVPxVec3@3@M@Z 00000001800394e0     EdgeList.obj
 0004:000004ec       $pdata$??0MeshCleaner@physx@@QEAA@IPEBVPxVec3@1@IPEBIM@Z 00000001800394ec     MeshCleaner.obj
 0004:000004f8       $pdata$1$??0MeshCleaner@physx@@QEAA@IPEBVPxVec3@1@IPEBIM@Z 00000001800394f8     MeshCleaner.obj
 0004:00000504       $pdata$5$??0MeshCleaner@physx@@QEAA@IPEBVPxVec3@1@IPEBIM@Z 0000000180039504     MeshCleaner.obj
 0004:00000510       $pdata$7$??0MeshCleaner@physx@@QEAA@IPEBVPxVec3@1@IPEBIM@Z 0000000180039510     MeshCleaner.obj
 0004:0000051c       $pdata$8$??0MeshCleaner@physx@@QEAA@IPEBVPxVec3@1@IPEBIM@Z 000000018003951c     MeshCleaner.obj
 0004:00000528       $pdata$9$??0MeshCleaner@physx@@QEAA@IPEBVPxVec3@1@IPEBIM@Z 0000000180039528     MeshCleaner.obj
 0004:00000534       $pdata$10$??0MeshCleaner@physx@@QEAA@IPEBVPxVec3@1@IPEBIM@Z 0000000180039534     MeshCleaner.obj
 0004:00000540       $pdata$11$??0MeshCleaner@physx@@QEAA@IPEBVPxVec3@1@IPEBIM@Z 0000000180039540     MeshCleaner.obj
 0004:0000054c       $pdata$12$??0MeshCleaner@physx@@QEAA@IPEBVPxVec3@1@IPEBIM@Z 000000018003954c     MeshCleaner.obj
 0004:00000558       $pdata$13$??0MeshCleaner@physx@@QEAA@IPEBVPxVec3@1@IPEBIM@Z 0000000180039558     MeshCleaner.obj
 0004:00000564       $pdata$14$??0MeshCleaner@physx@@QEAA@IPEBVPxVec3@1@IPEBIM@Z 0000000180039564     MeshCleaner.obj
 0004:00000570       $pdata$15$??0MeshCleaner@physx@@QEAA@IPEBVPxVec3@1@IPEBIM@Z 0000000180039570     MeshCleaner.obj
 0004:0000057c       $pdata$??1MeshCleaner@physx@@QEAA@XZ 000000018003957c     MeshCleaner.obj
 0004:00000588       $pdata$?createQuantizer@physx@@YAPEAVQuantizer@1@XZ 0000000180039588     Quantizer.obj
 0004:00000594       $pdata$??$kmeans_cluster@VPxVec3@physx@@M@@YAIPEBVPxVec3@physx@@IIPEAV01@PEAIMM@Z 0000000180039594     Quantizer.obj
 0004:000005a0       $pdata$4$??$kmeans_cluster@VPxVec3@physx@@M@@YAIPEBVPxVec3@physx@@IIPEAV01@PEAIMM@Z 00000001800395a0     Quantizer.obj
 0004:000005ac       $pdata$6$??$kmeans_cluster@VPxVec3@physx@@M@@YAIPEBVPxVec3@physx@@IIPEAV01@PEAIMM@Z 00000001800395ac     Quantizer.obj
 0004:000005b8       $pdata$9$??$kmeans_cluster@VPxVec3@physx@@M@@YAIPEBVPxVec3@physx@@IIPEAV01@PEAIMM@Z 00000001800395b8     Quantizer.obj
 0004:000005c4       $pdata$10$??$kmeans_cluster@VPxVec3@physx@@M@@YAIPEBVPxVec3@physx@@IIPEAV01@PEAIMM@Z 00000001800395c4     Quantizer.obj
 0004:000005d0       $pdata$11$??$kmeans_cluster@VPxVec3@physx@@M@@YAIPEBVPxVec3@physx@@IIPEAV01@PEAIMM@Z 00000001800395d0     Quantizer.obj
 0004:000005dc       $pdata$12$??$kmeans_cluster@VPxVec3@physx@@M@@YAIPEBVPxVec3@physx@@IIPEAV01@PEAIMM@Z 00000001800395dc     Quantizer.obj
 0004:000005e8       $pdata$??1QuantizerImpl@@EEAA@XZ 00000001800395e8     Quantizer.obj
 0004:000005f4       $pdata$??_GQuantizer@physx@@MEAAPEAXI@Z 00000001800395f4     Quantizer.obj
 0004:00000600       $pdata$??_GQuantizerImpl@@EEAAPEAXI@Z 0000000180039600     Quantizer.obj
 0004:0000060c       $pdata$?allocate@?$ReflectionAllocator@VPxVec3@physx@@@shdfnd@physx@@QEAAPEAX_KPEBDH@Z 000000018003960c     Quantizer.obj
 0004:00000618       $pdata$0$?allocate@?$ReflectionAllocator@VPxVec3@physx@@@shdfnd@physx@@QEAAPEAX_KPEBDH@Z 0000000180039618     Quantizer.obj
 0004:00000624       $pdata$1$?allocate@?$ReflectionAllocator@VPxVec3@physx@@@shdfnd@physx@@QEAAPEAX_KPEBDH@Z 0000000180039624     Quantizer.obj
 0004:00000630       $pdata$?growAndPushBack@?$Array@VPxVec3@physx@@V?$ReflectionAllocator@VPxVec3@physx@@@shdfnd@2@@shdfnd@physx@@IEAAAEAVPxVec3@3@AEBV43@@Z 0000000180039630     Quantizer.obj
 0004:0000063c       $pdata$?kmeansQuantize3D@QuantizerImpl@@UEAAPEBVPxVec3@physx@@IPEBV23@I_NIAEAI@Z 000000018003963c     Quantizer.obj
 0004:00000648       $pdata$1$?kmeansQuantize3D@QuantizerImpl@@UEAAPEBVPxVec3@physx@@IPEBV23@I_NIAEAI@Z 0000000180039648     Quantizer.obj
 0004:00000654       $pdata$2$?kmeansQuantize3D@QuantizerImpl@@UEAAPEBVPxVec3@physx@@IPEBV23@I_NIAEAI@Z 0000000180039654     Quantizer.obj
 0004:00000660       $pdata$3$?kmeansQuantize3D@QuantizerImpl@@UEAAPEBVPxVec3@physx@@IPEBV23@I_NIAEAI@Z 0000000180039660     Quantizer.obj
 0004:0000066c       $pdata$?normalizeInput@QuantizerImpl@@AEAAXIPEBVPxVec3@physx@@I@Z 000000018003966c     Quantizer.obj
 0004:00000678       $pdata$0$?normalizeInput@QuantizerImpl@@AEAAXIPEBVPxVec3@physx@@I@Z 0000000180039678     Quantizer.obj
 0004:00000684       $pdata$3$?normalizeInput@QuantizerImpl@@AEAAXIPEBVPxVec3@physx@@I@Z 0000000180039684     Quantizer.obj
 0004:00000690       $pdata$4$?normalizeInput@QuantizerImpl@@AEAAXIPEBVPxVec3@physx@@I@Z 0000000180039690     Quantizer.obj
 0004:0000069c       $pdata$5$?normalizeInput@QuantizerImpl@@AEAAXIPEBVPxVec3@physx@@I@Z 000000018003969c     Quantizer.obj
 0004:000006a8       $pdata$7$?normalizeInput@QuantizerImpl@@AEAAXIPEBVPxVec3@physx@@I@Z 00000001800396a8     Quantizer.obj
 0004:000006b4       $pdata$8$?normalizeInput@QuantizerImpl@@AEAAXIPEBVPxVec3@physx@@I@Z 00000001800396b4     Quantizer.obj
 0004:000006c0       $pdata$??1BVHStructureBuilder@physx@@QEAA@XZ 00000001800396c0     BVHStructureBuilder.obj
 0004:000006cc       $pdata$?loadFromDesc@BVHStructureBuilder@physx@@QEAA_NAEBVPxBVHStructureDesc@2@@Z 00000001800396cc     BVHStructureBuilder.obj
 0004:000006d8       $pdata$?save@BVHStructureBuilder@physx@@QEBA_NAEAVPxOutputStream@2@_N@Z 00000001800396d8     BVHStructureBuilder.obj
 0004:000006e4       $pdata$2$?save@BVHStructureBuilder@physx@@QEBA_NAEAVPxOutputStream@2@_N@Z 00000001800396e4     BVHStructureBuilder.obj
 0004:000006f0       $pdata$3$?save@BVHStructureBuilder@physx@@QEBA_NAEAVPxOutputStream@2@_N@Z 00000001800396f0     BVHStructureBuilder.obj
 0004:000006fc       $pdata$?flatten@@YAXAEBVNodeAllocator@Gu@physx@@PEAUBVHNode@23@@Z 00000001800396fc     BVHStructureBuilder.obj
 0004:00000708       $pdata$4$?flatten@@YAXAEBVNodeAllocator@Gu@physx@@PEAUBVHNode@23@@Z 0000000180039708     BVHStructureBuilder.obj
 0004:00000714       $pdata$5$?flatten@@YAXAEBVNodeAllocator@Gu@physx@@PEAUBVHNode@23@@Z 0000000180039714     BVHStructureBuilder.obj
 0004:00000720       $pdata$??$?4V?$ReflectionAllocator@USlab@NodeAllocator@Gu@physx@@@shdfnd@physx@@@?$Array@USlab@NodeAllocator@Gu@physx@@V?$ReflectionAllocator@USlab@NodeAllocator@Gu@physx@@@shdfnd@4@@shdfnd@physx@@QEAAAEAV012@AEBV012@@Z 0000000180039720     BVHStructureBuilder.obj
 0004:0000072c       $pdata$??$copy@V?$ReflectionAllocator@USlab@NodeAllocator@Gu@physx@@@shdfnd@physx@@@?$Array@USlab@NodeAllocator@Gu@physx@@V?$ReflectionAllocator@USlab@NodeAllocator@Gu@physx@@@shdfnd@4@@shdfnd@physx@@IEAAXAEBV012@@Z 000000018003972c     BVHStructureBuilder.obj
 0004:00000738       $pdata$??0NodeAllocator@Gu@physx@@QEAA@AEBV012@@Z 0000000180039738     BVHStructureBuilder.obj
 0004:00000744       $pdata$??1AABBTreeBuildParams@Gu@physx@@QEAA@XZ 0000000180039744     BVHStructureBuilder.obj
 0004:00000750       $pdata$??4NodeAllocator@Gu@physx@@QEAAAEAV012@AEBV012@@Z 0000000180039750     BVHStructureBuilder.obj
 0004:0000075c       $pdata$?allocate@?$ReflectionAllocator@USlab@NodeAllocator@Gu@physx@@@shdfnd@physx@@QEAAPEAX_KPEBDH@Z 000000018003975c     BVHStructureBuilder.obj
 0004:00000768       $pdata$0$?allocate@?$ReflectionAllocator@USlab@NodeAllocator@Gu@physx@@@shdfnd@physx@@QEAAPEAX_KPEBDH@Z 0000000180039768     BVHStructureBuilder.obj
 0004:00000774       $pdata$1$?allocate@?$ReflectionAllocator@USlab@NodeAllocator@Gu@physx@@@shdfnd@physx@@QEAAPEAX_KPEBDH@Z 0000000180039774     BVHStructureBuilder.obj
 0004:00000780       $pdata$?recreate@?$Array@USlab@NodeAllocator@Gu@physx@@V?$ReflectionAllocator@USlab@NodeAllocator@Gu@physx@@@shdfnd@4@@shdfnd@physx@@IEAAXI@Z 0000000180039780     BVHStructureBuilder.obj
 0004:0000078c       $pdata$?reset@AABBTreeBuildParams@Gu@physx@@QEAAXXZ 000000018003978c     BVHStructureBuilder.obj
 0004:00000798       $pdata$?saveHeightField@physx@@YA_NAEBVHeightField@Gu@1@AEAVPxOutputStream@1@_N@Z 0000000180039798     HeightFieldCooking.obj
 0004:000007a4       $pdata$2$?saveHeightField@physx@@YA_NAEBVHeightField@Gu@1@AEAVPxOutputStream@1@_N@Z 00000001800397a4     HeightFieldCooking.obj
 0004:000007b0       $pdata$3$?saveHeightField@physx@@YA_NAEBVHeightField@Gu@1@AEAVPxOutputStream@1@_N@Z 00000001800397b0     HeightFieldCooking.obj
 0004:000007bc       $pdata$?buildFromTriangles@RTreeCooker@physx@@SAXAEAURTree@Gu@2@PEBVPxVec3@2@IPEBGPEBIIAEAV?$Array@IV?$ReflectionAllocator@I@shdfnd@physx@@@shdfnd@2@PEAURemapCallback@12@MW4Enum@PxMeshCookingHint@2@@Z 00000001800397bc     RTreeCooking.obj
 0004:000007c8       $pdata$6$?buildFromTriangles@RTreeCooker@physx@@SAXAEAURTree@Gu@2@PEBVPxVec3@2@IPEBGPEBIIAEAV?$Array@IV?$ReflectionAllocator@I@shdfnd@physx@@@shdfnd@2@PEAURemapCallback@12@MW4Enum@PxMeshCookingHint@2@@Z 00000001800397c8     RTreeCooking.obj
 0004:000007d4       $pdata$7$?buildFromTriangles@RTreeCooker@physx@@SAXAEAURTree@Gu@2@PEBVPxVec3@2@IPEBGPEBIIAEAV?$Array@IV?$ReflectionAllocator@I@shdfnd@physx@@@shdfnd@2@PEAURemapCallback@12@MW4Enum@PxMeshCookingHint@2@@Z 00000001800397d4     RTreeCooking.obj
 0004:000007e0       $pdata$8$?buildFromTriangles@RTreeCooker@physx@@SAXAEAURTree@Gu@2@PEBVPxVec3@2@IPEBGPEBIIAEAV?$Array@IV?$ReflectionAllocator@I@shdfnd@physx@@@shdfnd@2@PEAURemapCallback@12@MW4Enum@PxMeshCookingHint@2@@Z 00000001800397e0     RTreeCooking.obj
 0004:000007ec       $pdata$9$?buildFromTriangles@RTreeCooker@physx@@SAXAEAURTree@Gu@2@PEBVPxVec3@2@IPEBGPEBIIAEAV?$Array@IV?$ReflectionAllocator@I@shdfnd@physx@@@shdfnd@2@PEAURemapCallback@12@MW4Enum@PxMeshCookingHint@2@@Z 00000001800397ec     RTreeCooking.obj
 0004:000007f8       $pdata$??$median3@I$$CBUSortBoundsPredicate@physx@@@internal@shdfnd@physx@@YAXPEAIHHAEBUSortBoundsPredicate@2@@Z 00000001800397f8     RTreeCooking.obj
 0004:00000804       $pdata$??$partition@I$$CBU?$Less@I@shdfnd@physx@@@internal@shdfnd@physx@@YAHPEAIHHAEBU?$Less@I@12@@Z 0000000180039804     RTreeCooking.obj
 0004:00000810       $pdata$??$partition@I$$CBUSortBoundsPredicate@physx@@@internal@shdfnd@physx@@YAHPEAIHHAEBUSortBoundsPredicate@2@@Z 0000000180039810     RTreeCooking.obj
 0004:0000081c       $pdata$??$partition@UBoundsLTE@physx@@@quickSelect@physx@@YAIPEIAIIIIAEBUBoundsLTE@1@@Z 000000018003981c     RTreeCooking.obj
 0004:00000828       $pdata$2$??$partition@UBoundsLTE@physx@@@quickSelect@physx@@YAIPEIAIIIIAEBUBoundsLTE@1@@Z 0000000180039828     RTreeCooking.obj
 0004:00000834       $pdata$3$??$partition@UBoundsLTE@physx@@@quickSelect@physx@@YAIPEIAIIIIAEBUBoundsLTE@1@@Z 0000000180039834     RTreeCooking.obj
 0004:00000840       $pdata$??$quickSelectFirstK@UBoundsLTE@physx@@@quickSelect@physx@@YAXPEIAIIIIAEBUBoundsLTE@1@@Z 0000000180039840     RTreeCooking.obj
 0004:0000084c       $pdata$??$smallSort@I$$CBU?$Less@I@shdfnd@physx@@@internal@shdfnd@physx@@YAXPEAIHHAEBU?$Less@I@12@@Z 000000018003984c     RTreeCooking.obj
 0004:00000858       $pdata$5$??$smallSort@I$$CBU?$Less@I@shdfnd@physx@@@internal@shdfnd@physx@@YAXPEAIHHAEBU?$Less@I@12@@Z 0000000180039858     RTreeCooking.obj
 0004:00000864       $pdata$6$??$smallSort@I$$CBU?$Less@I@shdfnd@physx@@@internal@shdfnd@physx@@YAXPEAIHHAEBU?$Less@I@12@@Z 0000000180039864     RTreeCooking.obj
 0004:00000870       $pdata$??$smallSort@I$$CBUSortBoundsPredicate@physx@@@internal@shdfnd@physx@@YAXPEAIHHAEBUSortBoundsPredicate@2@@Z 0000000180039870     RTreeCooking.obj
 0004:0000087c       $pdata$4$??$smallSort@I$$CBUSortBoundsPredicate@physx@@@internal@shdfnd@physx@@YAXPEAIHHAEBUSortBoundsPredicate@2@@Z 000000018003987c     RTreeCooking.obj
 0004:00000888       $pdata$5$??$smallSort@I$$CBUSortBoundsPredicate@physx@@@internal@shdfnd@physx@@YAXPEAIHHAEBUSortBoundsPredicate@2@@Z 0000000180039888     RTreeCooking.obj
 0004:00000894       $pdata$??$sort@I@shdfnd@physx@@YAXPEAII@Z 0000000180039894     RTreeCooking.obj
 0004:000008a0       $pdata$??$sort@IU?$Less@I@shdfnd@physx@@V?$ReflectionAllocator@I@23@@shdfnd@physx@@YAXPEAIIAEBU?$Less@I@01@AEBV?$ReflectionAllocator@I@01@I@Z 00000001800398a0     RTreeCooking.obj
 0004:000008ac       $pdata$??$sort@IUSortBoundsPredicate@physx@@@shdfnd@physx@@YAXPEAIIAEBUSortBoundsPredicate@1@@Z 00000001800398ac     RTreeCooking.obj
 0004:000008b8       $pdata$??$sort@IUSortBoundsPredicate@physx@@V?$ReflectionAllocator@I@shdfnd@2@@shdfnd@physx@@YAXPEAIIAEBUSortBoundsPredicate@1@AEBV?$ReflectionAllocator@I@01@I@Z 00000001800398b8     RTreeCooking.obj
 0004:000008c4       $pdata$??0SubSortQuick@physx@@QEAA@PEAIPEBUPxBounds3V@1@IM@Z 00000001800398c4     RTreeCooking.obj
 0004:000008d0       $pdata$??0SubSortSAH@physx@@QEAA@PEAIPEBUPxBounds3V@1@IPEBI22222M@Z 00000001800398d0     RTreeCooking.obj
 0004:000008dc       $pdata$?allocate@?$Array@UInterval@physx@@V?$InlineAllocator@$0CAAA@V?$ReflectionAllocator@UInterval@physx@@@shdfnd@physx@@@shdfnd@2@@shdfnd@physx@@IEAAPEAUInterval@3@I@Z 00000001800398dc     RTreeCooking.obj
 0004:000008e8       $pdata$1$?allocate@?$Array@UInterval@physx@@V?$InlineAllocator@$0CAAA@V?$ReflectionAllocator@UInterval@physx@@@shdfnd@physx@@@shdfnd@2@@shdfnd@physx@@IEAAPEAUInterval@3@I@Z 00000001800398e8     RTreeCooking.obj
 0004:000008f4       $pdata$3$?allocate@?$Array@UInterval@physx@@V?$InlineAllocator@$0CAAA@V?$ReflectionAllocator@UInterval@physx@@@shdfnd@physx@@@shdfnd@2@@shdfnd@physx@@IEAAPEAUInterval@3@I@Z 00000001800398f4     RTreeCooking.obj
 0004:00000900       $pdata$4$?allocate@?$Array@UInterval@physx@@V?$InlineAllocator@$0CAAA@V?$ReflectionAllocator@UInterval@physx@@@shdfnd@physx@@@shdfnd@2@@shdfnd@physx@@IEAAPEAUInterval@3@I@Z 0000000180039900     RTreeCooking.obj
 0004:0000090c       $pdata$?allocate@?$ReflectionAllocator@I@shdfnd@physx@@QEAAPEAX_KPEBDH@Z 000000018003990c     RTreeCooking.obj
 0004:00000918       $pdata$0$?allocate@?$ReflectionAllocator@I@shdfnd@physx@@QEAAPEAX_KPEBDH@Z 0000000180039918     RTreeCooking.obj
 0004:00000924       $pdata$1$?allocate@?$ReflectionAllocator@I@shdfnd@physx@@QEAAPEAX_KPEBDH@Z 0000000180039924     RTreeCooking.obj
 0004:00000930       $pdata$?allocate@?$ReflectionAllocator@UPxBounds3V@physx@@@shdfnd@physx@@QEAAPEAX_KPEBDH@Z 0000000180039930     RTreeCooking.obj
 0004:0000093c       $pdata$0$?allocate@?$ReflectionAllocator@UPxBounds3V@physx@@@shdfnd@physx@@QEAAPEAX_KPEBDH@Z 000000018003993c     RTreeCooking.obj
 0004:00000948       $pdata$1$?allocate@?$ReflectionAllocator@UPxBounds3V@physx@@@shdfnd@physx@@QEAAPEAX_KPEBDH@Z 0000000180039948     RTreeCooking.obj
 0004:00000954       $pdata$?allocate@?$ReflectionAllocator@URTreeNodeNQ@physx@@@shdfnd@physx@@QEAAPEAX_KPEBDH@Z 0000000180039954     RTreeCooking.obj
 0004:00000960       $pdata$0$?allocate@?$ReflectionAllocator@URTreeNodeNQ@physx@@@shdfnd@physx@@QEAAPEAX_KPEBDH@Z 0000000180039960     RTreeCooking.obj
 0004:0000096c       $pdata$1$?allocate@?$ReflectionAllocator@URTreeNodeNQ@physx@@@shdfnd@physx@@QEAAPEAX_KPEBDH@Z 000000018003996c     RTreeCooking.obj
 0004:00000978       $pdata$?allocate@?$ReflectionAllocator@URTreeNodeQ@Gu@physx@@@shdfnd@physx@@QEAAPEAX_KPEBDH@Z 0000000180039978     RTreeCooking.obj
 0004:00000984       $pdata$0$?allocate@?$ReflectionAllocator@URTreeNodeQ@Gu@physx@@@shdfnd@physx@@QEAAPEAX_KPEBDH@Z 0000000180039984     RTreeCooking.obj
 0004:00000990       $pdata$1$?allocate@?$ReflectionAllocator@URTreeNodeQ@Gu@physx@@@shdfnd@physx@@QEAAPEAX_KPEBDH@Z 0000000180039990     RTreeCooking.obj
 0004:0000099c       $pdata$?buildFromBounds@physx@@YAXAEAURTree@Gu@1@PEBUPxBounds3V@1@IAEAV?$Array@IV?$ReflectionAllocator@I@shdfnd@physx@@@shdfnd@1@PEAURemapCallback@RTreeCooker@1@AEAT__m128@@4MW4Enum@PxMeshCookingHint@1@@Z 000000018003999c     RTreeCooking.obj
 0004:000009a8       $pdata$?copy@?$Array@URTreeNodeNQ@physx@@V?$ReflectionAllocator@URTreeNodeNQ@physx@@@shdfnd@2@@shdfnd@physx@@KAXPEAURTreeNodeNQ@3@0PEBU43@@Z 00000001800399a8     RTreeCooking.obj
 0004:000009b4       $pdata$0$?copy@?$Array@URTreeNodeNQ@physx@@V?$ReflectionAllocator@URTreeNodeNQ@physx@@@shdfnd@2@@shdfnd@physx@@KAXPEAURTreeNodeNQ@3@0PEBU43@@Z 00000001800399b4     RTreeCooking.obj
 0004:000009c0       $pdata$1$?copy@?$Array@URTreeNodeNQ@physx@@V?$ReflectionAllocator@URTreeNodeNQ@physx@@@shdfnd@2@@shdfnd@physx@@KAXPEAURTreeNodeNQ@3@0PEBU43@@Z 00000001800399c0     RTreeCooking.obj
 0004:000009cc       $pdata$?growAndPushBack@?$Array@IV?$ReflectionAllocator@I@shdfnd@physx@@@shdfnd@physx@@IEAAAEAIAEBI@Z 00000001800399cc     RTreeCooking.obj
 0004:000009d8       $pdata$?growAndPushBack@?$Array@UInterval@physx@@V?$InlineAllocator@$0CAAA@V?$ReflectionAllocator@UInterval@physx@@@shdfnd@physx@@@shdfnd@2@@shdfnd@physx@@IEAAAEAUInterval@3@AEBU43@@Z 00000001800399d8     RTreeCooking.obj
 0004:000009e4       $pdata$?growAndPushBack@?$Array@UPxBounds3V@physx@@V?$ReflectionAllocator@UPxBounds3V@physx@@@shdfnd@2@@shdfnd@physx@@IEAAAEAUPxBounds3V@3@AEBU43@@Z 00000001800399e4     RTreeCooking.obj
 0004:000009f0       $pdata$?growAndPushBack@?$Array@URTreeNodeNQ@physx@@V?$ReflectionAllocator@URTreeNodeNQ@physx@@@shdfnd@2@@shdfnd@physx@@IEAAAEAURTreeNodeNQ@3@AEBU43@@Z 00000001800399f0     RTreeCooking.obj
 0004:000009fc       $pdata$?growAndPushBack@?$Array@URTreeNodeQ@Gu@physx@@V?$ReflectionAllocator@URTreeNodeQ@Gu@physx@@@shdfnd@3@@shdfnd@physx@@IEAAAEAURTreeNodeQ@Gu@3@AEBU453@@Z 00000001800399fc     RTreeCooking.obj
 0004:00000a08       $pdata$?recreate@?$Array@IV?$ReflectionAllocator@I@shdfnd@physx@@@shdfnd@physx@@IEAAXI@Z 0000000180039a08     RTreeCooking.obj
 0004:00000a14       $pdata$?recreate@?$Array@UPxBounds3V@physx@@V?$ReflectionAllocator@UPxBounds3V@physx@@@shdfnd@2@@shdfnd@physx@@IEAAXI@Z 0000000180039a14     RTreeCooking.obj
 0004:00000a20       $pdata$?recreate@?$Array@URTreeNodeNQ@physx@@V?$ReflectionAllocator@URTreeNodeNQ@physx@@@shdfnd@2@@shdfnd@physx@@IEAAXI@Z 0000000180039a20     RTreeCooking.obj
 0004:00000a2c       $pdata$?recreate@?$Array@URTreeNodeQ@Gu@physx@@V?$ReflectionAllocator@URTreeNodeQ@Gu@physx@@@shdfnd@3@@shdfnd@physx@@IEAAXI@Z 0000000180039a2c     RTreeCooking.obj
 0004:00000a38       $pdata$?recreate@?$Array@VPxVec3@physx@@V?$ReflectionAllocator@VPxVec3@physx@@@shdfnd@2@@shdfnd@physx@@IEAAXI@Z 0000000180039a38     RTreeCooking.obj
 0004:00000a44       $pdata$?resize@?$Array@IV?$ReflectionAllocator@I@shdfnd@physx@@@shdfnd@physx@@QEAAXIAEBI@Z 0000000180039a44     RTreeCooking.obj
 0004:00000a50       $pdata$?resizeUninitialized@?$Array@URTreeNodeNQ@physx@@V?$ReflectionAllocator@URTreeNodeNQ@physx@@@shdfnd@2@@shdfnd@physx@@QEAAXI@Z 0000000180039a50     RTreeCooking.obj
 0004:00000a5c       $pdata$?sort4@SubSortQuick@physx@@QEAAXPEIAIIAEAV?$Array@URTreeNodeNQ@physx@@V?$ReflectionAllocator@URTreeNodeNQ@physx@@@shdfnd@2@@shdfnd@2@AEAIAEAUPxBounds3V@2@I@Z 0000000180039a5c     RTreeCooking.obj
 0004:00000a68       $pdata$?sort4@SubSortSAH@physx@@QEAAXPEAIIAEAV?$Array@URTreeNodeNQ@physx@@V?$ReflectionAllocator@URTreeNodeNQ@physx@@@shdfnd@2@@shdfnd@2@AEAIIPEAURTreeNodeNQ@2@@Z 0000000180039a68     RTreeCooking.obj
 0004:00000a74       $pdata$2$?sort4@SubSortSAH@physx@@QEAAXPEAIIAEAV?$Array@URTreeNodeNQ@physx@@V?$ReflectionAllocator@URTreeNodeNQ@physx@@@shdfnd@2@@shdfnd@2@AEAIIPEAURTreeNodeNQ@2@@Z 0000000180039a74     RTreeCooking.obj
 0004:00000a80       $pdata$4$?sort4@SubSortSAH@physx@@QEAAXPEAIIAEAV?$Array@URTreeNodeNQ@physx@@V?$ReflectionAllocator@URTreeNodeNQ@physx@@@shdfnd@2@@shdfnd@2@AEAIIPEAURTreeNodeNQ@2@@Z 0000000180039a80     RTreeCooking.obj
 0004:00000a8c       $pdata$5$?sort4@SubSortSAH@physx@@QEAAXPEAIIAEAV?$Array@URTreeNodeNQ@physx@@V?$ReflectionAllocator@URTreeNodeNQ@physx@@@shdfnd@2@@shdfnd@2@AEAIIPEAURTreeNodeNQ@2@@Z 0000000180039a8c     RTreeCooking.obj
 0004:00000a98       $pdata$6$?sort4@SubSortSAH@physx@@QEAAXPEAIIAEAV?$Array@URTreeNodeNQ@physx@@V?$ReflectionAllocator@URTreeNodeNQ@physx@@@shdfnd@2@@shdfnd@2@AEAIIPEAURTreeNodeNQ@2@@Z 0000000180039a98     RTreeCooking.obj
 0004:00000aa4       $pdata$7$?sort4@SubSortSAH@physx@@QEAAXPEAIIAEAV?$Array@URTreeNodeNQ@physx@@V?$ReflectionAllocator@URTreeNodeNQ@physx@@@shdfnd@2@@shdfnd@2@AEAIIPEAURTreeNodeNQ@2@@Z 0000000180039aa4     RTreeCooking.obj
 0004:00000ab0       $pdata$?split@SubSortSAH@physx@@QEAAIPEAII@Z 0000000180039ab0     RTreeCooking.obj
 0004:00000abc       $pdata$2$?split@SubSortSAH@physx@@QEAAIPEAII@Z 0000000180039abc     RTreeCooking.obj
 0004:00000ac8       $pdata$6$?split@SubSortSAH@physx@@QEAAIPEAII@Z 0000000180039ac8     RTreeCooking.obj
 0004:00000ad4       $pdata$7$?split@SubSortSAH@physx@@QEAAIPEAII@Z 0000000180039ad4     RTreeCooking.obj
 0004:00000ae0       $pdata$8$?split@SubSortSAH@physx@@QEAAIPEAII@Z 0000000180039ae0     RTreeCooking.obj
 0004:00000aec       $pdata$?computeLocalBounds@MeshBulider@physx@@IEAAXAEAVMeshDataBase@Gu@2@@Z 0000000180039aec     MeshBuilder.obj
 0004:00000af8       $pdata$??1TriangleMeshBuilder@physx@@UEAA@XZ 0000000180039af8     TriangleMeshBuilder.obj
 0004:00000b04       $pdata$?cleanMesh@TriangleMeshBuilder@physx@@QEAA_N_NPEAW4Enum@PxTriangleMeshCookingResult@2@@Z 0000000180039b04     TriangleMeshBuilder.obj
 0004:00000b10       $pdata$0$?cleanMesh@TriangleMeshBuilder@physx@@QEAA_N_NPEAW4Enum@PxTriangleMeshCookingResult@2@@Z 0000000180039b10     TriangleMeshBuilder.obj
 0004:00000b1c       $pdata$1$?cleanMesh@TriangleMeshBuilder@physx@@QEAA_N_NPEAW4Enum@PxTriangleMeshCookingResult@2@@Z 0000000180039b1c     TriangleMeshBuilder.obj
 0004:00000b28       $pdata$2$?cleanMesh@TriangleMeshBuilder@physx@@QEAA_N_NPEAW4Enum@PxTriangleMeshCookingResult@2@@Z 0000000180039b28     TriangleMeshBuilder.obj
 0004:00000b34       $pdata$3$?cleanMesh@TriangleMeshBuilder@physx@@QEAA_N_NPEAW4Enum@PxTriangleMeshCookingResult@2@@Z 0000000180039b34     TriangleMeshBuilder.obj
 0004:00000b40       $pdata$4$?cleanMesh@TriangleMeshBuilder@physx@@QEAA_N_NPEAW4Enum@PxTriangleMeshCookingResult@2@@Z 0000000180039b40     TriangleMeshBuilder.obj
 0004:00000b4c       $pdata$5$?cleanMesh@TriangleMeshBuilder@physx@@QEAA_N_NPEAW4Enum@PxTriangleMeshCookingResult@2@@Z 0000000180039b4c     TriangleMeshBuilder.obj
 0004:00000b58       $pdata$6$?cleanMesh@TriangleMeshBuilder@physx@@QEAA_N_NPEAW4Enum@PxTriangleMeshCookingResult@2@@Z 0000000180039b58     TriangleMeshBuilder.obj
 0004:00000b64       $pdata$7$?cleanMesh@TriangleMeshBuilder@physx@@QEAA_N_NPEAW4Enum@PxTriangleMeshCookingResult@2@@Z 0000000180039b64     TriangleMeshBuilder.obj
 0004:00000b70       $pdata$8$?cleanMesh@TriangleMeshBuilder@physx@@QEAA_N_NPEAW4Enum@PxTriangleMeshCookingResult@2@@Z 0000000180039b70     TriangleMeshBuilder.obj
 0004:00000b7c       $pdata$9$?cleanMesh@TriangleMeshBuilder@physx@@QEAA_N_NPEAW4Enum@PxTriangleMeshCookingResult@2@@Z 0000000180039b7c     TriangleMeshBuilder.obj
 0004:00000b88       $pdata$?remapTopology@TriangleMeshBuilder@physx@@QEAAXPEBI@Z 0000000180039b88     TriangleMeshBuilder.obj
 0004:00000b94       $pdata$4$?remapTopology@TriangleMeshBuilder@physx@@QEAAXPEBI@Z 0000000180039b94     TriangleMeshBuilder.obj
 0004:00000ba0       $pdata$5$?remapTopology@TriangleMeshBuilder@physx@@QEAAXPEBI@Z 0000000180039ba0     TriangleMeshBuilder.obj
 0004:00000bac       $pdata$6$?remapTopology@TriangleMeshBuilder@physx@@QEAAXPEBI@Z 0000000180039bac     TriangleMeshBuilder.obj
 0004:00000bb8       $pdata$?createSharedEdgeData@TriangleMeshBuilder@physx@@QEAAX_N0@Z 0000000180039bb8     TriangleMeshBuilder.obj
 0004:00000bc4       $pdata$4$?createSharedEdgeData@TriangleMeshBuilder@physx@@QEAAX_N0@Z 0000000180039bc4     TriangleMeshBuilder.obj
 0004:00000bd0       $pdata$5$?createSharedEdgeData@TriangleMeshBuilder@physx@@QEAAX_N0@Z 0000000180039bd0     TriangleMeshBuilder.obj
 0004:00000bdc       $pdata$?recordTriangleIndices@TriangleMeshBuilder@physx@@QEAAXXZ 0000000180039bdc     TriangleMeshBuilder.obj
 0004:00000be8       $pdata$0$?recordTriangleIndices@TriangleMeshBuilder@physx@@QEAAXXZ 0000000180039be8     TriangleMeshBuilder.obj
 0004:00000bf4       $pdata$1$?recordTriangleIndices@TriangleMeshBuilder@physx@@QEAAXXZ 0000000180039bf4     TriangleMeshBuilder.obj
 0004:00000c00       $pdata$2$?recordTriangleIndices@TriangleMeshBuilder@physx@@QEAAXXZ 0000000180039c00     TriangleMeshBuilder.obj
 0004:00000c0c       $pdata$3$?recordTriangleIndices@TriangleMeshBuilder@physx@@QEAAXXZ 0000000180039c0c     TriangleMeshBuilder.obj
 0004:00000c18       $pdata$?createGRBMidPhaseAndData@TriangleMeshBuilder@physx@@QEAAXI@Z 0000000180039c18     TriangleMeshBuilder.obj
 0004:00000c24       $pdata$1$?createGRBMidPhaseAndData@TriangleMeshBuilder@physx@@QEAAXI@Z 0000000180039c24     TriangleMeshBuilder.obj
 0004:00000c30       $pdata$2$?createGRBMidPhaseAndData@TriangleMeshBuilder@physx@@QEAAXI@Z 0000000180039c30     TriangleMeshBuilder.obj
 0004:00000c3c       $pdata$3$?createGRBMidPhaseAndData@TriangleMeshBuilder@physx@@QEAAXI@Z 0000000180039c3c     TriangleMeshBuilder.obj
 0004:00000c48       $pdata$4$?createGRBMidPhaseAndData@TriangleMeshBuilder@physx@@QEAAXI@Z 0000000180039c48     TriangleMeshBuilder.obj
 0004:00000c54       $pdata$5$?createGRBMidPhaseAndData@TriangleMeshBuilder@physx@@QEAAXI@Z 0000000180039c54     TriangleMeshBuilder.obj
 0004:00000c60       $pdata$?createGRBData@TriangleMeshBuilder@physx@@QEAAXXZ 0000000180039c60     TriangleMeshBuilder.obj
 0004:00000c6c       $pdata$?loadFromDesc@TriangleMeshBuilder@physx@@QEAA_NAEBVPxTriangleMeshDesc@2@PEAW4Enum@PxTriangleMeshCookingResult@2@_N@Z 0000000180039c6c     TriangleMeshBuilder.obj
 0004:00000c78       $pdata$0$?loadFromDesc@TriangleMeshBuilder@physx@@QEAA_NAEBVPxTriangleMeshDesc@2@PEAW4Enum@PxTriangleMeshCookingResult@2@_N@Z 0000000180039c78     TriangleMeshBuilder.obj
 0004:00000c84       $pdata$1$?loadFromDesc@TriangleMeshBuilder@physx@@QEAA_NAEBVPxTriangleMeshDesc@2@PEAW4Enum@PxTriangleMeshCookingResult@2@_N@Z 0000000180039c84     TriangleMeshBuilder.obj
 0004:00000c90       $pdata$2$?loadFromDesc@TriangleMeshBuilder@physx@@QEAA_NAEBVPxTriangleMeshDesc@2@PEAW4Enum@PxTriangleMeshCookingResult@2@_N@Z 0000000180039c90     TriangleMeshBuilder.obj
 0004:00000c9c       $pdata$3$?loadFromDesc@TriangleMeshBuilder@physx@@QEAA_NAEBVPxTriangleMeshDesc@2@PEAW4Enum@PxTriangleMeshCookingResult@2@_N@Z 0000000180039c9c     TriangleMeshBuilder.obj
 0004:00000ca8       $pdata$4$?loadFromDesc@TriangleMeshBuilder@physx@@QEAA_NAEBVPxTriangleMeshDesc@2@PEAW4Enum@PxTriangleMeshCookingResult@2@_N@Z 0000000180039ca8     TriangleMeshBuilder.obj
 0004:00000cb4       $pdata$6$?loadFromDesc@TriangleMeshBuilder@physx@@QEAA_NAEBVPxTriangleMeshDesc@2@PEAW4Enum@PxTriangleMeshCookingResult@2@_N@Z 0000000180039cb4     TriangleMeshBuilder.obj
 0004:00000cc0       $pdata$7$?loadFromDesc@TriangleMeshBuilder@physx@@QEAA_NAEBVPxTriangleMeshDesc@2@PEAW4Enum@PxTriangleMeshCookingResult@2@_N@Z 0000000180039cc0     TriangleMeshBuilder.obj
 0004:00000ccc       $pdata$?save@TriangleMeshBuilder@physx@@QEBA_NAEAVPxOutputStream@2@_NAEBUPxCookingParams@2@@Z 0000000180039ccc     TriangleMeshBuilder.obj
 0004:00000cd8       $pdata$3$?save@TriangleMeshBuilder@physx@@QEBA_NAEAVPxOutputStream@2@_NAEBUPxCookingParams@2@@Z 0000000180039cd8     TriangleMeshBuilder.obj
 0004:00000ce4       $pdata$4$?save@TriangleMeshBuilder@physx@@QEBA_NAEAVPxOutputStream@2@_NAEBUPxCookingParams@2@@Z 0000000180039ce4     TriangleMeshBuilder.obj
 0004:00000cf0       $pdata$?checkMeshIndicesSize@TriangleMeshBuilder@physx@@QEAAXXZ 0000000180039cf0     TriangleMeshBuilder.obj
 0004:00000cfc       $pdata$1$?checkMeshIndicesSize@TriangleMeshBuilder@physx@@QEAAXXZ 0000000180039cfc     TriangleMeshBuilder.obj
 0004:00000d08       $pdata$2$?checkMeshIndicesSize@TriangleMeshBuilder@physx@@QEAAXXZ 0000000180039d08     TriangleMeshBuilder.obj
 0004:00000d14       $pdata$3$?checkMeshIndicesSize@TriangleMeshBuilder@physx@@QEAAXXZ 0000000180039d14     TriangleMeshBuilder.obj
 0004:00000d20       $pdata$4$?checkMeshIndicesSize@TriangleMeshBuilder@physx@@QEAAXXZ 0000000180039d20     TriangleMeshBuilder.obj
 0004:00000d2c       $pdata$?importMesh@TriangleMeshBuilder@physx@@IEAA_NAEBVPxTriangleMeshDesc@2@AEBUPxCookingParams@2@PEAW4Enum@PxTriangleMeshCookingResult@2@_N@Z 0000000180039d2c     TriangleMeshBuilder.obj
 0004:00000d38       $pdata$?releaseEdgeList@TriangleMeshBuilder@physx@@IEAAXXZ 0000000180039d38     TriangleMeshBuilder.obj
 0004:00000d44       $pdata$?createEdgeList@TriangleMeshBuilder@physx@@IEAAXXZ 0000000180039d44     TriangleMeshBuilder.obj
 0004:00000d50       $pdata$??1RTreeTriangleMeshBuilder@physx@@UEAA@XZ 0000000180039d50     TriangleMeshBuilder.obj
 0004:00000d5c       $pdata$0$??1RTreeTriangleMeshBuilder@physx@@UEAA@XZ 0000000180039d5c     TriangleMeshBuilder.obj
 0004:00000d68       $pdata$1$??1RTreeTriangleMeshBuilder@physx@@UEAA@XZ 0000000180039d68     TriangleMeshBuilder.obj
 0004:00000d74       $pdata$?createMidPhaseStructure@RTreeTriangleMeshBuilder@physx@@UEAAXXZ 0000000180039d74     TriangleMeshBuilder.obj
 0004:00000d80       $pdata$?saveMidPhaseStructure@RTreeTriangleMeshBuilder@physx@@UEBAXAEAVPxOutputStream@2@_N@Z 0000000180039d80     TriangleMeshBuilder.obj
 0004:00000d8c       $pdata$0$?saveMidPhaseStructure@RTreeTriangleMeshBuilder@physx@@UEBAXAEAVPxOutputStream@2@_N@Z 0000000180039d8c     TriangleMeshBuilder.obj
 0004:00000d98       $pdata$1$?saveMidPhaseStructure@RTreeTriangleMeshBuilder@physx@@UEBAXAEAVPxOutputStream@2@_N@Z 0000000180039d98     TriangleMeshBuilder.obj
 0004:00000da4       $pdata$??0BV4TriangleMeshBuilder@physx@@QEAA@AEBUPxCookingParams@1@@Z 0000000180039da4     TriangleMeshBuilder.obj
 0004:00000db0       $pdata$??1BV4TriangleMeshBuilder@physx@@UEAA@XZ 0000000180039db0     TriangleMeshBuilder.obj
 0004:00000dbc       $pdata$?createMidPhaseStructure@BV4TriangleMeshBuilder@physx@@UEAAXXZ 0000000180039dbc     TriangleMeshBuilder.obj
 0004:00000dc8       $pdata$3$?createMidPhaseStructure@BV4TriangleMeshBuilder@physx@@UEAAXXZ 0000000180039dc8     TriangleMeshBuilder.obj
 0004:00000dd4       $pdata$4$?createMidPhaseStructure@BV4TriangleMeshBuilder@physx@@UEAAXXZ 0000000180039dd4     TriangleMeshBuilder.obj
 0004:00000de0       $pdata$5$?createMidPhaseStructure@BV4TriangleMeshBuilder@physx@@UEAAXXZ 0000000180039de0     TriangleMeshBuilder.obj
 0004:00000dec       $pdata$6$?createMidPhaseStructure@BV4TriangleMeshBuilder@physx@@UEAAXXZ 0000000180039dec     TriangleMeshBuilder.obj
 0004:00000df8       $pdata$?saveMidPhaseStructure@BV4TriangleMeshBuilder@physx@@UEBAXAEAVPxOutputStream@2@_N@Z 0000000180039df8     TriangleMeshBuilder.obj
 0004:00000e04       $pdata$?createMidPhaseStructure@BV32TriangleMeshBuilder@physx@@SAXAEBUPxCookingParams@2@AEAVTriangleMeshData@Gu@2@AEAVBV32Tree@52@@Z 0000000180039e04     TriangleMeshBuilder.obj
 0004:00000e10       $pdata$0$?createMidPhaseStructure@BV32TriangleMeshBuilder@physx@@SAXAEBUPxCookingParams@2@AEAVTriangleMeshData@Gu@2@AEAVBV32Tree@52@@Z 0000000180039e10     TriangleMeshBuilder.obj
 0004:00000e1c       $pdata$1$?createMidPhaseStructure@BV32TriangleMeshBuilder@physx@@SAXAEBUPxCookingParams@2@AEAVTriangleMeshData@Gu@2@AEAVBV32Tree@52@@Z 0000000180039e1c     TriangleMeshBuilder.obj
 0004:00000e28       $pdata$?saveMidPhaseStructure@BV32TriangleMeshBuilder@physx@@SAXPEAVBV32Tree@Gu@2@AEAVPxOutputStream@2@_N@Z 0000000180039e28     TriangleMeshBuilder.obj
 0004:00000e34       $pdata$1$?saveMidPhaseStructure@BV32TriangleMeshBuilder@physx@@SAXPEAVBV32Tree@Gu@2@AEAVPxOutputStream@2@_N@Z 0000000180039e34     TriangleMeshBuilder.obj
 0004:00000e40       $pdata$2$?saveMidPhaseStructure@BV32TriangleMeshBuilder@physx@@SAXPEAVBV32Tree@Gu@2@AEAVPxOutputStream@2@_N@Z 0000000180039e40     TriangleMeshBuilder.obj
 0004:00000e4c       $pdata$?findSharpVertices@GrbTrimeshCookerHelper@physx@@YAXAEAV?$Array@USortedNeighbor@GrbTrimeshCookerHelper@physx@@V?$ReflectionAllocator@USortedNeighbor@GrbTrimeshCookerHelper@physx@@@shdfnd@3@@shdfnd@2@AEAV?$Array@USharpEdgeRange@GrbTrimeshCookerHelper@physx@@V?$ReflectionAllocator@USharpEdgeRange@GrbTrimeshCookerHelper@physx@@@shdfnd@3@@42@PEBUuint3@2@PEBUuint4@2@II@Z 0000000180039e4c     TriangleMeshBuilder.obj
 0004:00000e58       $pdata$1$?findSharpVertices@GrbTrimeshCookerHelper@physx@@YAXAEAV?$Array@USortedNeighbor@GrbTrimeshCookerHelper@physx@@V?$ReflectionAllocator@USortedNeighbor@GrbTrimeshCookerHelper@physx@@@shdfnd@3@@shdfnd@2@AEAV?$Array@USharpEdgeRange@GrbTrimeshCookerHelper@physx@@V?$ReflectionAllocator@USharpEdgeRange@GrbTrimeshCookerHelper@physx@@@shdfnd@3@@42@PEBUuint3@2@PEBUuint4@2@II@Z 0000000180039e58     TriangleMeshBuilder.obj
 0004:00000e64       $pdata$2$?findSharpVertices@GrbTrimeshCookerHelper@physx@@YAXAEAV?$Array@USortedNeighbor@GrbTrimeshCookerHelper@physx@@V?$ReflectionAllocator@USortedNeighbor@GrbTrimeshCookerHelper@physx@@@shdfnd@3@@shdfnd@2@AEAV?$Array@USharpEdgeRange@GrbTrimeshCookerHelper@physx@@V?$ReflectionAllocator@USharpEdgeRange@GrbTrimeshCookerHelper@physx@@@shdfnd@3@@42@PEBUuint3@2@PEBUuint4@2@II@Z 0000000180039e64     TriangleMeshBuilder.obj
 0004:00000e70       $pdata$?buildVertexConnectionNew_p1@GrbTrimeshCookerHelper@physx@@YAIAEAV?$Array@USortedNeighbor@GrbTrimeshCookerHelper@physx@@V?$ReflectionAllocator@USortedNeighbor@GrbTrimeshCookerHelper@physx@@@shdfnd@3@@shdfnd@2@AEAV?$Array@USharpEdgeRange@GrbTrimeshCookerHelper@physx@@V?$ReflectionAllocator@USharpEdgeRange@GrbTrimeshCookerHelper@physx@@@shdfnd@3@@42@PEBUuint3@2@PEBUuint4@2@II@Z 0000000180039e70     TriangleMeshBuilder.obj
 0004:00000e7c       $pdata$1$?buildVertexConnectionNew_p1@GrbTrimeshCookerHelper@physx@@YAIAEAV?$Array@USortedNeighbor@GrbTrimeshCookerHelper@physx@@V?$ReflectionAllocator@USortedNeighbor@GrbTrimeshCookerHelper@physx@@@shdfnd@3@@shdfnd@2@AEAV?$Array@USharpEdgeRange@GrbTrimeshCookerHelper@physx@@V?$ReflectionAllocator@USharpEdgeRange@GrbTrimeshCookerHelper@physx@@@shdfnd@3@@42@PEBUuint3@2@PEBUuint4@2@II@Z 0000000180039e7c     TriangleMeshBuilder.obj
 0004:00000e88       $pdata$2$?buildVertexConnectionNew_p1@GrbTrimeshCookerHelper@physx@@YAIAEAV?$Array@USortedNeighbor@GrbTrimeshCookerHelper@physx@@V?$ReflectionAllocator@USortedNeighbor@GrbTrimeshCookerHelper@physx@@@shdfnd@3@@shdfnd@2@AEAV?$Array@USharpEdgeRange@GrbTrimeshCookerHelper@physx@@V?$ReflectionAllocator@USharpEdgeRange@GrbTrimeshCookerHelper@physx@@@shdfnd@3@@42@PEBUuint3@2@PEBUuint4@2@II@Z 0000000180039e88     TriangleMeshBuilder.obj
 0004:00000e94       $pdata$?buildVertexConnectionNew_p2@GrbTrimeshCookerHelper@physx@@YAXPEAI00AEAV?$Array@USortedNeighbor@GrbTrimeshCookerHelper@physx@@V?$ReflectionAllocator@USortedNeighbor@GrbTrimeshCookerHelper@physx@@@shdfnd@3@@shdfnd@2@AEAV?$Array@USharpEdgeRange@GrbTrimeshCookerHelper@physx@@V?$ReflectionAllocator@USharpEdgeRange@GrbTrimeshCookerHelper@physx@@@shdfnd@3@@42@I@Z 0000000180039e94     TriangleMeshBuilder.obj
 0004:00000ea0       $pdata$2$?buildVertexConnectionNew_p2@GrbTrimeshCookerHelper@physx@@YAXPEAI00AEAV?$Array@USortedNeighbor@GrbTrimeshCookerHelper@physx@@V?$ReflectionAllocator@USortedNeighbor@GrbTrimeshCookerHelper@physx@@@shdfnd@3@@shdfnd@2@AEAV?$Array@USharpEdgeRange@GrbTrimeshCookerHelper@physx@@V?$ReflectionAllocator@USharpEdgeRange@GrbTrimeshCookerHelper@physx@@@shdfnd@3@@42@I@Z 0000000180039ea0     TriangleMeshBuilder.obj
 0004:00000eac       $pdata$3$?buildVertexConnectionNew_p2@GrbTrimeshCookerHelper@physx@@YAXPEAI00AEAV?$Array@USortedNeighbor@GrbTrimeshCookerHelper@physx@@V?$ReflectionAllocator@USortedNeighbor@GrbTrimeshCookerHelper@physx@@@shdfnd@3@@shdfnd@2@AEAV?$Array@USharpEdgeRange@GrbTrimeshCookerHelper@physx@@V?$ReflectionAllocator@USharpEdgeRange@GrbTrimeshCookerHelper@physx@@@shdfnd@3@@42@I@Z 0000000180039eac     TriangleMeshBuilder.obj
 0004:00000eb8       $pdata$??$median3@USortedNeighbor@GrbTrimeshCookerHelper@physx@@$$CBU?$Less@USortedNeighbor@GrbTrimeshCookerHelper@physx@@@shdfnd@3@@internal@shdfnd@physx@@YAXPEAUSortedNeighbor@GrbTrimeshCookerHelper@2@HHAEBU?$Less@USortedNeighbor@GrbTrimeshCookerHelper@physx@@@12@@Z 0000000180039eb8     TriangleMeshBuilder.obj
 0004:00000ec4       $pdata$??$partition@UEdgeTriLookup@physx@@$$CBU?$Less@UEdgeTriLookup@physx@@@shdfnd@2@@internal@shdfnd@physx@@YAHPEAUEdgeTriLookup@2@HHAEBU?$Less@UEdgeTriLookup@physx@@@12@@Z 0000000180039ec4     TriangleMeshBuilder.obj
 0004:00000ed0       $pdata$??$partition@USortedNeighbor@GrbTrimeshCookerHelper@physx@@$$CBU?$Less@USortedNeighbor@GrbTrimeshCookerHelper@physx@@@shdfnd@3@@internal@shdfnd@physx@@YAHPEAUSortedNeighbor@GrbTrimeshCookerHelper@2@HHAEBU?$Less@USortedNeighbor@GrbTrimeshCookerHelper@physx@@@12@@Z 0000000180039ed0     TriangleMeshBuilder.obj
 0004:00000edc       $pdata$??$smallSort@UEdgeTriLookup@physx@@$$CBU?$Less@UEdgeTriLookup@physx@@@shdfnd@2@@internal@shdfnd@physx@@YAXPEAUEdgeTriLookup@2@HHAEBU?$Less@UEdgeTriLookup@physx@@@12@@Z 0000000180039edc     TriangleMeshBuilder.obj
 0004:00000ee8       $pdata$5$??$smallSort@UEdgeTriLookup@physx@@$$CBU?$Less@UEdgeTriLookup@physx@@@shdfnd@2@@internal@shdfnd@physx@@YAXPEAUEdgeTriLookup@2@HHAEBU?$Less@UEdgeTriLookup@physx@@@12@@Z 0000000180039ee8     TriangleMeshBuilder.obj
 0004:00000ef4       $pdata$6$??$smallSort@UEdgeTriLookup@physx@@$$CBU?$Less@UEdgeTriLookup@physx@@@shdfnd@2@@internal@shdfnd@physx@@YAXPEAUEdgeTriLookup@2@HHAEBU?$Less@UEdgeTriLookup@physx@@@12@@Z 0000000180039ef4     TriangleMeshBuilder.obj
 0004:00000f00       $pdata$??$smallSort@USortedNeighbor@GrbTrimeshCookerHelper@physx@@$$CBU?$Less@USortedNeighbor@GrbTrimeshCookerHelper@physx@@@shdfnd@3@@internal@shdfnd@physx@@YAXPEAUSortedNeighbor@GrbTrimeshCookerHelper@2@HHAEBU?$Less@USortedNeighbor@GrbTrimeshCookerHelper@physx@@@12@@Z 0000000180039f00     TriangleMeshBuilder.obj
 0004:00000f0c       $pdata$5$??$smallSort@USortedNeighbor@GrbTrimeshCookerHelper@physx@@$$CBU?$Less@USortedNeighbor@GrbTrimeshCookerHelper@physx@@@shdfnd@3@@internal@shdfnd@physx@@YAXPEAUSortedNeighbor@GrbTrimeshCookerHelper@2@HHAEBU?$Less@USortedNeighbor@GrbTrimeshCookerHelper@physx@@@12@@Z 0000000180039f0c     TriangleMeshBuilder.obj
 0004:00000f18       $pdata$6$??$smallSort@USortedNeighbor@GrbTrimeshCookerHelper@physx@@$$CBU?$Less@USortedNeighbor@GrbTrimeshCookerHelper@physx@@@shdfnd@3@@internal@shdfnd@physx@@YAXPEAUSortedNeighbor@GrbTrimeshCookerHelper@2@HHAEBU?$Less@USortedNeighbor@GrbTrimeshCookerHelper@physx@@@12@@Z 0000000180039f18     TriangleMeshBuilder.obj
 0004:00000f24       $pdata$??$sort@UEdgeTriLookup@physx@@@shdfnd@physx@@YAXPEAUEdgeTriLookup@1@I@Z 0000000180039f24     TriangleMeshBuilder.obj
 0004:00000f30       $pdata$??$sort@UEdgeTriLookup@physx@@U?$Less@UEdgeTriLookup@physx@@@shdfnd@2@V?$ReflectionAllocator@UEdgeTriLookup@physx@@@42@@shdfnd@physx@@YAXPEAUEdgeTriLookup@1@IAEBU?$Less@UEdgeTriLookup@physx@@@01@AEBV?$ReflectionAllocator@UEdgeTriLookup@physx@@@01@I@Z 0000000180039f30     TriangleMeshBuilder.obj
 0004:00000f3c       $pdata$??$sort@USortedNeighbor@GrbTrimeshCookerHelper@physx@@@shdfnd@physx@@YAXPEAUSortedNeighbor@GrbTrimeshCookerHelper@1@I@Z 0000000180039f3c     TriangleMeshBuilder.obj
 0004:00000f48       $pdata$??$sort@USortedNeighbor@GrbTrimeshCookerHelper@physx@@U?$Less@USortedNeighbor@GrbTrimeshCookerHelper@physx@@@shdfnd@3@V?$ReflectionAllocator@USortedNeighbor@GrbTrimeshCookerHelper@physx@@@53@@shdfnd@physx@@YAXPEAUSortedNeighbor@GrbTrimeshCookerHelper@1@IAEBU?$Less@USortedNeighbor@GrbTrimeshCookerHelper@physx@@@01@AEBV?$ReflectionAllocator@USortedNeighbor@GrbTrimeshCookerHelper@physx@@@01@I@Z 0000000180039f48     TriangleMeshBuilder.obj
 0004:00000f54       $pdata$??0BV4TriangleData@Gu@physx@@QEAA@XZ 0000000180039f54     TriangleMeshBuilder.obj
 0004:00000f60       $pdata$??1BV4TriangleData@Gu@physx@@UEAA@XZ 0000000180039f60     TriangleMeshBuilder.obj
 0004:00000f6c       $pdata$??1MeshDataBase@Gu@physx@@UEAA@XZ 0000000180039f6c     TriangleMeshBuilder.obj
 0004:00000f78       $pdata$??1RTreeTriangleData@Gu@physx@@UEAA@XZ 0000000180039f78     TriangleMeshBuilder.obj
 0004:00000f84       $pdata$0$??1RTreeTriangleData@Gu@physx@@UEAA@XZ 0000000180039f84     TriangleMeshBuilder.obj
 0004:00000f90       $pdata$1$??1RTreeTriangleData@Gu@physx@@UEAA@XZ 0000000180039f90     TriangleMeshBuilder.obj
 0004:00000f9c       $pdata$??1TriangleMeshData@Gu@physx@@UEAA@XZ 0000000180039f9c     TriangleMeshBuilder.obj
 0004:00000fa8       $pdata$??_GBV4TriangleData@Gu@physx@@UEAAPEAXI@Z 0000000180039fa8     TriangleMeshBuilder.obj
 0004:00000fb4       $pdata$??_GBV4TriangleMeshBuilder@physx@@UEAAPEAXI@Z 0000000180039fb4     TriangleMeshBuilder.obj
 0004:00000fc0       $pdata$??_GMeshDataBase@Gu@physx@@UEAAPEAXI@Z 0000000180039fc0     TriangleMeshBuilder.obj
 0004:00000fcc       $pdata$??_GRTreeCookerRemap@physx@@UEAAPEAXI@Z 0000000180039fcc     TriangleMeshBuilder.obj
 0004:00000fd8       $pdata$??_GRTreeTriangleData@Gu@physx@@UEAAPEAXI@Z 0000000180039fd8     TriangleMeshBuilder.obj
 0004:00000fe4       $pdata$0$??_GRTreeTriangleData@Gu@physx@@UEAAPEAXI@Z 0000000180039fe4     TriangleMeshBuilder.obj
 0004:00000ff0       $pdata$1$??_GRTreeTriangleData@Gu@physx@@UEAAPEAXI@Z 0000000180039ff0     TriangleMeshBuilder.obj
 0004:00000ffc       $pdata$??_GRTreeTriangleMeshBuilder@physx@@UEAAPEAXI@Z 0000000180039ffc     TriangleMeshBuilder.obj
 0004:00001008       $pdata$??_GRemapCallback@RTreeCooker@physx@@UEAAPEAXI@Z 000000018003a008     TriangleMeshBuilder.obj
 0004:00001014       $pdata$??_GTriangleMeshBuilder@physx@@UEAAPEAXI@Z 000000018003a014     TriangleMeshBuilder.obj
 0004:00001020       $pdata$??_GTriangleMeshData@Gu@physx@@UEAAPEAXI@Z 000000018003a020     TriangleMeshBuilder.obj
 0004:0000102c       $pdata$?allocate@?$ReflectionAllocator@USharpEdgeRange@GrbTrimeshCookerHelper@physx@@@shdfnd@physx@@QEAAPEAX_KPEBDH@Z 000000018003a02c     TriangleMeshBuilder.obj
 0004:00001038       $pdata$0$?allocate@?$ReflectionAllocator@USharpEdgeRange@GrbTrimeshCookerHelper@physx@@@shdfnd@physx@@QEAAPEAX_KPEBDH@Z 000000018003a038     TriangleMeshBuilder.obj
 0004:00001044       $pdata$1$?allocate@?$ReflectionAllocator@USharpEdgeRange@GrbTrimeshCookerHelper@physx@@@shdfnd@physx@@QEAAPEAX_KPEBDH@Z 000000018003a044     TriangleMeshBuilder.obj
 0004:00001050       $pdata$?allocate@?$ReflectionAllocator@USortedNeighbor@GrbTrimeshCookerHelper@physx@@@shdfnd@physx@@QEAAPEAX_KPEBDH@Z 000000018003a050     TriangleMeshBuilder.obj
 0004:0000105c       $pdata$0$?allocate@?$ReflectionAllocator@USortedNeighbor@GrbTrimeshCookerHelper@physx@@@shdfnd@physx@@QEAAPEAX_KPEBDH@Z 000000018003a05c     TriangleMeshBuilder.obj
 0004:00001068       $pdata$1$?allocate@?$ReflectionAllocator@USortedNeighbor@GrbTrimeshCookerHelper@physx@@@shdfnd@physx@@QEAAPEAX_KPEBDH@Z 000000018003a068     TriangleMeshBuilder.obj
 0004:00001074       $pdata$?allocateMaterials@TriangleMeshData@Gu@physx@@QEAAPEAGXZ 000000018003a074     TriangleMeshBuilder.obj
 0004:00001080       $pdata$0$?allocateMaterials@TriangleMeshData@Gu@physx@@QEAAPEAGXZ 000000018003a080     TriangleMeshBuilder.obj
 0004:0000108c       $pdata$1$?allocateMaterials@TriangleMeshData@Gu@physx@@QEAAPEAGXZ 000000018003a08c     TriangleMeshBuilder.obj
 0004:00001098       $pdata$?allocateTriangles@TriangleMeshData@Gu@physx@@QEAAPEAXI_NI@Z 000000018003a098     TriangleMeshBuilder.obj
 0004:000010a4       $pdata$?allocateVertices@MeshDataBase@Gu@physx@@QEAAPEAVPxVec3@3@I@Z 000000018003a0a4     TriangleMeshBuilder.obj
 0004:000010b0       $pdata$?buildAdjacencies@physx@@YAXPEAUuint4@1@PEAVPxVec3@1@PEBV31@PEBUuint3@1@I@Z 000000018003a0b0     TriangleMeshBuilder.obj
 0004:000010bc       $pdata$7$?buildAdjacencies@physx@@YAXPEAUuint4@1@PEAVPxVec3@1@PEBV31@PEBUuint3@1@I@Z 000000018003a0bc     TriangleMeshBuilder.obj
 0004:000010c8       $pdata$10$?buildAdjacencies@physx@@YAXPEAUuint4@1@PEAVPxVec3@1@PEBV31@PEBUuint3@1@I@Z 000000018003a0c8     TriangleMeshBuilder.obj
 0004:000010d4       $pdata$11$?buildAdjacencies@physx@@YAXPEAUuint4@1@PEAVPxVec3@1@PEBV31@PEBUuint3@1@I@Z 000000018003a0d4     TriangleMeshBuilder.obj
 0004:000010e0       $pdata$12$?buildAdjacencies@physx@@YAXPEAUuint4@1@PEAVPxVec3@1@PEBV31@PEBUuint3@1@I@Z 000000018003a0e0     TriangleMeshBuilder.obj
 0004:000010ec       $pdata$?findAdjacent@physx@@YAIPEBVPxVec3@1@0PEBUuint3@1@IIIAEBVPxPlane@1@PEAUEdgeTriLookup@1@I@Z 000000018003a0ec     TriangleMeshBuilder.obj
 0004:000010f8       $pdata$?growAndPushBack@?$Array@USortedNeighbor@GrbTrimeshCookerHelper@physx@@V?$ReflectionAllocator@USortedNeighbor@GrbTrimeshCookerHelper@physx@@@shdfnd@3@@shdfnd@physx@@IEAAAEAUSortedNeighbor@GrbTrimeshCookerHelper@3@AEBU453@@Z 000000018003a0f8     TriangleMeshBuilder.obj
 0004:00001104       $pdata$?recreate@?$Array@USharpEdgeRange@GrbTrimeshCookerHelper@physx@@V?$ReflectionAllocator@USharpEdgeRange@GrbTrimeshCookerHelper@physx@@@shdfnd@3@@shdfnd@physx@@IEAAXI@Z 000000018003a104     TriangleMeshBuilder.obj
 0004:00001110       $pdata$?recreate@?$Array@USortedNeighbor@GrbTrimeshCookerHelper@physx@@V?$ReflectionAllocator@USortedNeighbor@GrbTrimeshCookerHelper@physx@@@shdfnd@3@@shdfnd@physx@@IEAAXI@Z 000000018003a110     TriangleMeshBuilder.obj
 0004:0000111c       $pdata$?resize@?$Array@USharpEdgeRange@GrbTrimeshCookerHelper@physx@@V?$ReflectionAllocator@USharpEdgeRange@GrbTrimeshCookerHelper@physx@@@shdfnd@3@@shdfnd@physx@@QEAAXIAEBUSharpEdgeRange@GrbTrimeshCookerHelper@3@@Z 000000018003a11c     TriangleMeshBuilder.obj
 0004:00001128       $pdata$?resizeUninitialized@?$Array@USortedNeighbor@GrbTrimeshCookerHelper@physx@@V?$ReflectionAllocator@USortedNeighbor@GrbTrimeshCookerHelper@physx@@@shdfnd@3@@shdfnd@physx@@QEAAXI@Z 000000018003a128     TriangleMeshBuilder.obj
 0004:00001134       $pdata$?precompute@BigConvexDataBuilder@physx@@QEAA_NI@Z 000000018003a134     BigConvexDataBuilder.obj
 0004:00001140       $pdata$12$?precompute@BigConvexDataBuilder@physx@@QEAA_NI@Z 000000018003a140     BigConvexDataBuilder.obj
 0004:0000114c       $pdata$13$?precompute@BigConvexDataBuilder@physx@@QEAA_NI@Z 000000018003a14c     BigConvexDataBuilder.obj
 0004:00001158       $pdata$?initialize@BigConvexDataBuilder@physx@@QEAA_NXZ 000000018003a158     BigConvexDataBuilder.obj
 0004:00001164       $pdata$0$?initialize@BigConvexDataBuilder@physx@@QEAA_NXZ 000000018003a164     BigConvexDataBuilder.obj
 0004:00001170       $pdata$1$?initialize@BigConvexDataBuilder@physx@@QEAA_NXZ 000000018003a170     BigConvexDataBuilder.obj
 0004:0000117c       $pdata$?save@BigConvexDataBuilder@physx@@QEBA_NAEAVPxOutputStream@2@_N@Z 000000018003a17c     BigConvexDataBuilder.obj
 0004:00001188       $pdata$?computeValencies@BigConvexDataBuilder@physx@@QEAA_NAEBVConvexHullBuilder@2@@Z 000000018003a188     BigConvexDataBuilder.obj
 0004:00001194       $pdata$2$?computeValencies@BigConvexDataBuilder@physx@@QEAA_NAEBVConvexHullBuilder@2@@Z 000000018003a194     BigConvexDataBuilder.obj
 0004:000011a0       $pdata$3$?computeValencies@BigConvexDataBuilder@physx@@QEAA_NAEBVConvexHullBuilder@2@@Z 000000018003a1a0     BigConvexDataBuilder.obj
 0004:000011ac       $pdata$?saveValencies@BigConvexDataBuilder@physx@@QEBA_NAEAVPxOutputStream@2@_N@Z 000000018003a1ac     BigConvexDataBuilder.obj
 0004:000011b8       $pdata$1$?saveValencies@BigConvexDataBuilder@physx@@QEBA_NAEAVPxOutputStream@2@_N@Z 000000018003a1b8     BigConvexDataBuilder.obj
 0004:000011c4       $pdata$2$?saveValencies@BigConvexDataBuilder@physx@@QEBA_NAEAVPxOutputStream@2@_N@Z 000000018003a1c4     BigConvexDataBuilder.obj
 0004:000011d0       $pdata$3$?saveValencies@BigConvexDataBuilder@physx@@QEBA_NAEAVPxOutputStream@2@_N@Z 000000018003a1d0     BigConvexDataBuilder.obj
 0004:000011dc       $pdata$4$?saveValencies@BigConvexDataBuilder@physx@@QEBA_NAEAVPxOutputStream@2@_N@Z 000000018003a1dc     BigConvexDataBuilder.obj
 0004:000011e8       $pdata$??1ConvexHullBuilder@physx@@QEAA@XZ 000000018003a1e8     ConvexHullBuilder.obj
 0004:000011f4       $pdata$?init@ConvexHullBuilder@physx@@QEAA_NIPEBVPxVec3@2@PEBIIIPEBUPxHullPolygon@2@_NPEAVConvexHullLib@2@@Z 000000018003a1f4     ConvexHullBuilder.obj
 0004:00001200       $pdata$0$?init@ConvexHullBuilder@physx@@QEAA_NIPEBVPxVec3@2@PEBIIIPEBUPxHullPolygon@2@_NPEAVConvexHullLib@2@@Z 000000018003a200     ConvexHullBuilder.obj
 0004:0000120c       $pdata$1$?init@ConvexHullBuilder@physx@@QEAA_NIPEBVPxVec3@2@PEBIIIPEBUPxHullPolygon@2@_NPEAVConvexHullLib@2@@Z 000000018003a20c     ConvexHullBuilder.obj
 0004:00001218       $pdata$2$?init@ConvexHullBuilder@physx@@QEAA_NIPEBVPxVec3@2@PEBIIIPEBUPxHullPolygon@2@_NPEAVConvexHullLib@2@@Z 000000018003a218     ConvexHullBuilder.obj
 0004:00001224       $pdata$4$?init@ConvexHullBuilder@physx@@QEAA_NIPEBVPxVec3@2@PEBIIIPEBUPxHullPolygon@2@_NPEAVConvexHullLib@2@@Z 000000018003a224     ConvexHullBuilder.obj
 0004:00001230       $pdata$5$?init@ConvexHullBuilder@physx@@QEAA_NIPEBVPxVec3@2@PEBIIIPEBUPxHullPolygon@2@_NPEAVConvexHullLib@2@@Z 000000018003a230     ConvexHullBuilder.obj
 0004:0000123c       $pdata$6$?init@ConvexHullBuilder@physx@@QEAA_NIPEBVPxVec3@2@PEBIIIPEBUPxHullPolygon@2@_NPEAVConvexHullLib@2@@Z 000000018003a23c     ConvexHullBuilder.obj
 0004:00001248       $pdata$?save@ConvexHullBuilder@physx@@QEBA_NAEAVPxOutputStream@2@_N@Z 000000018003a248     ConvexHullBuilder.obj
 0004:00001254       $pdata$0$?save@ConvexHullBuilder@physx@@QEBA_NAEAVPxOutputStream@2@_N@Z 000000018003a254     ConvexHullBuilder.obj
 0004:00001260       $pdata$3$?save@ConvexHullBuilder@physx@@QEBA_NAEAVPxOutputStream@2@_N@Z 000000018003a260     ConvexHullBuilder.obj
 0004:0000126c       $pdata$4$?save@ConvexHullBuilder@physx@@QEBA_NAEAVPxOutputStream@2@_N@Z 000000018003a26c     ConvexHullBuilder.obj
 0004:00001278       $pdata$5$?save@ConvexHullBuilder@physx@@QEBA_NAEAVPxOutputStream@2@_N@Z 000000018003a278     ConvexHullBuilder.obj
 0004:00001284       $pdata$?copy@ConvexHullBuilder@physx@@QEAA_NAEAUConvexHullData@Gu@2@AEAI@Z 000000018003a284     ConvexHullBuilder.obj
 0004:00001290       $pdata$?createEdgeList@ConvexHullBuilder@physx@@QEAA_N_NI@Z 000000018003a290     ConvexHullBuilder.obj
 0004:0000129c       $pdata$5$?createEdgeList@ConvexHullBuilder@physx@@QEAA_N_NI@Z 000000018003a29c     ConvexHullBuilder.obj
 0004:000012a8       $pdata$7$?createEdgeList@ConvexHullBuilder@physx@@QEAA_N_NI@Z 000000018003a2a8     ConvexHullBuilder.obj
 0004:000012b4       $pdata$?checkHullPolygons@ConvexHullBuilder@physx@@QEBA_NXZ 000000018003a2b4     ConvexHullBuilder.obj
 0004:000012c0       $pdata$11$?checkHullPolygons@ConvexHullBuilder@physx@@QEBA_NXZ 000000018003a2c0     ConvexHullBuilder.obj
 0004:000012cc       $pdata$12$?checkHullPolygons@ConvexHullBuilder@physx@@QEBA_NXZ 000000018003a2cc     ConvexHullBuilder.obj
 0004:000012d8       $pdata$?calculateVertexMapTable@ConvexHullBuilder@physx@@QEAA_NI_N@Z 000000018003a2d8     ConvexHullBuilder.obj
 0004:000012e4       $pdata$2$?calculateVertexMapTable@ConvexHullBuilder@physx@@QEAA_NI_N@Z 000000018003a2e4     ConvexHullBuilder.obj
 0004:000012f0       $pdata$3$?calculateVertexMapTable@ConvexHullBuilder@physx@@QEAA_NI_N@Z 000000018003a2f0     ConvexHullBuilder.obj
 0004:000012fc       $pdata$?computeGeomCenter@ConvexHullBuilder@physx@@IEBA_NAEAVPxVec3@2@IPEAUHullTriangleData@2@@Z 000000018003a2fc     ConvexHullBuilder.obj
 0004:00001308       $pdata$0$?computeGeomCenter@ConvexHullBuilder@physx@@IEBA_NAEAVPxVec3@2@IPEAUHullTriangleData@2@@Z 000000018003a308     ConvexHullBuilder.obj
 0004:00001314       $pdata$7$?computeGeomCenter@ConvexHullBuilder@physx@@IEBA_NAEAVPxVec3@2@IPEAUHullTriangleData@2@@Z 000000018003a314     ConvexHullBuilder.obj
 0004:00001320       $pdata$8$?computeGeomCenter@ConvexHullBuilder@physx@@IEBA_NAEAVPxVec3@2@IPEAUHullTriangleData@2@@Z 000000018003a320     ConvexHullBuilder.obj
 0004:0000132c       $pdata$9$?computeGeomCenter@ConvexHullBuilder@physx@@IEBA_NAEAVPxVec3@2@IPEAUHullTriangleData@2@@Z 000000018003a32c     ConvexHullBuilder.obj
 0004:00001338       $pdata$??1ConvexHullLib@physx@@UEAA@XZ 000000018003a338     ConvexHullLib.obj
 0004:00001344       $pdata$?cleanupVertices@ConvexHullLib@physx@@IEAA_NIPEBVPxVec3@2@IAEAIPEAV32@AEAV32@3@Z 000000018003a344     ConvexHullLib.obj
 0004:00001350       $pdata$8$?cleanupVertices@ConvexHullLib@physx@@IEAA_NIPEBVPxVec3@2@IAEAIPEAV32@AEAV32@3@Z 000000018003a350     ConvexHullLib.obj
 0004:0000135c       $pdata$13$?cleanupVertices@ConvexHullLib@physx@@IEAA_NIPEBVPxVec3@2@IAEAIPEAV32@AEAV32@3@Z 000000018003a35c     ConvexHullLib.obj
 0004:00001368       $pdata$14$?cleanupVertices@ConvexHullLib@physx@@IEAA_NIPEBVPxVec3@2@IAEAIPEAV32@AEAV32@3@Z 000000018003a368     ConvexHullLib.obj
 0004:00001374       $pdata$15$?cleanupVertices@ConvexHullLib@physx@@IEAA_NIPEBVPxVec3@2@IAEAIPEAV32@AEAV32@3@Z 000000018003a374     ConvexHullLib.obj
 0004:00001380       $pdata$?shiftAndcleanupVertices@ConvexHullLib@physx@@IEAA_NIPEBVPxVec3@2@IAEAIPEAV32@AEAV32@3@Z 000000018003a380     ConvexHullLib.obj
 0004:0000138c       $pdata$5$?shiftAndcleanupVertices@ConvexHullLib@physx@@IEAA_NIPEBVPxVec3@2@IAEAIPEAV32@AEAV32@3@Z 000000018003a38c     ConvexHullLib.obj
 0004:00001398       $pdata$6$?shiftAndcleanupVertices@ConvexHullLib@physx@@IEAA_NIPEBVPxVec3@2@IAEAIPEAV32@AEAV32@3@Z 000000018003a398     ConvexHullLib.obj
 0004:000013a4       $pdata$8$?shiftAndcleanupVertices@ConvexHullLib@physx@@IEAA_NIPEBVPxVec3@2@IAEAIPEAV32@AEAV32@3@Z 000000018003a3a4     ConvexHullLib.obj
 0004:000013b0       $pdata$9$?shiftAndcleanupVertices@ConvexHullLib@physx@@IEAA_NIPEBVPxVec3@2@IAEAIPEAV32@AEAV32@3@Z 000000018003a3b0     ConvexHullLib.obj
 0004:000013bc       $pdata$10$?shiftAndcleanupVertices@ConvexHullLib@physx@@IEAA_NIPEBVPxVec3@2@IAEAIPEAV32@AEAV32@3@Z 000000018003a3bc     ConvexHullLib.obj
 0004:000013c8       $pdata$?swapLargestFace@ConvexHullLib@physx@@IEAAXAEAVPxConvexMeshDesc@2@@Z 000000018003a3c8     ConvexHullLib.obj
 0004:000013d4       $pdata$2$?swapLargestFace@ConvexHullLib@physx@@IEAAXAEAVPxConvexMeshDesc@2@@Z 000000018003a3d4     ConvexHullLib.obj
 0004:000013e0       $pdata$3$?swapLargestFace@ConvexHullLib@physx@@IEAAXAEAVPxConvexMeshDesc@2@@Z 000000018003a3e0     ConvexHullLib.obj
 0004:000013ec       $pdata$??_GConvexHullLib@physx@@UEAAPEAXI@Z 000000018003a3ec     ConvexHullLib.obj
 0004:000013f8       $pdata$?checkPointsAABBValidity@local@@YA_NIPEBVPxVec3@physx@@IMMAEAV23@1AEAIPEAV23@_N@Z 000000018003a3f8     ConvexHullLib.obj
 0004:00001404       $pdata$2$?checkPointsAABBValidity@local@@YA_NIPEBVPxVec3@physx@@IMMAEAV23@1AEAIPEAV23@_N@Z 000000018003a404     ConvexHullLib.obj
 0004:00001410       $pdata$3$?checkPointsAABBValidity@local@@YA_NIPEBVPxVec3@physx@@IMMAEAV23@1AEAIPEAV23@_N@Z 000000018003a410     ConvexHullLib.obj
 0004:0000141c       $pdata$4$?checkPointsAABBValidity@local@@YA_NIPEBVPxVec3@physx@@IMMAEAV23@1AEAIPEAV23@_N@Z 000000018003a41c     ConvexHullLib.obj
 0004:00001428       $pdata$5$?checkPointsAABBValidity@local@@YA_NIPEBVPxVec3@physx@@IMMAEAV23@1AEAIPEAV23@_N@Z 000000018003a428     ConvexHullLib.obj
 0004:00001434       $pdata$??0ConvexHull@physx@@QEAA@AEBVPxVec3@1@0AEBV?$Array@VPxPlane@physx@@V?$ReflectionAllocator@VPxPlane@physx@@@shdfnd@2@@shdfnd@1@@Z 000000018003a434     ConvexHullUtils.obj
 0004:00001440       $pdata$??0ConvexHull@physx@@QEAA@AEBVPxVec3@1@AEBVPxTransform@1@AEBV?$Array@VPxPlane@physx@@V?$ReflectionAllocator@VPxPlane@physx@@@shdfnd@2@@shdfnd@1@@Z 000000018003a440     ConvexHullUtils.obj
 0004:0000144c       $pdata$?findCandidatePlane@ConvexHull@physx@@QEBAHMM@Z 000000018003a44c     ConvexHullUtils.obj
 0004:00001458       $pdata$7$?findCandidatePlane@ConvexHull@physx@@QEBAHMM@Z 000000018003a458     ConvexHullUtils.obj
 0004:00001464       $pdata$8$?findCandidatePlane@ConvexHull@physx@@QEBAHMM@Z 000000018003a464     ConvexHullUtils.obj
 0004:00001470       $pdata$?assertIntact@ConvexHull@physx@@QEBA_NM@Z 000000018003a470     ConvexHullUtils.obj
 0004:0000147c       $pdata$8$?assertIntact@ConvexHull@physx@@QEBA_NM@Z 000000018003a47c     ConvexHullUtils.obj
 0004:00001488       $pdata$9$?assertIntact@ConvexHull@physx@@QEBA_NM@Z 000000018003a488     ConvexHullUtils.obj
 0004:00001494       $pdata$10$?assertIntact@ConvexHull@physx@@QEBA_NM@Z 000000018003a494     ConvexHullUtils.obj
 0004:000014a0       $pdata$?maxNumVertsPerFace@ConvexHull@physx@@QEBAIXZ 000000018003a4a0     ConvexHullUtils.obj
 0004:000014ac       $pdata$0$?maxNumVertsPerFace@ConvexHull@physx@@QEBAIXZ 000000018003a4ac     ConvexHullUtils.obj
 0004:000014b8       $pdata$1$?maxNumVertsPerFace@ConvexHull@physx@@QEBAIXZ 000000018003a4b8     ConvexHullUtils.obj
 0004:000014c4       $pdata$?convexHullCrop@physx@@YAPEAVConvexHull@1@AEBV21@AEBVPxPlane@1@M@Z 000000018003a4c4     ConvexHullUtils.obj
 0004:000014d0       $pdata$6$?convexHullCrop@physx@@YAPEAVConvexHull@1@AEBV21@AEBVPxPlane@1@M@Z 000000018003a4d0     ConvexHullUtils.obj
 0004:000014dc       $pdata$7$?convexHullCrop@physx@@YAPEAVConvexHull@1@AEBV21@AEBVPxPlane@1@M@Z 000000018003a4dc     ConvexHullUtils.obj
 0004:000014e8       $pdata$8$?convexHullCrop@physx@@YAPEAVConvexHull@1@AEBV21@AEBVPxPlane@1@M@Z 000000018003a4e8     ConvexHullUtils.obj
 0004:000014f4       $pdata$9$?convexHullCrop@physx@@YAPEAVConvexHull@1@AEBV21@AEBVPxPlane@1@M@Z 000000018003a4f4     ConvexHullUtils.obj
 0004:00001500       $pdata$11$?convexHullCrop@physx@@YAPEAVConvexHull@1@AEBV21@AEBVPxPlane@1@M@Z 000000018003a500     ConvexHullUtils.obj
 0004:0000150c       $pdata$12$?convexHullCrop@physx@@YAPEAVConvexHull@1@AEBV21@AEBVPxPlane@1@M@Z 000000018003a50c     ConvexHullUtils.obj
 0004:00001518       $pdata$13$?convexHullCrop@physx@@YAPEAVConvexHull@1@AEBV21@AEBVPxPlane@1@M@Z 000000018003a518     ConvexHullUtils.obj
 0004:00001524       $pdata$?computeOBBFromConvex@physx@@YA_NAEBVPxConvexMeshDesc@1@AEAVPxVec3@1@AEAVPxTransform@1@@Z 000000018003a524     ConvexHullUtils.obj
 0004:00001530       $pdata$6$?computeOBBFromConvex@physx@@YA_NAEBVPxConvexMeshDesc@1@AEAVPxVec3@1@AEAVPxTransform@1@@Z 000000018003a530     ConvexHullUtils.obj
 0004:0000153c       $pdata$7$?computeOBBFromConvex@physx@@YA_NAEBVPxConvexMeshDesc@1@AEAVPxVec3@1@AEAVPxTransform@1@@Z 000000018003a53c     ConvexHullUtils.obj
 0004:00001548       $pdata$?computeOBBSIMD@local@@YAXIPEBT__m128@@AEAT2@AEBT2@1@Z 000000018003a548     ConvexHullUtils.obj
 0004:00001554       $pdata$5$?computeOBBSIMD@local@@YAXIPEBT__m128@@AEAT2@AEBT2@1@Z 000000018003a554     ConvexHullUtils.obj
 0004:00001560       $pdata$6$?computeOBBSIMD@local@@YAXIPEBT__m128@@AEAT2@AEBT2@1@Z 000000018003a560     ConvexHullUtils.obj
 0004:0000156c       $pdata$??0PxQuat@physx@@QEAA@AEBVPxMat33@1@@Z 000000018003a56c     ConvexHullUtils.obj
 0004:00001578       $pdata$?allocate@?$ReflectionAllocator@VHalfEdge@ConvexHull@physx@@@shdfnd@physx@@QEAAPEAX_KPEBDH@Z 000000018003a578     ConvexHullUtils.obj
 0004:00001584       $pdata$0$?allocate@?$ReflectionAllocator@VHalfEdge@ConvexHull@physx@@@shdfnd@physx@@QEAAPEAX_KPEBDH@Z 000000018003a584     ConvexHullUtils.obj
 0004:00001590       $pdata$1$?allocate@?$ReflectionAllocator@VHalfEdge@ConvexHull@physx@@@shdfnd@physx@@QEAAPEAX_KPEBDH@Z 000000018003a590     ConvexHullUtils.obj
 0004:0000159c       $pdata$?allocate@?$ReflectionAllocator@VPxPlane@physx@@@shdfnd@physx@@QEAAPEAX_KPEBDH@Z 000000018003a59c     ConvexHullUtils.obj
 0004:000015a8       $pdata$0$?allocate@?$ReflectionAllocator@VPxPlane@physx@@@shdfnd@physx@@QEAAPEAX_KPEBDH@Z 000000018003a5a8     ConvexHullUtils.obj
 0004:000015b4       $pdata$1$?allocate@?$ReflectionAllocator@VPxPlane@physx@@@shdfnd@physx@@QEAAPEAX_KPEBDH@Z 000000018003a5b4     ConvexHullUtils.obj
 0004:000015c0       $pdata$?computeAABBExtent@Box@Gu@physx@@QEBA?AVPxVec3@3@XZ 000000018003a5c0     ConvexHullUtils.obj
 0004:000015cc       $pdata$?computeBoxPoints@Box@Gu@physx@@QEBAXPEIAVPxVec3@3@@Z 000000018003a5cc     ConvexHullUtils.obj
 0004:000015d8       $pdata$?copy@?$Array@VPxPlane@physx@@V?$ReflectionAllocator@VPxPlane@physx@@@shdfnd@2@@shdfnd@physx@@KAXPEAVPxPlane@3@0PEBV43@@Z 000000018003a5d8     ConvexHullUtils.obj
 0004:000015e4       $pdata$0$?copy@?$Array@VPxPlane@physx@@V?$ReflectionAllocator@VPxPlane@physx@@@shdfnd@2@@shdfnd@physx@@KAXPEAVPxPlane@3@0PEBV43@@Z 000000018003a5e4     ConvexHullUtils.obj
 0004:000015f0       $pdata$1$?copy@?$Array@VPxPlane@physx@@V?$ReflectionAllocator@VPxPlane@physx@@@shdfnd@2@@shdfnd@physx@@KAXPEAVPxPlane@3@0PEBV43@@Z 000000018003a5f0     ConvexHullUtils.obj
 0004:000015fc       $pdata$?copyHull@ConvexHull@physx@@QEAAXAEBV12@@Z 000000018003a5fc     ConvexHullUtils.obj
 0004:00001608       $pdata$?getInverse@PxMat33@physx@@QEBA?BV12@XZ 000000018003a608     ConvexHullUtils.obj
 0004:00001614       $pdata$5$?getInverse@PxMat33@physx@@QEBA?BV12@XZ 000000018003a614     ConvexHullUtils.obj
 0004:00001620       $pdata$6$?getInverse@PxMat33@physx@@QEBA?BV12@XZ 000000018003a620     ConvexHullUtils.obj
 0004:0000162c       $pdata$?getTransform@Box@Gu@physx@@QEBA?AVPxTransform@3@XZ 000000018003a62c     ConvexHullUtils.obj
 0004:00001638       $pdata$?growAndPushBack@?$Array@VHalfEdge@ConvexHull@physx@@V?$ReflectionAllocator@VHalfEdge@ConvexHull@physx@@@shdfnd@3@@shdfnd@physx@@IEAAAEAVHalfEdge@ConvexHull@3@AEBV453@@Z 000000018003a638     ConvexHullUtils.obj
 0004:00001644       $pdata$?growAndPushBack@?$Array@VPxPlane@physx@@V?$ReflectionAllocator@VPxPlane@physx@@@shdfnd@2@@shdfnd@physx@@IEAAAEAVPxPlane@3@AEBV43@@Z 000000018003a644     ConvexHullUtils.obj
 0004:00001650       $pdata$?recreate@?$Array@VHalfEdge@ConvexHull@physx@@V?$ReflectionAllocator@VHalfEdge@ConvexHull@physx@@@shdfnd@3@@shdfnd@physx@@IEAAXI@Z 000000018003a650     ConvexHullUtils.obj
 0004:0000165c       $pdata$?recreate@?$Array@VPxPlane@physx@@V?$ReflectionAllocator@VPxPlane@physx@@@shdfnd@2@@shdfnd@physx@@IEAAXI@Z 000000018003a65c     ConvexHullUtils.obj
 0004:00001668       $pdata$?resize@?$Array@VHalfEdge@ConvexHull@physx@@V?$ReflectionAllocator@VHalfEdge@ConvexHull@physx@@@shdfnd@3@@shdfnd@physx@@QEAAXIAEBVHalfEdge@ConvexHull@3@@Z 000000018003a668     ConvexHullUtils.obj
 0004:00001674       $pdata$?resize@?$Array@VPxPlane@physx@@V?$ReflectionAllocator@VPxPlane@physx@@@shdfnd@2@@shdfnd@physx@@QEAAXIAEBVPxPlane@3@@Z 000000018003a674     ConvexHullUtils.obj
 0004:00001680       $pdata$?resize@?$Array@VPxVec3@physx@@V?$ReflectionAllocator@VPxVec3@physx@@@shdfnd@2@@shdfnd@physx@@QEAAXIAEBVPxVec3@3@@Z 000000018003a680     ConvexHullUtils.obj
 0004:0000168c       $pdata$?rotate@Box@Gu@physx@@QEBA?AVPxVec3@3@AEBV43@@Z 000000018003a68c     ConvexHullUtils.obj
 0004:00001698       $pdata$?rotateInv@Box@Gu@physx@@QEBA?AVPxVec3@3@AEBV43@@Z 000000018003a698     ConvexHullUtils.obj
 0004:000016a4       $pdata$?transform@Box@Gu@physx@@QEBA?AVPxVec3@3@AEBV43@@Z 000000018003a6a4     ConvexHullUtils.obj
 0004:000016b0       $pdata$??0ConvexMeshBuilder@physx@@QEAA@_N@Z 000000018003a6b0     ConvexMeshBuilder.obj
 0004:000016bc       $pdata$??1ConvexMeshBuilder@physx@@QEAA@XZ 000000018003a6bc     ConvexMeshBuilder.obj
 0004:000016c8       $pdata$?build@ConvexMeshBuilder@physx@@QEAA_NAEBVPxConvexMeshDesc@2@I_NPEAVConvexHullLib@2@@Z 000000018003a6c8     ConvexMeshBuilder.obj
 0004:000016d4       $pdata$3$?build@ConvexMeshBuilder@physx@@QEAA_NAEBVPxConvexMeshDesc@2@I_NPEAVConvexHullLib@2@@Z 000000018003a6d4     ConvexMeshBuilder.obj
 0004:000016e0       $pdata$4$?build@ConvexMeshBuilder@physx@@QEAA_NAEBVPxConvexMeshDesc@2@I_NPEAVConvexHullLib@2@@Z 000000018003a6e0     ConvexMeshBuilder.obj
 0004:000016ec       $pdata$?save@ConvexMeshBuilder@physx@@QEBA_NAEAVPxOutputStream@2@_N@Z 000000018003a6ec     ConvexMeshBuilder.obj
 0004:000016f8       $pdata$?copy@ConvexMeshBuilder@physx@@QEAA_NAEAUConvexHullData@Gu@2@AEAI@Z 000000018003a6f8     ConvexMeshBuilder.obj
 0004:00001704       $pdata$?loadConvexHull@ConvexMeshBuilder@physx@@QEAA_NAEBVPxConvexMeshDesc@2@PEAVConvexHullLib@2@@Z 000000018003a704     ConvexMeshBuilder.obj
 0004:00001710       $pdata$?computeHullPolygons@ConvexMeshBuilder@physx@@QEAA_NAEBIPEBVPxVec3@2@0PEBIAEAVPxAllocatorCallback@2@AEAIAEAPEAV32@4AEAPEAI4AEAPEAUPxHullPolygon@2@@Z 000000018003a710     ConvexMeshBuilder.obj
 0004:0000171c       $pdata$3$?computeHullPolygons@ConvexMeshBuilder@physx@@QEAA_NAEBIPEBVPxVec3@2@0PEBIAEAVPxAllocatorCallback@2@AEAIAEAPEAV32@4AEAPEAI4AEAPEAUPxHullPolygon@2@@Z 000000018003a71c     ConvexMeshBuilder.obj
 0004:00001728       $pdata$4$?computeHullPolygons@ConvexMeshBuilder@physx@@QEAA_NAEBIPEBVPxVec3@2@0PEBIAEAVPxAllocatorCallback@2@AEAIAEAPEAV32@4AEAPEAI4AEAPEAUPxHullPolygon@2@@Z 000000018003a728     ConvexMeshBuilder.obj
 0004:00001734       $pdata$?computeGaussMaps@ConvexMeshBuilder@physx@@QEAA_NXZ 000000018003a734     ConvexMeshBuilder.obj
 0004:00001740       $pdata$?computeMassInfo@ConvexMeshBuilder@physx@@QEAAX_N@Z 000000018003a740     ConvexMeshBuilder.obj
 0004:0000174c       $pdata$1$?computeMassInfo@ConvexMeshBuilder@physx@@QEAAX_N@Z 000000018003a74c     ConvexMeshBuilder.obj
 0004:00001758       $pdata$2$?computeMassInfo@ConvexMeshBuilder@physx@@QEAAX_N@Z 000000018003a758     ConvexMeshBuilder.obj
 0004:00001764       $pdata$6$?computeMassInfo@ConvexMeshBuilder@physx@@QEAAX_N@Z 000000018003a764     ConvexMeshBuilder.obj
 0004:00001770       $pdata$7$?computeMassInfo@ConvexMeshBuilder@physx@@QEAAX_N@Z 000000018003a770     ConvexMeshBuilder.obj
 0004:0000177c       $pdata$8$?computeMassInfo@ConvexMeshBuilder@physx@@QEAAX_N@Z 000000018003a77c     ConvexMeshBuilder.obj
 0004:00001788       $pdata$9$?computeMassInfo@ConvexMeshBuilder@physx@@QEAAX_N@Z 000000018003a788     ConvexMeshBuilder.obj
 0004:00001794       $pdata$?ComputeInternalExtent@@YAXAEAUConvexHullData@Gu@physx@@PEBUHullPolygonData@23@@Z 000000018003a794     ConvexMeshBuilder.obj
 0004:000017a0       $pdata$0$?ComputeInternalExtent@@YAXAEAUConvexHullData@Gu@physx@@PEBUHullPolygonData@23@@Z 000000018003a7a0     ConvexMeshBuilder.obj
 0004:000017ac       $pdata$1$?ComputeInternalExtent@@YAXAEAUConvexHullData@Gu@physx@@PEBUHullPolygonData@23@@Z 000000018003a7ac     ConvexMeshBuilder.obj
 0004:000017b8       $pdata$2$?ComputeInternalExtent@@YAXAEAUConvexHullData@Gu@physx@@PEBUHullPolygonData@23@@Z 000000018003a7b8     ConvexMeshBuilder.obj
 0004:000017c4       $pdata$3$?ComputeInternalExtent@@YAXAEAUConvexHullData@Gu@physx@@PEBUHullPolygonData@23@@Z 000000018003a7c4     ConvexMeshBuilder.obj
 0004:000017d0       $pdata$4$?ComputeInternalExtent@@YAXAEAUConvexHullData@Gu@physx@@PEBUHullPolygonData@23@@Z 000000018003a7d0     ConvexMeshBuilder.obj
 0004:000017dc       $pdata$?isFinite@PxVec3@physx@@QEBA_NXZ 000000018003a7dc     ConvexMeshBuilder.obj
 0004:000017e8       $pdata$??0ConvexPolygonsBuilder@physx@@QEAA@PEAUConvexHullData@Gu@1@_N@Z 000000018003a7e8     ConvexPolygonsBuilder.obj
 0004:000017f4       $pdata$??1ConvexPolygonsBuilder@physx@@QEAA@XZ 000000018003a7f4     ConvexPolygonsBuilder.obj
 0004:00001800       $pdata$?computeHullPolygons@ConvexPolygonsBuilder@physx@@QEAA_NAEBIPEBVPxVec3@2@0PEBI@Z 000000018003a800     ConvexPolygonsBuilder.obj
 0004:0000180c       $pdata$?createPolygonData@ConvexPolygonsBuilder@physx@@AEAA_NXZ 000000018003a80c     ConvexPolygonsBuilder.obj
 0004:00001818       $pdata$6$?createPolygonData@ConvexPolygonsBuilder@physx@@AEAA_NXZ 000000018003a818     ConvexPolygonsBuilder.obj
 0004:00001824       $pdata$7$?createPolygonData@ConvexPolygonsBuilder@physx@@AEAA_NXZ 000000018003a824     ConvexPolygonsBuilder.obj
 0004:00001830       $pdata$8$?createPolygonData@ConvexPolygonsBuilder@physx@@AEAA_NXZ 000000018003a830     ConvexPolygonsBuilder.obj
 0004:0000183c       $pdata$?createTrianglesFromPolygons@ConvexPolygonsBuilder@physx@@AEAA_NXZ 000000018003a83c     ConvexPolygonsBuilder.obj
 0004:00001848       $pdata$1$?createTrianglesFromPolygons@ConvexPolygonsBuilder@physx@@AEAA_NXZ 000000018003a848     ConvexPolygonsBuilder.obj
 0004:00001854       $pdata$7$?createTrianglesFromPolygons@ConvexPolygonsBuilder@physx@@AEAA_NXZ 000000018003a854     ConvexPolygonsBuilder.obj
 0004:00001860       $pdata$8$?createTrianglesFromPolygons@ConvexPolygonsBuilder@physx@@AEAA_NXZ 000000018003a860     ConvexPolygonsBuilder.obj
 0004:0000186c       $pdata$11$?createTrianglesFromPolygons@ConvexPolygonsBuilder@physx@@AEAA_NXZ 000000018003a86c     ConvexPolygonsBuilder.obj
 0004:00001878       $pdata$12$?createTrianglesFromPolygons@ConvexPolygonsBuilder@physx@@AEAA_NXZ 000000018003a878     ConvexPolygonsBuilder.obj
 0004:00001884       $pdata$14$?createTrianglesFromPolygons@ConvexPolygonsBuilder@physx@@AEAA_NXZ 000000018003a884     ConvexPolygonsBuilder.obj
 0004:00001890       $pdata$19$?createTrianglesFromPolygons@ConvexPolygonsBuilder@physx@@AEAA_NXZ 000000018003a890     ConvexPolygonsBuilder.obj
 0004:0000189c       $pdata$20$?createTrianglesFromPolygons@ConvexPolygonsBuilder@physx@@AEAA_NXZ 000000018003a89c     ConvexPolygonsBuilder.obj
 0004:000018a8       $pdata$21$?createTrianglesFromPolygons@ConvexPolygonsBuilder@physx@@AEAA_NXZ 000000018003a8a8     ConvexPolygonsBuilder.obj
 0004:000018b4       $pdata$??$PlaneEquation@U?$TriangleT@I@Gu@physx@@@@YA?AVPxPlane@physx@@AEBU?$TriangleT@I@Gu@1@PEBVPxVec3@1@@Z 000000018003a8b4     ConvexPolygonsBuilder.obj
 0004:000018c0       $pdata$??$copy@V?$ReflectionAllocator@VPair@@@shdfnd@physx@@@?$Array@VPair@@V?$ReflectionAllocator@VPair@@@shdfnd@physx@@@shdfnd@physx@@IEAAXAEBV012@@Z 000000018003a8c0     ConvexPolygonsBuilder.obj
 0004:000018cc       $pdata$?CheckFloodFill@Local@?7??extractHullPolygons@@YA_NAEAIAEAV?$Array@IV?$ReflectionAllocator@I@shdfnd@physx@@@shdfnd@physx@@AEBVConvexPolygonsBuilder@5@PEAV345@1@Z@SA_N1PEAVAdjTriangle@5@PEA_NPEBI@Z 000000018003a8cc     ConvexPolygonsBuilder.obj
 0004:000018d8       $pdata$?CheckFloodFillFace@Local@?7??extractHullPolygons@@YA_NAEAIAEAV?$Array@IV?$ReflectionAllocator@I@shdfnd@physx@@@shdfnd@physx@@AEBVConvexPolygonsBuilder@5@PEAV345@1@Z@SA_NIPEBVAdjTriangle@5@PEBI@Z 000000018003a8d8     ConvexPolygonsBuilder.obj
 0004:000018e4       $pdata$6$?CheckFloodFillFace@Local@?7??extractHullPolygons@@YA_NAEAIAEAV?$Array@IV?$ReflectionAllocator@I@shdfnd@physx@@@shdfnd@physx@@AEBVConvexPolygonsBuilder@5@PEAV345@1@Z@SA_NIPEBVAdjTriangle@5@PEBI@Z 000000018003a8e4     ConvexPolygonsBuilder.obj
 0004:000018f0       $pdata$8$?CheckFloodFillFace@Local@?7??extractHullPolygons@@YA_NAEAIAEAV?$Array@IV?$ReflectionAllocator@I@shdfnd@physx@@@shdfnd@physx@@AEBVConvexPolygonsBuilder@5@PEAV345@1@Z@SA_NIPEBVAdjTriangle@5@PEBI@Z 000000018003a8f0     ConvexPolygonsBuilder.obj
 0004:000018fc       $pdata$?CleanFaces@@YA_NAEAIPEAU?$TriangleT@I@Gu@physx@@0PEAVPxVec3@3@@Z 000000018003a8fc     ConvexPolygonsBuilder.obj
 0004:00001908       $pdata$?FloodFill@Local@?7??extractHullPolygons@@YA_NAEAIAEAV?$Array@IV?$ReflectionAllocator@I@shdfnd@physx@@@shdfnd@physx@@AEBVConvexPolygonsBuilder@5@PEAV345@1@Z@SAX1PEBVAdjTriangle@5@IPEA_N@Z 000000018003a908     ConvexPolygonsBuilder.obj
 0004:00001914       $pdata$?GetNeighborFace@Local@?7??extractHullPolygons@@YA_NAEAIAEAV?$Array@IV?$ReflectionAllocator@I@shdfnd@physx@@@shdfnd@physx@@AEBVConvexPolygonsBuilder@5@PEAV345@1@Z@SA_NIIPEBVAdjTriangle@5@PEBI00@Z 000000018003a914     ConvexPolygonsBuilder.obj
 0004:00001920       $pdata$?TestDuplicateTriangles@@YA_NAEAIPEAU?$TriangleT@I@Gu@physx@@_N@Z 000000018003a920     ConvexPolygonsBuilder.obj
 0004:0000192c       $pdata$?TestUnifiedNormals@@YA_NIPEBVPxVec3@physx@@IPEAU?$TriangleT@I@Gu@2@_N@Z 000000018003a92c     ConvexPolygonsBuilder.obj
 0004:00001938       $pdata$10$?TestUnifiedNormals@@YA_NIPEBVPxVec3@physx@@IPEAU?$TriangleT@I@Gu@2@_N@Z 000000018003a938     ConvexPolygonsBuilder.obj
 0004:00001944       $pdata$12$?TestUnifiedNormals@@YA_NIPEBVPxVec3@physx@@IPEAU?$TriangleT@I@Gu@2@_N@Z 000000018003a944     ConvexPolygonsBuilder.obj
 0004:00001950       $pdata$13$?TestUnifiedNormals@@YA_NIPEBVPxVec3@physx@@IPEAU?$TriangleT@I@Gu@2@_N@Z 000000018003a950     ConvexPolygonsBuilder.obj
 0004:0000195c       $pdata$14$?TestUnifiedNormals@@YA_NIPEBVPxVec3@physx@@IPEAU?$TriangleT@I@Gu@2@_N@Z 000000018003a95c     ConvexPolygonsBuilder.obj
 0004:00001968       $pdata$?allocate@?$ReflectionAllocator@VPair@@@shdfnd@physx@@QEAAPEAX_KPEBDH@Z 000000018003a968     ConvexPolygonsBuilder.obj
 0004:00001974       $pdata$0$?allocate@?$ReflectionAllocator@VPair@@@shdfnd@physx@@QEAAPEAX_KPEBDH@Z 000000018003a974     ConvexPolygonsBuilder.obj
 0004:00001980       $pdata$1$?allocate@?$ReflectionAllocator@VPair@@@shdfnd@physx@@QEAAPEAX_KPEBDH@Z 000000018003a980     ConvexPolygonsBuilder.obj
 0004:0000198c       $pdata$?checkRedundantVertices@@YAXAEAIAEAV?$Array@IV?$ReflectionAllocator@I@shdfnd@physx@@@shdfnd@physx@@AEBVConvexPolygonsBuilder@3@11@Z 000000018003a98c     ConvexPolygonsBuilder.obj
 0004:00001998       $pdata$?computeNewellPlane@@YA_NAEAVPxPlane@physx@@IPEBEPEBVPxVec3@2@@Z 000000018003a998     ConvexPolygonsBuilder.obj
 0004:000019a4       $pdata$7$?computeNewellPlane@@YA_NAEAVPxPlane@physx@@IPEBEPEBVPxVec3@2@@Z 000000018003a9a4     ConvexPolygonsBuilder.obj
 0004:000019b0       $pdata$10$?computeNewellPlane@@YA_NAEAVPxPlane@physx@@IPEBEPEBVPxVec3@2@@Z 000000018003a9b0     ConvexPolygonsBuilder.obj
 0004:000019bc       $pdata$11$?computeNewellPlane@@YA_NAEAVPxPlane@physx@@IPEBEPEBVPxVec3@2@@Z 000000018003a9bc     ConvexPolygonsBuilder.obj
 0004:000019c8       $pdata$12$?computeNewellPlane@@YA_NAEAVPxPlane@physx@@IPEBEPEBVPxVec3@2@@Z 000000018003a9c8     ConvexPolygonsBuilder.obj
 0004:000019d4       $pdata$13$?computeNewellPlane@@YA_NAEAVPxPlane@physx@@IPEBEPEBVPxVec3@2@@Z 000000018003a9d4     ConvexPolygonsBuilder.obj
 0004:000019e0       $pdata$?extractHullPolygons@@YA_NAEAIAEAV?$Array@IV?$ReflectionAllocator@I@shdfnd@physx@@@shdfnd@physx@@AEBVConvexPolygonsBuilder@3@PEAV123@1@Z 000000018003a9e0     ConvexPolygonsBuilder.obj
 0004:000019ec       $pdata$?findLineStrip@@YA_NAEAV?$Array@IV?$ReflectionAllocator@I@shdfnd@physx@@@shdfnd@physx@@AEBV?$Array@VPair@@V?$ReflectionAllocator@VPair@@@shdfnd@physx@@@23@@Z 000000018003a9ec     ConvexPolygonsBuilder.obj
 0004:000019f8       $pdata$2$?findLineStrip@@YA_NAEAV?$Array@IV?$ReflectionAllocator@I@shdfnd@physx@@@shdfnd@physx@@AEBV?$Array@VPair@@V?$ReflectionAllocator@VPair@@@shdfnd@physx@@@23@@Z 000000018003a9f8     ConvexPolygonsBuilder.obj
 0004:00001a04       $pdata$5$?findLineStrip@@YA_NAEAV?$Array@IV?$ReflectionAllocator@I@shdfnd@physx@@@shdfnd@physx@@AEBV?$Array@VPair@@V?$ReflectionAllocator@VPair@@@shdfnd@physx@@@23@@Z 000000018003aa04     ConvexPolygonsBuilder.obj
 0004:00001a10       $pdata$6$?findLineStrip@@YA_NAEAV?$Array@IV?$ReflectionAllocator@I@shdfnd@physx@@@shdfnd@physx@@AEBV?$Array@VPair@@V?$ReflectionAllocator@VPair@@@shdfnd@physx@@@23@@Z 000000018003aa10     ConvexPolygonsBuilder.obj
 0004:00001a1c       $pdata$7$?findLineStrip@@YA_NAEAV?$Array@IV?$ReflectionAllocator@I@shdfnd@physx@@@shdfnd@physx@@AEBV?$Array@VPair@@V?$ReflectionAllocator@VPair@@@shdfnd@physx@@@23@@Z 000000018003aa1c     ConvexPolygonsBuilder.obj
 0004:00001a28       $pdata$?growAndPushBack@?$Array@VPair@@V?$ReflectionAllocator@VPair@@@shdfnd@physx@@@shdfnd@physx@@IEAAAEAVPair@@AEBV4@@Z 000000018003aa28     ConvexPolygonsBuilder.obj
 0004:00001a34       $pdata$??0QuickHullConvexHullLib@physx@@QEAA@AEBVPxConvexMeshDesc@1@AEBUPxCookingParams@1@@Z 000000018003aa34     QuickHullConvexHullLib.obj
 0004:00001a40       $pdata$??1QuickHullConvexHullLib@physx@@UEAA@XZ 000000018003aa40     QuickHullConvexHullLib.obj
 0004:00001a4c       $pdata$?createConvexHull@QuickHullConvexHullLib@physx@@UEAA?AW4Enum@PxConvexMeshCookingResult@2@XZ 000000018003aa4c     QuickHullConvexHullLib.obj
 0004:00001a58       $pdata$?fillConvexMeshDesc@QuickHullConvexHullLib@physx@@UEAAXAEAVPxConvexMeshDesc@2@@Z 000000018003aa58     QuickHullConvexHullLib.obj
 0004:00001a64       $pdata$?createEdgeList@QuickHullConvexHullLib@physx@@UEAA_NIPEBEPEAPEAEPEAPEAG2@Z 000000018003aa64     QuickHullConvexHullLib.obj
 0004:00001a70       $pdata$?expandHullOBB@QuickHullConvexHullLib@physx@@IEAA?AW4Enum@PxConvexMeshCookingResult@2@XZ 000000018003aa70     QuickHullConvexHullLib.obj
 0004:00001a7c       $pdata$4$?expandHullOBB@QuickHullConvexHullLib@physx@@IEAA?AW4Enum@PxConvexMeshCookingResult@2@XZ 000000018003aa7c     QuickHullConvexHullLib.obj
 0004:00001a88       $pdata$5$?expandHullOBB@QuickHullConvexHullLib@physx@@IEAA?AW4Enum@PxConvexMeshCookingResult@2@XZ 000000018003aa88     QuickHullConvexHullLib.obj
 0004:00001a94       $pdata$6$?expandHullOBB@QuickHullConvexHullLib@physx@@IEAA?AW4Enum@PxConvexMeshCookingResult@2@XZ 000000018003aa94     QuickHullConvexHullLib.obj
 0004:00001aa0       $pdata$7$?expandHullOBB@QuickHullConvexHullLib@physx@@IEAA?AW4Enum@PxConvexMeshCookingResult@2@XZ 000000018003aaa0     QuickHullConvexHullLib.obj
 0004:00001aac       $pdata$?expandHull@QuickHullConvexHullLib@physx@@IEAA?AW4Enum@PxConvexMeshCookingResult@2@XZ 000000018003aaac     QuickHullConvexHullLib.obj
 0004:00001ab8       $pdata$?cleanupForSimplex@QuickHullConvexHullLib@physx@@IEAA_NPEAVPxVec3@2@IPEAUQuickHullVertex@local@@1AEAM2@Z 000000018003aab8     QuickHullConvexHullLib.obj
 0004:00001ac4       $pdata$0$?cleanupForSimplex@QuickHullConvexHullLib@physx@@IEAA_NPEAVPxVec3@2@IPEAUQuickHullVertex@local@@1AEAM2@Z 000000018003aac4     QuickHullConvexHullLib.obj
 0004:00001ad0       $pdata$8$?cleanupForSimplex@QuickHullConvexHullLib@physx@@IEAA_NPEAVPxVec3@2@IPEAUQuickHullVertex@local@@1AEAM2@Z 000000018003aad0     QuickHullConvexHullLib.obj
 0004:00001adc       $pdata$9$?cleanupForSimplex@QuickHullConvexHullLib@physx@@IEAA_NPEAVPxVec3@2@IPEAUQuickHullVertex@local@@1AEAM2@Z 000000018003aadc     QuickHullConvexHullLib.obj
 0004:00001ae8       $pdata$10$?cleanupForSimplex@QuickHullConvexHullLib@physx@@IEAA_NPEAVPxVec3@2@IPEAUQuickHullVertex@local@@1AEAM2@Z 000000018003aae8     QuickHullConvexHullLib.obj
 0004:00001af4       $pdata$11$?cleanupForSimplex@QuickHullConvexHullLib@physx@@IEAA_NPEAVPxVec3@2@IPEAUQuickHullVertex@local@@1AEAM2@Z 000000018003aaf4     QuickHullConvexHullLib.obj
 0004:00001b00       $pdata$12$?cleanupForSimplex@QuickHullConvexHullLib@physx@@IEAA_NPEAVPxVec3@2@IPEAUQuickHullVertex@local@@1AEAM2@Z 000000018003ab00     QuickHullConvexHullLib.obj
 0004:00001b0c       $pdata$?fillConvexMeshDescFromQuickHull@QuickHullConvexHullLib@physx@@IEAAXAEAVPxConvexMeshDesc@2@@Z 000000018003ab0c     QuickHullConvexHullLib.obj
 0004:00001b18       $pdata$?fillConvexMeshDescFromCroppedHull@QuickHullConvexHullLib@physx@@IEAAXAEAVPxConvexMeshDesc@2@@Z 000000018003ab18     QuickHullConvexHullLib.obj
 0004:00001b24       $pdata$?mergeAdjacentFace@QuickHullFace@local@@QEAA_NPEAUQuickHullHalfEdge@2@AEAV?$Array@PEAUQuickHullFace@local@@V?$ReflectionAllocator@PEAUQuickHullFace@local@@@shdfnd@physx@@@shdfnd@physx@@@Z 000000018003ab24     QuickHullConvexHullLib.obj
 0004:00001b30       $pdata$3$?mergeAdjacentFace@QuickHullFace@local@@QEAA_NPEAUQuickHullHalfEdge@2@AEAV?$Array@PEAUQuickHullFace@local@@V?$ReflectionAllocator@PEAUQuickHullFace@local@@@shdfnd@physx@@@shdfnd@physx@@@Z 000000018003ab30     QuickHullConvexHullLib.obj
 0004:00001b3c       $pdata$4$?mergeAdjacentFace@QuickHullFace@local@@QEAA_NPEAUQuickHullHalfEdge@2@AEAV?$Array@PEAUQuickHullFace@local@@V?$ReflectionAllocator@PEAUQuickHullFace@local@@@shdfnd@physx@@@shdfnd@physx@@@Z 000000018003ab3c     QuickHullConvexHullLib.obj
 0004:00001b48       $pdata$5$?mergeAdjacentFace@QuickHullFace@local@@QEAA_NPEAUQuickHullHalfEdge@2@AEAV?$Array@PEAUQuickHullFace@local@@V?$ReflectionAllocator@PEAUQuickHullFace@local@@@shdfnd@physx@@@shdfnd@physx@@@Z 000000018003ab48     QuickHullConvexHullLib.obj
 0004:00001b54       $pdata$6$?mergeAdjacentFace@QuickHullFace@local@@QEAA_NPEAUQuickHullHalfEdge@2@AEAV?$Array@PEAUQuickHullFace@local@@V?$ReflectionAllocator@PEAUQuickHullFace@local@@@shdfnd@physx@@@shdfnd@physx@@@Z 000000018003ab54     QuickHullConvexHullLib.obj
 0004:00001b60       $pdata$7$?mergeAdjacentFace@QuickHullFace@local@@QEAA_NPEAUQuickHullHalfEdge@2@AEAV?$Array@PEAUQuickHullFace@local@@V?$ReflectionAllocator@PEAUQuickHullFace@local@@@shdfnd@physx@@@shdfnd@physx@@@Z 000000018003ab60     QuickHullConvexHullLib.obj
 0004:00001b6c       $pdata$?connectHalfEdges@QuickHullFace@local@@AEAAPEAU12@PEAUQuickHullHalfEdge@2@0@Z 000000018003ab6c     QuickHullConvexHullLib.obj
 0004:00001b78       $pdata$4$?connectHalfEdges@QuickHullFace@local@@AEAAPEAU12@PEAUQuickHullHalfEdge@2@0@Z 000000018003ab78     QuickHullConvexHullLib.obj
 0004:00001b84       $pdata$5$?connectHalfEdges@QuickHullFace@local@@AEAAPEAU12@PEAUQuickHullHalfEdge@2@0@Z 000000018003ab84     QuickHullConvexHullLib.obj
 0004:00001b90       $pdata$6$?connectHalfEdges@QuickHullFace@local@@AEAAPEAU12@PEAUQuickHullHalfEdge@2@0@Z 000000018003ab90     QuickHullConvexHullLib.obj
 0004:00001b9c       $pdata$7$?connectHalfEdges@QuickHullFace@local@@AEAAPEAU12@PEAUQuickHullHalfEdge@2@0@Z 000000018003ab9c     QuickHullConvexHullLib.obj
 0004:00001ba8       $pdata$??1QuickHull@local@@QEAA@XZ 000000018003aba8     QuickHullConvexHullLib.obj
 0004:00001bb4       $pdata$?preallocate@QuickHull@local@@QEAAXI@Z 000000018003abb4     QuickHullConvexHullLib.obj
 0004:00001bc0       $pdata$?parseInputVertices@QuickHull@local@@QEAAXPEBVPxVec3@physx@@I@Z 000000018003abc0     QuickHullConvexHullLib.obj
 0004:00001bcc       $pdata$0$?parseInputVertices@QuickHull@local@@QEAAXPEBVPxVec3@physx@@I@Z 000000018003abcc     QuickHullConvexHullLib.obj
 0004:00001bd8       $pdata$1$?parseInputVertices@QuickHull@local@@QEAAXPEBVPxVec3@physx@@I@Z 000000018003abd8     QuickHullConvexHullLib.obj
 0004:00001be4       $pdata$?releaseHull@QuickHull@local@@QEAAXXZ 000000018003abe4     QuickHullConvexHullLib.obj
 0004:00001bf0       $pdata$?buildHull@QuickHull@local@@QEAA?AW4Enum@QuickHullResult@2@XZ 000000018003abf0     QuickHullConvexHullLib.obj
 0004:00001bfc       $pdata$?computeMinMaxVerts@QuickHull@local@@IEAAXXZ 000000018003abfc     QuickHullConvexHullLib.obj
 0004:00001c08       $pdata$?findSimplex@QuickHull@local@@IEAA_NXZ 000000018003ac08     QuickHullConvexHullLib.obj
 0004:00001c14       $pdata$7$?findSimplex@QuickHull@local@@IEAA_NXZ 000000018003ac14     QuickHullConvexHullLib.obj
 0004:00001c20       $pdata$11$?findSimplex@QuickHull@local@@IEAA_NXZ 000000018003ac20     QuickHullConvexHullLib.obj
 0004:00001c2c       $pdata$12$?findSimplex@QuickHull@local@@IEAA_NXZ 000000018003ac2c     QuickHullConvexHullLib.obj
 0004:00001c38       $pdata$13$?findSimplex@QuickHull@local@@IEAA_NXZ 000000018003ac38     QuickHullConvexHullLib.obj
 0004:00001c44       $pdata$14$?findSimplex@QuickHull@local@@IEAA_NXZ 000000018003ac44     QuickHullConvexHullLib.obj
 0004:00001c50       $pdata$?addSimplex@QuickHull@local@@IEAAXPEAUQuickHullVertex@2@_N@Z 000000018003ac50     QuickHullConvexHullLib.obj
 0004:00001c5c       $pdata$2$?addSimplex@QuickHull@local@@IEAAXPEAUQuickHullVertex@2@_N@Z 000000018003ac5c     QuickHullConvexHullLib.obj
 0004:00001c68       $pdata$4$?addSimplex@QuickHull@local@@IEAAXPEAUQuickHullVertex@2@_N@Z 000000018003ac68     QuickHullConvexHullLib.obj
 0004:00001c74       $pdata$3$?addSimplex@QuickHull@local@@IEAAXPEAUQuickHullVertex@2@_N@Z 000000018003ac74     QuickHullConvexHullLib.obj
 0004:00001c80       $pdata$?nextPointToAdd@QuickHull@local@@IEAAPEAUQuickHullVertex@2@AEAPEAUQuickHullFace@2@@Z 000000018003ac80     QuickHullConvexHullLib.obj
 0004:00001c8c       $pdata$?addPointToHull@QuickHull@local@@IEAA_NPEBUQuickHullVertex@2@AEAUQuickHullFace@2@AEA_N@Z 000000018003ac8c     QuickHullConvexHullLib.obj
 0004:00001c98       $pdata$2$?addPointToHull@QuickHull@local@@IEAA_NPEBUQuickHullVertex@2@AEAUQuickHullFace@2@AEA_N@Z 000000018003ac98     QuickHullConvexHullLib.obj
 0004:00001ca4       $pdata$3$?addPointToHull@QuickHull@local@@IEAA_NPEBUQuickHullVertex@2@AEAUQuickHullFace@2@AEA_N@Z 000000018003aca4     QuickHullConvexHullLib.obj
 0004:00001cb0       $pdata$4$?addPointToHull@QuickHull@local@@IEAA_NPEBUQuickHullVertex@2@AEAUQuickHullFace@2@AEA_N@Z 000000018003acb0     QuickHullConvexHullLib.obj
 0004:00001cbc       $pdata$5$?addPointToHull@QuickHull@local@@IEAA_NPEBUQuickHullVertex@2@AEAUQuickHullFace@2@AEA_N@Z 000000018003acbc     QuickHullConvexHullLib.obj
 0004:00001cc8       $pdata$?createTriangle@QuickHull@local@@IEAAPEAUQuickHullFace@2@AEBUQuickHullVertex@2@00@Z 000000018003acc8     QuickHullConvexHullLib.obj
 0004:00001cd4       $pdata$?calculateHorizon@QuickHull@local@@IEAAXAEBVPxVec3@physx@@PEAUQuickHullHalfEdge@2@AEAUQuickHullFace@2@AEAV?$Array@PEAUQuickHullHalfEdge@local@@V?$ReflectionAllocator@PEAUQuickHullHalfEdge@local@@@shdfnd@physx@@@shdfnd@4@AEAV?$Array@PEAUQuickHullFace@local@@V?$ReflectionAllocator@PEAUQuickHullFace@local@@@shdfnd@physx@@@84@@Z 000000018003acd4     QuickHullConvexHullLib.obj
 0004:00001ce0       $pdata$?addNewFacesFromHorizon@QuickHull@local@@IEAAXPEBUQuickHullVertex@2@AEBV?$Array@PEAUQuickHullHalfEdge@local@@V?$ReflectionAllocator@PEAUQuickHullHalfEdge@local@@@shdfnd@physx@@@shdfnd@physx@@AEAV?$Array@PEAUQuickHullFace@local@@V?$ReflectionAllocator@PEAUQuickHullFace@local@@@shdfnd@physx@@@56@@Z 000000018003ace0     QuickHullConvexHullLib.obj
 0004:00001cec       $pdata$2$?addNewFacesFromHorizon@QuickHull@local@@IEAAXPEBUQuickHullVertex@2@AEBV?$Array@PEAUQuickHullHalfEdge@local@@V?$ReflectionAllocator@PEAUQuickHullHalfEdge@local@@@shdfnd@physx@@@shdfnd@physx@@AEAV?$Array@PEAUQuickHullFace@local@@V?$ReflectionAllocator@PEAUQuickHullFace@local@@@shdfnd@physx@@@56@@Z 000000018003acec     QuickHullConvexHullLib.obj
 0004:00001cf8       $pdata$3$?addNewFacesFromHorizon@QuickHull@local@@IEAAXPEBUQuickHullVertex@2@AEBV?$Array@PEAUQuickHullHalfEdge@local@@V?$ReflectionAllocator@PEAUQuickHullHalfEdge@local@@@shdfnd@physx@@@shdfnd@physx@@AEAV?$Array@PEAUQuickHullFace@local@@V?$ReflectionAllocator@PEAUQuickHullFace@local@@@shdfnd@physx@@@56@@Z 000000018003acf8     QuickHullConvexHullLib.obj
 0004:00001d04       $pdata$?doAdjacentMerge@QuickHull@local@@IEAA_NAEAUQuickHullFace@2@_NAEA_N@Z 000000018003ad04     QuickHullConvexHullLib.obj
 0004:00001d10       $pdata$1$?doAdjacentMerge@QuickHull@local@@IEAA_NAEAUQuickHullFace@2@_NAEA_N@Z 000000018003ad10     QuickHullConvexHullLib.obj
 0004:00001d1c       $pdata$?doPostAdjacentMerge@QuickHull@local@@IEAA_NAEAUQuickHullFace@2@M@Z 000000018003ad1c     QuickHullConvexHullLib.obj
 0004:00001d28       $pdata$0$?doPostAdjacentMerge@QuickHull@local@@IEAA_NAEAUQuickHullFace@2@M@Z 000000018003ad28     QuickHullConvexHullLib.obj
 0004:00001d34       $pdata$1$?doPostAdjacentMerge@QuickHull@local@@IEAA_NAEAUQuickHullFace@2@M@Z 000000018003ad34     QuickHullConvexHullLib.obj
 0004:00001d40       $pdata$?deleteFacePoints@QuickHull@local@@IEAAXAEAUQuickHullFace@2@PEAU32@@Z 000000018003ad40     QuickHullConvexHullLib.obj
 0004:00001d4c       $pdata$0$?deleteFacePoints@QuickHull@local@@IEAAXAEAUQuickHullFace@2@PEAU32@@Z 000000018003ad4c     QuickHullConvexHullLib.obj
 0004:00001d58       $pdata$1$?deleteFacePoints@QuickHull@local@@IEAAXAEAUQuickHullFace@2@PEAU32@@Z 000000018003ad58     QuickHullConvexHullLib.obj
 0004:00001d64       $pdata$?resolveUnclaimedPoints@QuickHull@local@@IEAAXAEBV?$Array@PEAUQuickHullFace@local@@V?$ReflectionAllocator@PEAUQuickHullFace@local@@@shdfnd@physx@@@shdfnd@physx@@@Z 000000018003ad64     QuickHullConvexHullLib.obj
 0004:00001d70       $pdata$?postMergeHull@QuickHull@local@@IEAAXXZ 000000018003ad70     QuickHullConvexHullLib.obj
 0004:00001d7c       $pdata$4$?postMergeHull@QuickHull@local@@IEAAXXZ 000000018003ad7c     QuickHullConvexHullLib.obj
 0004:00001d88       $pdata$5$?postMergeHull@QuickHull@local@@IEAAXXZ 000000018003ad88     QuickHullConvexHullLib.obj
 0004:00001d94       $pdata$6$?postMergeHull@QuickHull@local@@IEAAXXZ 000000018003ad94     QuickHullConvexHullLib.obj
 0004:00001da0       $pdata$?canMergeFaces@QuickHull@local@@IEAA_NAEBUQuickHullHalfEdge@2@@Z 000000018003ada0     QuickHullConvexHullLib.obj
 0004:00001dac       $pdata$?addExpandPoint@local@@YAXAEBUExpandPoint@1@AEAV?$Array@UExpandPoint@local@@V?$ReflectionAllocator@UExpandPoint@local@@@shdfnd@physx@@@shdfnd@physx@@@Z 000000018003adac     QuickHullConvexHullLib.obj
 0004:00001db8       $pdata$??1?$MemBlock@UQuickHullFace@local@@$00@local@@QEAA@XZ 000000018003adb8     QuickHullConvexHullLib.obj
 0004:00001dc4       $pdata$0$??1?$MemBlock@UQuickHullFace@local@@$00@local@@QEAA@XZ 000000018003adc4     QuickHullConvexHullLib.obj
 0004:00001dd0       $pdata$1$??1?$MemBlock@UQuickHullFace@local@@$00@local@@QEAA@XZ 000000018003add0     QuickHullConvexHullLib.obj
 0004:00001ddc       $pdata$2$??1?$MemBlock@UQuickHullFace@local@@$00@local@@QEAA@XZ 000000018003addc     QuickHullConvexHullLib.obj
 0004:00001de8       $pdata$3$??1?$MemBlock@UQuickHullFace@local@@$00@local@@QEAA@XZ 000000018003ade8     QuickHullConvexHullLib.obj
 0004:00001df4       $pdata$??1?$MemBlock@UQuickHullHalfEdge@local@@$0A@@local@@QEAA@XZ 000000018003adf4     QuickHullConvexHullLib.obj
 0004:00001e00       $pdata$0$??1?$MemBlock@UQuickHullHalfEdge@local@@$0A@@local@@QEAA@XZ 000000018003ae00     QuickHullConvexHullLib.obj
 0004:00001e0c       $pdata$1$??1?$MemBlock@UQuickHullHalfEdge@local@@$0A@@local@@QEAA@XZ 000000018003ae0c     QuickHullConvexHullLib.obj
 0004:00001e18       $pdata$2$??1?$MemBlock@UQuickHullHalfEdge@local@@$0A@@local@@QEAA@XZ 000000018003ae18     QuickHullConvexHullLib.obj
 0004:00001e24       $pdata$3$??1?$MemBlock@UQuickHullHalfEdge@local@@$0A@@local@@QEAA@XZ 000000018003ae24     QuickHullConvexHullLib.obj
 0004:00001e30       $pdata$??1ConvexHull@physx@@QEAA@XZ 000000018003ae30     QuickHullConvexHullLib.obj
 0004:00001e3c       $pdata$??_GQuickHullConvexHullLib@physx@@UEAAPEAXI@Z 000000018003ae3c     QuickHullConvexHullLib.obj
 0004:00001e48       $pdata$??__G@YAXPEAX0_K1P6APEAX00@Z@Z 000000018003ae48     QuickHullConvexHullLib.obj
 0004:00001e54       $pdata$0$??__G@YAXPEAX0_K1P6APEAX00@Z@Z 000000018003ae54     QuickHullConvexHullLib.obj
 0004:00001e60       $pdata$1$??__G@YAXPEAX0_K1P6APEAX00@Z@Z 000000018003ae60     QuickHullConvexHullLib.obj
 0004:00001e6c       $pdata$?allocate@?$ReflectionAllocator@PEAUQuickHullFace@local@@@shdfnd@physx@@QEAAPEAX_KPEBDH@Z 000000018003ae6c     QuickHullConvexHullLib.obj
 0004:00001e78       $pdata$0$?allocate@?$ReflectionAllocator@PEAUQuickHullFace@local@@@shdfnd@physx@@QEAAPEAX_KPEBDH@Z 000000018003ae78     QuickHullConvexHullLib.obj
 0004:00001e84       $pdata$1$?allocate@?$ReflectionAllocator@PEAUQuickHullFace@local@@@shdfnd@physx@@QEAAPEAX_KPEBDH@Z 000000018003ae84     QuickHullConvexHullLib.obj
 0004:00001e90       $pdata$?allocate@?$ReflectionAllocator@PEAUQuickHullHalfEdge@local@@@shdfnd@physx@@QEAAPEAX_KPEBDH@Z 000000018003ae90     QuickHullConvexHullLib.obj
 0004:00001e9c       $pdata$0$?allocate@?$ReflectionAllocator@PEAUQuickHullHalfEdge@local@@@shdfnd@physx@@QEAAPEAX_KPEBDH@Z 000000018003ae9c     QuickHullConvexHullLib.obj
 0004:00001ea8       $pdata$1$?allocate@?$ReflectionAllocator@PEAUQuickHullHalfEdge@local@@@shdfnd@physx@@QEAAPEAX_KPEBDH@Z 000000018003aea8     QuickHullConvexHullLib.obj
 0004:00001eb4       $pdata$?allocate@?$ReflectionAllocator@PEAUQuickHullVertex@local@@@shdfnd@physx@@QEAAPEAX_KPEBDH@Z 000000018003aeb4     QuickHullConvexHullLib.obj
 0004:00001ec0       $pdata$0$?allocate@?$ReflectionAllocator@PEAUQuickHullVertex@local@@@shdfnd@physx@@QEAAPEAX_KPEBDH@Z 000000018003aec0     QuickHullConvexHullLib.obj
 0004:00001ecc       $pdata$1$?allocate@?$ReflectionAllocator@PEAUQuickHullVertex@local@@@shdfnd@physx@@QEAAPEAX_KPEBDH@Z 000000018003aecc     QuickHullConvexHullLib.obj
 0004:00001ed8       $pdata$?allocate@?$ReflectionAllocator@UExpandPoint@local@@@shdfnd@physx@@QEAAPEAX_KPEBDH@Z 000000018003aed8     QuickHullConvexHullLib.obj
 0004:00001ee4       $pdata$0$?allocate@?$ReflectionAllocator@UExpandPoint@local@@@shdfnd@physx@@QEAAPEAX_KPEBDH@Z 000000018003aee4     QuickHullConvexHullLib.obj
 0004:00001ef0       $pdata$1$?allocate@?$ReflectionAllocator@UExpandPoint@local@@@shdfnd@physx@@QEAAPEAX_KPEBDH@Z 000000018003aef0     QuickHullConvexHullLib.obj
 0004:00001efc       $pdata$?getFreeItem@?$MemBlock@UQuickHullFace@local@@$00@local@@QEAAPEAUQuickHullFace@2@XZ 000000018003aefc     QuickHullConvexHullLib.obj
 0004:00001f08       $pdata$?getFreeItem@?$MemBlock@UQuickHullHalfEdge@local@@$0A@@local@@QEAAPEAUQuickHullHalfEdge@2@XZ 000000018003af08     QuickHullConvexHullLib.obj
 0004:00001f14       $pdata$?growAndPushBack@?$Array@PEAUQuickHullFace@local@@V?$ReflectionAllocator@PEAUQuickHullFace@local@@@shdfnd@physx@@@shdfnd@physx@@IEAAAEAPEAUQuickHullFace@local@@AEBQEAU45@@Z 000000018003af14     QuickHullConvexHullLib.obj
 0004:00001f20       $pdata$?growAndPushBack@?$Array@PEAUQuickHullHalfEdge@local@@V?$ReflectionAllocator@PEAUQuickHullHalfEdge@local@@@shdfnd@physx@@@shdfnd@physx@@IEAAAEAPEAUQuickHullHalfEdge@local@@AEBQEAU45@@Z 000000018003af20     QuickHullConvexHullLib.obj
 0004:00001f2c       $pdata$?growAndPushBack@?$Array@PEAUQuickHullVertex@local@@V?$ReflectionAllocator@PEAUQuickHullVertex@local@@@shdfnd@physx@@@shdfnd@physx@@IEAAAEAPEAUQuickHullVertex@local@@AEBQEAU45@@Z 000000018003af2c     QuickHullConvexHullLib.obj
 0004:00001f38       $pdata$?growAndPushBack@?$Array@UExpandPoint@local@@V?$ReflectionAllocator@UExpandPoint@local@@@shdfnd@physx@@@shdfnd@physx@@IEAAAEAUExpandPoint@local@@AEBU45@@Z 000000018003af38     QuickHullConvexHullLib.obj
 0004:00001f44       $pdata$?init@?$MemBlock@UQuickHullFace@local@@$00@local@@QEAAXI@Z 000000018003af44     QuickHullConvexHullLib.obj
 0004:00001f50       $pdata$?init@?$MemBlock@UQuickHullHalfEdge@local@@$0A@@local@@QEAAXI@Z 000000018003af50     QuickHullConvexHullLib.obj
 0004:00001f5c       $pdata$?recreate@?$Array@PEAUQuickHullFace@local@@V?$ReflectionAllocator@PEAUQuickHullFace@local@@@shdfnd@physx@@@shdfnd@physx@@IEAAXI@Z 000000018003af5c     QuickHullConvexHullLib.obj
 0004:00001f68       $pdata$?recreate@?$Array@PEAUQuickHullHalfEdge@local@@V?$ReflectionAllocator@PEAUQuickHullHalfEdge@local@@@shdfnd@physx@@@shdfnd@physx@@IEAAXI@Z 000000018003af68     QuickHullConvexHullLib.obj
 0004:00001f74       $pdata$?recreate@?$Array@PEAUQuickHullVertex@local@@V?$ReflectionAllocator@PEAUQuickHullVertex@local@@@shdfnd@physx@@@shdfnd@physx@@IEAAXI@Z 000000018003af74     QuickHullConvexHullLib.obj
 0004:00001f80       $pdata$?recreate@?$Array@UExpandPoint@local@@V?$ReflectionAllocator@UExpandPoint@local@@@shdfnd@physx@@@shdfnd@physx@@IEAAXI@Z 000000018003af80     QuickHullConvexHullLib.obj
 0004:00001f8c       $pdata$?reset@?$MemBlock@UQuickHullFace@local@@$00@local@@QEAAXXZ 000000018003af8c     QuickHullConvexHullLib.obj
 0004:00001f98       $pdata$0$?reset@?$MemBlock@UQuickHullFace@local@@$00@local@@QEAAXXZ 000000018003af98     QuickHullConvexHullLib.obj
 0004:00001fa4       $pdata$1$?reset@?$MemBlock@UQuickHullFace@local@@$00@local@@QEAAXXZ 000000018003afa4     QuickHullConvexHullLib.obj
 0004:00001fb0       $pdata$?reset@?$MemBlock@UQuickHullHalfEdge@local@@$0A@@local@@QEAAXXZ 000000018003afb0     QuickHullConvexHullLib.obj
 0004:00001fbc       $pdata$0$?reset@?$MemBlock@UQuickHullHalfEdge@local@@$0A@@local@@QEAAXXZ 000000018003afbc     QuickHullConvexHullLib.obj
 0004:00001fc8       $pdata$1$?reset@?$MemBlock@UQuickHullHalfEdge@local@@$0A@@local@@QEAAXXZ 000000018003afc8     QuickHullConvexHullLib.obj
 0004:00001fd4       $pdata$?threePlaneIntersection@local@@YA?AVPxVec3@physx@@AEBVPxPlane@3@00@Z 000000018003afd4     QuickHullConvexHullLib.obj
 0004:00001fe0       $pdata$?computeVolumeIntegrals@physx@@YA_NAEBVPxSimpleTriangleMesh@1@MAEAUPxIntegrals@1@@Z 000000018003afe0     VolumeIntegration.obj
 0004:00001fec       $pdata$?computeVolumeIntegralsEberly@physx@@YA_NAEBVPxConvexMeshDesc@1@MAEAUPxIntegrals@1@AEBVPxVec3@1@@Z 000000018003afec     VolumeIntegration.obj
 0004:00001ff8       $pdata$?computeVolumeIntegralsEberlySIMD@physx@@YA_NAEBVPxConvexMeshDesc@1@MAEAUPxIntegrals@1@AEBVPxVec3@1@@Z 000000018003aff8     VolumeIntegration.obj
 0004:00002004       $pdata$?computeCOMInertiaTensor@VolumeIntegrator@?A0x7075e46c@physx@@AEAAXPEAN@Z 000000018003b004     VolumeIntegration.obj
 0004:00002010       $pdata$?computeFaceIntegrals@VolumeIntegrator@?A0x7075e46c@physx@@AEAAXAEBUFace@123@@Z 000000018003b010     VolumeIntegration.obj
 0004:0000201c       $pdata$?computeFaceNormal@VolumeIntegrator@?A0x7075e46c@physx@@AEAAXAEAUFace@123@PEAI@Z 000000018003b01c     VolumeIntegration.obj
 0004:00002028       $pdata$?computeProjectionIntegrals@VolumeIntegrator@?A0x7075e46c@physx@@AEAAXAEBUFace@123@@Z 000000018003b028     VolumeIntegration.obj
 0004:00002034       $pdata$?computeVolumeIntegrals@VolumeIntegrator@?A0x7075e46c@physx@@QEAA_NAEAUPxIntegrals@3@@Z 000000018003b034     VolumeIntegration.obj
 0004:00002040       $pdata$?computeVolumeIntegrals@VolumeIntegratorEberly@?A0x7075e46c@physx@@QEAA_NAEAUPxIntegrals@3@AEBVPxVec3@3@@Z 000000018003b040     VolumeIntegration.obj
 0004:0000204c       $pdata$0$?computeVolumeIntegrals@VolumeIntegratorEberly@?A0x7075e46c@physx@@QEAA_NAEAUPxIntegrals@3@AEBVPxVec3@3@@Z 000000018003b04c     VolumeIntegration.obj
 0004:00002058       $pdata$6$?computeVolumeIntegrals@VolumeIntegratorEberly@?A0x7075e46c@physx@@QEAA_NAEAUPxIntegrals@3@AEBVPxVec3@3@@Z 000000018003b058     VolumeIntegration.obj
 0004:00002064       $pdata$7$?computeVolumeIntegrals@VolumeIntegratorEberly@?A0x7075e46c@physx@@QEAA_NAEAUPxIntegrals@3@AEBVPxVec3@3@@Z 000000018003b064     VolumeIntegration.obj
 0004:00002070       $pdata$8$?computeVolumeIntegrals@VolumeIntegratorEberly@?A0x7075e46c@physx@@QEAA_NAEAUPxIntegrals@3@AEBVPxVec3@3@@Z 000000018003b070     VolumeIntegration.obj
 0004:0000207c       $pdata$?computeVolumeIntegralsSIMD@VolumeIntegratorEberly@?A0x7075e46c@physx@@QEAA_NAEAUPxIntegrals@3@AEBVPxVec3@3@@Z 000000018003b07c     VolumeIntegration.obj
 0004:00002088       $pdata$0$?computeVolumeIntegralsSIMD@VolumeIntegratorEberly@?A0x7075e46c@physx@@QEAA_NAEAUPxIntegrals@3@AEBVPxVec3@3@@Z 000000018003b088     VolumeIntegration.obj
 0004:00002094       $pdata$2$?computeVolumeIntegralsSIMD@VolumeIntegratorEberly@?A0x7075e46c@physx@@QEAA_NAEAUPxIntegrals@3@AEBVPxVec3@3@@Z 000000018003b094     VolumeIntegration.obj
 0004:000020a0       $pdata$3$?computeVolumeIntegralsSIMD@VolumeIntegratorEberly@?A0x7075e46c@physx@@QEAA_NAEAUPxIntegrals@3@AEBVPxVec3@3@@Z 000000018003b0a0     VolumeIntegration.obj
 0004:000020ac       $pdata$4$?computeVolumeIntegralsSIMD@VolumeIntegratorEberly@?A0x7075e46c@physx@@QEAA_NAEAUPxIntegrals@3@AEBVPxVec3@3@@Z 000000018003b0ac     VolumeIntegration.obj
 0004:000020b8       $pdata$?physXCommonDliNotePreLoadLibrary@Cm@physx@@YAP6A_JXZPEBDPEBVPxDelayLoadHook@2@@Z 000000018003b0b8     WindowsCookingDelayLoadHook.obj
 0004:000020dc       $pdata$?DloadAcquireSectionWriteAccess@@YAXXZ 000000018003b0dc     Delayimp:delayhlp.obj
 0004:000020e8       $pdata$?DloadGetSRWLockFunctionPointers@@YAEXZ 000000018003b0e8     Delayimp:delayhlp.obj
 0004:000020f4       $pdata$?DloadLock@@YAXXZ   000000018003b0f4     Delayimp:delayhlp.obj
 0004:00002100       $pdata$?DloadMakePermanentImageCommit@@YAXPEAX_K@Z 000000018003b100     Delayimp:delayhlp.obj
 0004:0000210c       $pdata$?DloadObtainSection@@YAPEAXPEAK0@Z 000000018003b10c     Delayimp:delayhlp.obj
 0004:00002118       $pdata$?DloadProtectSection@@YAXKPEAK@Z 000000018003b118     Delayimp:delayhlp.obj
 0004:00002124       $pdata$?DloadReleaseSectionWriteAccess@@YAXXZ 000000018003b124     Delayimp:delayhlp.obj
 0004:00002130       $pdata$?DloadUnlock@@YAXXZ 000000018003b130     Delayimp:delayhlp.obj
 0004:0000213c       $pdata$?PiddFromDllName@@YAPEBUImgDelayDescr@@PEBD@Z 000000018003b13c     Delayimp:delayhlp.obj
 0004:00002148       $pdata$__FUnloadDelayLoadedDLL2 000000018003b148     Delayimp:delayhlp.obj
 0004:00002154       $pdata$__HrLoadAllImportsForDll 000000018003b154     Delayimp:delayhlp.obj
 0004:00002160       $pdata$__delayLoadHelper2  000000018003b160     Delayimp:delayhlp.obj
 0004:0000216c       $pdata$??_Gtype_info@@UEAAPEAXI@Z 000000018003b16c     MSVCRT:std_type_info_static.obj
 0004:00002184       $pdata$?dllmain_crt_dispatch@@YAHQEAUHINSTANCE__@@KQEAX@Z 000000018003b184     MSVCRT:dll_dllmain.obj
 0004:00002190       $pdata$?dllmain_crt_process_attach@@YAHQEAUHINSTANCE__@@QEAX@Z 000000018003b190     MSVCRT:dll_dllmain.obj
 0004:0000219c       $pdata$?dllmain_crt_process_detach@@YAH_N@Z 000000018003b19c     MSVCRT:dll_dllmain.obj
 0004:000021a8       $pdata$?dllmain_dispatch@@YAHQEAUHINSTANCE__@@KQEAX@Z 000000018003b1a8     MSVCRT:dll_dllmain.obj
 0004:000021b4       $pdata$?dllmain_raw@@YAHQEAUHINSTANCE__@@KQEAX@Z 000000018003b1b4     MSVCRT:dll_dllmain.obj
 0004:000021c0       $pdata$_DllMainCRTStartup  000000018003b1c0     MSVCRT:dll_dllmain.obj
 0004:000021cc       $pdata$?configure_argv@__scrt_narrow_argv_policy@@SAHXZ 000000018003b1cc     MSVCRT:utility.obj
 0004:000021d8       $pdata$__scrt_acquire_startup_lock 000000018003b1d8     MSVCRT:utility.obj
 0004:000021e4       $pdata$__scrt_dllmain_after_initialize_c 000000018003b1e4     MSVCRT:utility.obj
 0004:000021f0       $pdata$__scrt_dllmain_before_initialize_c 000000018003b1f0     MSVCRT:utility.obj
 0004:000021fc       $pdata$__scrt_dllmain_crt_thread_attach 000000018003b1fc     MSVCRT:utility.obj
 0004:00002208       $pdata$__scrt_dllmain_crt_thread_detach 000000018003b208     MSVCRT:utility.obj
 0004:00002214       $pdata$__scrt_dllmain_exception_filter 000000018003b214     MSVCRT:utility.obj
 0004:00002220       $pdata$__scrt_dllmain_uninitialize_c 000000018003b220     MSVCRT:utility.obj
 0004:0000222c       $pdata$__scrt_dllmain_uninitialize_critical 000000018003b22c     MSVCRT:utility.obj
 0004:00002238       $pdata$__scrt_initialize_crt 000000018003b238     MSVCRT:utility.obj
 0004:00002244       $pdata$__scrt_initialize_onexit_tables 000000018003b244     MSVCRT:utility.obj
 0004:00002250       $pdata$__scrt_is_nonwritable_in_current_image 000000018003b250     MSVCRT:utility.obj
 0004:0000225c       $pdata$__scrt_release_startup_lock 000000018003b25c     MSVCRT:utility.obj
 0004:00002268       $pdata$__scrt_uninitialize_crt 000000018003b268     MSVCRT:utility.obj
 0004:00002274       $pdata$_onexit             000000018003b274     MSVCRT:utility.obj
 0004:00002280       $pdata$atexit              000000018003b280     MSVCRT:utility.obj
 0004:0000228c       $pdata$__security_init_cookie 000000018003b28c     MSVCRT:gs_support.obj
 0004:00002298       $pdata$DllMain             000000018003b298     MSVCRT:dll_dllmain_stub.obj
 0004:000022a4       $pdata$__scrt_initialize_default_local_stdio_options 000000018003b2a4     MSVCRT:default_local_stdio_options.obj
 0004:000022b0       $pdata$__scrt_fastfail     000000018003b2b0     MSVCRT:utility_desktop.obj
 0004:000022bc       $pdata$__scrt_get_show_window_mode 000000018003b2bc     MSVCRT:utility_desktop.obj
 0004:000022c8       $pdata$__scrt_is_managed_app 000000018003b2c8     MSVCRT:utility_desktop.obj
 0004:000022d4       $pdata$__scrt_unhandled_exception_filter 000000018003b2d4     MSVCRT:utility_desktop.obj
 0004:000022e0       $pdata$_RTC_Initialize     000000018003b2e0     MSVCRT:_initsect_.obj
 0004:000022ec       $pdata$_RTC_Terminate      000000018003b2ec     MSVCRT:_initsect_.obj
 0004:000022f8       $pdata$__isa_available_init 000000018003b2f8     MSVCRT:_cpu_disp_.obj
 0004:00002310       $pdata$?fin$0@?0??dllmain_crt_process_attach@@YAHQEAUHINSTANCE__@@QEAX@Z@4HA 000000018003b310     MSVCRT:dll_dllmain.obj
 0004:0000231c       $pdata$?fin$0@?0??dllmain_crt_process_detach@@YAH_N@Z@4HA 000000018003b31c     MSVCRT:dll_dllmain.obj
 0004:00002328       $pdata$?filt$0@?0??dllmain_dispatch@@YAHQEAUHINSTANCE__@@KQEAX@Z@4HA 000000018003b328     MSVCRT:dll_dllmain.obj
 0004:00002334       $pdata$__scrt_is_nonwritable_in_current_image$filt$0 000000018003b334     MSVCRT:utility.obj
 0005:00000000       __guard_fids__             000000018003c000     MSVCRT:std_type_info_static.obj
 0005:00000004       __guard_fids_?dllmain_crt_process_attach@@YAHQEAUHINSTANCE__@@QEAX@Z 000000018003c004     MSVCRT:dll_dllmain.obj
 0005:0000000c       __guard_fids_?dllmain_dispatch@@YAHQEAUHINSTANCE__@@KQEAX@Z 000000018003c00c     MSVCRT:dll_dllmain.obj
 0005:00000010       __guard_fids__             000000018003c010     MSVCRT:guard_support.obj
 0005:00000014       __guard_fids__guard_icall_checks_enforced 000000018003c014     MSVCRT:guard_support.obj
 0005:00000018       __guard_fids___scrt_set_unhandled_exception_filter 000000018003c018     MSVCRT:utility_desktop.obj
 0006:000000a0       $R000000                   000000018003d0a0     PhysXCooking.res
 0006:000003d0       $R000330                   000000018003d3d0     PhysXCooking.res
